 ssp

 Timestamp is 63677544 (Sun Nov 06 17:50:12 2022)

 Preferred load address is 00400000

 Start         Length     Name                   Class
 0001:00000000 0045a2b0H .text                   CODE
 0001:0045a2b0 00000150H .text$AFX_AUX           CODE
 0001:0045a400 000009d0H .text$AFX_CMNCTL        CODE
 0001:0045add0 000000f0H .text$AFX_COL1          CODE
 0001:0045aec0 00000390H .text$AFX_COL2          CODE
 0001:0045b250 00006340H .text$AFX_CORE1         CODE
 0001:00461590 00000da0H .text$AFX_CORE2         CODE
 0001:00462330 00000570H .text$AFX_CORE3         CODE
 0001:004628a0 000004c0H .text$AFX_CORE4         CODE
 0001:00462d60 00000090H .text$AFX_INET          CODE
 0001:00462df0 000026c0H .text$AFX_INIT          CODE
 0001:004654b0 00000710H .text$AFX_OLE1          CODE
 0001:00465bc0 00000200H .text$AFX_OLE2          CODE
 0001:00465dc0 00000310H .text$AFX_OLE3          CODE
 0001:004660d0 00000470H .text$AFX_OLE4          CODE
 0001:00466540 00000000H .text$AFX_OLE5          CODE
 0001:00466540 00000280H .text$AFX_TERM          CODE
 0001:004667c0 000291d4H .text$x                 CODE
 0002:00000000 00000a84H .idata$5                DATA
 0002:00000a90 000c2910H .rdata                  DATA
 0002:000c33a0 00007814H .rdata$r                DATA
 0002:000cabb8 000297b8H .xdata$x                DATA
 0002:000f4370 00000020H .didat$2                DATA
 0002:000f4390 00000020H .didat$3                DATA
 0002:000f43b0 00000034H .didat$4                DATA
 0002:000f43e4 0000010eH .didat$6                DATA
 0002:000f44f4 00000034H .didat$7                DATA
 0002:000f4528 00000154H .idata$2                DATA
 0002:000f467c 00000014H .idata$3                DATA
 0002:000f4690 00000a84H .idata$4                DATA
 0002:000f5114 00002c0cH .idata$6                DATA
 0002:000f7d20 00000000H .edata                  DATA
 0003:00000000 00000004H .CRT$XCA                DATA
 0003:00000004 0000002cH .CRT$XCC                DATA
 0003:00000030 0000000cH .CRT$XCL                DATA
 0003:0000003c 0000018cH .CRT$XCU                DATA
 0003:000001c8 00000004H .CRT$XCZ                DATA
 0003:000001cc 00000004H .CRT$XIA                DATA
 0003:000001d0 0000000cH .CRT$XIC                DATA
 0003:000001dc 00000004H .CRT$XIY                DATA
 0003:000001e0 00000004H .CRT$XIZ                DATA
 0003:000001e4 00000004H .CRT$XLA                DATA
 0003:000001e8 00000004H .CRT$XLZ                DATA
 0003:000001ec 00000004H .CRT$XPA                DATA
 0003:000001f0 00000004H .CRT$XPX                DATA
 0003:000001f4 00000004H .CRT$XPZ                DATA
 0003:000001f8 00000004H .CRT$XTA                DATA
 0003:000001fc 00000004H .CRT$XTB                DATA
 0003:00000200 00000004H .CRT$XTZ                DATA
 0003:00000210 00011ffaH .data                   DATA
 0003:0001220c 00000034H .didat$5                DATA
 0003:00012240 0000e9ecH .bss                    DATA
 0004:00000000 00000004H .tls                    DATA
 0004:00000008 000047b8H .tls$                   DATA
 0004:000047c0 00000004H .tls$ZZZ                DATA
 0005:00000000 000018acH .rsrc$01                DATA
 0005:000018b0 0002ae58H .rsrc$02                DATA

  Address         Publics by Value              Rva+Base     Lib:Object

 0001:00000000       ??0CAboutDlg@@QAE@PAVCWnd@@@Z 00401000 f   AboutDlg.obj
 0001:00000050       ?BeginModalState@CWnd@@UAEXXZ 00401050 f i AboutDlg.obj
 0001:00000060       ?EndModalState@CWnd@@UAEXXZ 00401060 f i AboutDlg.obj
 0001:00000070       ??_GCFontExtend@@UAEPAXI@Z 00401070 f i AboutDlg.obj
 0001:00000070       ??_ECFontExtend@@UAEPAXI@Z 00401070 f i AboutDlg.obj
 0001:000000a0       ??1CFontExtend@@UAE@XZ     004010a0 f i AboutDlg.obj
 0001:000000e0       ??_GCGdiObject@@UAEPAXI@Z  004010e0 f i AboutDlg.obj
 0001:000000e0       ??_ECGdiObject@@UAEPAXI@Z  004010e0 f i AboutDlg.obj
 0001:00000110       ??1CGdiObject@@UAE@XZ      00401110 f i AboutDlg.obj
 0001:00000150       ??_GCAboutDlg@@UAEPAXI@Z   00401150 f i AboutDlg.obj
 0001:00000150       ??_ECAboutDlg@@UAEPAXI@Z   00401150 f i AboutDlg.obj
 0001:00000180       ??1CAboutDlg@@UAE@XZ       00401180 f i AboutDlg.obj
 0001:00000210       ??_ECDialogCustom@@UAEPAXI@Z 00401210 f i AboutDlg.obj
 0001:00000210       ??_GCDialogCustom@@UAEPAXI@Z 00401210 f i AboutDlg.obj
 0001:00000240       ?GetMessageMap@CAboutDlg@@MBEPBUAFX_MSGMAP@@XZ 00401240 f   AboutDlg.obj
 0001:00000250       ?OnOK@CAboutDlg@@MAEXXZ    00401250 f   AboutDlg.obj
 0001:00000260       ?OnInitDialog@CAboutDlg@@MAEHXZ 00401260 f   AboutDlg.obj
 0001:00000f90       ?OnCreate@CAboutDlg@@IAEHPAUtagCREATESTRUCTA@@@Z 00401f90 f   AboutDlg.obj
 0001:000010a0       ??1JLibPNG@@QAE@XZ         004020a0 f i AboutDlg.obj
 0001:00001100       ?OnPaint@CAboutDlg@@IAEXXZ 00402100 f   AboutDlg.obj
 0001:00001180       ?OnDestroy@CAboutDlg@@IAEXXZ 00402180 f   AboutDlg.obj
 0001:000011b0       ?OnCtlColor@CAboutDlg@@IAEPAUHBRUSH__@@PAVCDC@@PAVCWnd@@I@Z 004021b0 f   AboutDlg.obj
 0001:00001240       ?OnAboutUrlClick@CAboutDlg@@IAEXXZ 00402240 f   AboutDlg.obj
 0001:00001280       ?OnSetCursor@CAboutDlg@@IAEHPAVCWnd@@II@Z 00402280 f   AboutDlg.obj
 0001:000012d0       ?DoModalExt@CAboutDlg@@QAEHPAVCWnd@@@Z 004022d0 f   AboutDlg.obj
 0001:000012e0       ?PreTranslateMessage@CAboutDlg@@UAEHPAUtagMSG@@@Z 004022e0 f   AboutDlg.obj
 0001:00001350       ??0?$JArray@D@@QAE@K@Z     00402350 f i AboutDlg.obj
 0001:000013e0       ?Last@?$JArray@D@@QAEAADXZ 004023e0 f i AboutDlg.obj
 0001:00001400       ??0?$JArray@G@@QAE@K@Z     00402400 f i AboutDlg.obj
 0001:00001490       ?Add@?$JArray@D@@QAEAADXZ  00402490 f i AboutDlg.obj
 0001:00001570       ?Realloc@?$JArray@G@@QAE_NK@Z 00402570 f i AboutDlg.obj
 0001:00001640       ?Add@?$JArray@G@@QAEAAGXZ  00402640 f i AboutDlg.obj
 0001:00001730       ??0CBindExplorer@@QAE@PAVCWnd@@@Z 00402730 f   BindExplorer.obj
 0001:00001810       ??_GCListCtrl@@UAEPAXI@Z   00402810 f i BindExplorer.obj
 0001:00001810       ??_ECListCtrl@@UAEPAXI@Z   00402810 f i BindExplorer.obj
 0001:00001840       ??1SPControlAdjuster@@QAE@XZ 00402840 f i BindExplorer.obj
 0001:000018a0       ??_ECBindExplorer@@UAEPAXI@Z 004028a0 f i BindExplorer.obj
 0001:000018a0       ??_GCBindExplorer@@UAEPAXI@Z 004028a0 f i BindExplorer.obj
 0001:000018d0       ??1CBindExplorer@@UAE@XZ   004028d0 f i BindExplorer.obj
 0001:00001980       ?DoDataExchange@CBindExplorer@@MAEXPAVCDataExchange@@@Z 00402980 f   BindExplorer.obj
 0001:000019d0       ?GetMessageMap@CBindExplorer@@MBEPBUAFX_MSGMAP@@XZ 004029d0 f   BindExplorer.obj
 0001:000019e0       ?OnInitDialog@CBindExplorer@@MAEHXZ 004029e0 f   BindExplorer.obj
 0001:00001d10       ?OnDestroy@CBindExplorer@@IAEXXZ 00402d10 f   BindExplorer.obj
 0001:00001d80       ?OnCancel@CBindExplorer@@MAEXXZ 00402d80 f   BindExplorer.obj
 0001:00001d80       ?OnClose@CBindExplorer@@IAEXXZ 00402d80 f   BindExplorer.obj
 0001:00001db0       ?OnSize@CBindExplorer@@IAEXIHH@Z 00402db0 f   BindExplorer.obj
 0001:00001de0       ?UpdateListWidth@CBindExplorer@@QAEXXZ 00402de0 f   BindExplorer.obj
 0001:00001ed0       ?OnGetMinMaxInfo@CBindExplorer@@IAEXPAUtagMINMAXINFO@@@Z 00402ed0 f   BindExplorer.obj
 0001:00001f70       ?OnClickBindList@CBindExplorer@@IAEXPAUtagNMHDR@@PAJ@Z 00402f70 f   BindExplorer.obj
 0001:00001ff0       ?OnKeydownBindList@CBindExplorer@@IAEXPAUtagNMHDR@@PAJ@Z 00402ff0 f   BindExplorer.obj
 0001:00002090       ?WindowProc@CBindExplorer@@MAEJIIJ@Z 00403090 f   BindExplorer.obj
 0001:000022d0       ?OnItemchangedBindGroup@CBindExplorer@@IAEXPAUtagNMHDR@@PAJ@Z 004032d0 f   BindExplorer.obj
 0001:000024b0       ?OnItemchangedBindWnd@CBindExplorer@@IAEXPAUtagNMHDR@@PAJ@Z 004034b0 f   BindExplorer.obj
 0001:00002670       ?UpdateBindWnd@CBindExplorer@@IAEXXZ 00403670 f   BindExplorer.obj
 0001:00002890       ?UpdateBindListCheck@CBindExplorer@@IAEXXZ 00403890 f   BindExplorer.obj
 0001:00002990       ?UpdateBindGroupIcon@CBindExplorer@@IAEXXZ 00403990 f   BindExplorer.obj
 0001:00002a90       ?GetSelData@CBindExplorer@@IAEJAAVCListCtrl@@@Z 00403a90 f   BindExplorer.obj
 0001:00002af0       ?GetListSelData@CBindExplorer@@IAEJXZ 00403af0 f   BindExplorer.obj
 0001:00002b00       ?GetGroupSelData@CBindExplorer@@IAEJXZ 00403b00 f   BindExplorer.obj
 0001:00002b10       ?GetWndSelData@CBindExplorer@@IAEJXZ 00403b10 f   BindExplorer.obj
 0001:00002b20       ??0CCalendarWnd@@QAE@XZ    00403b20 f   CalendarWnd.obj
 0001:00002bb0       ??1CSimpleMenu@@QAE@XZ     00403bb0 f i CalendarWnd.obj
 0001:00002bc0       ??_GCCalendarWnd@@UAEPAXI@Z 00403bc0 f i CalendarWnd.obj
 0001:00002bc0       ??_ECCalendarWnd@@UAEPAXI@Z 00403bc0 f i CalendarWnd.obj
 0001:00002bf0       ??1CCalendarWnd@@UAE@XZ    00403bf0 f   CalendarWnd.obj
 0001:00002c80       ?GetMessageMap@CCalendarWnd@@MBEPBUAFX_MSGMAP@@XZ 00403c80 f   CalendarWnd.obj
 0001:00002c90       ?OnCreate@CCalendarWnd@@IAEHPAUtagCREATESTRUCTA@@@Z 00403c90 f   CalendarWnd.obj
 0001:00002de0       ?SelectCell@CCalendarWnd@@AAEHAAVCPoint@@@Z 00403de0 f   CalendarWnd.obj
 0001:00002e90       ?OnLButtonDown@CCalendarWnd@@IAEXIVCPoint@@@Z 00403e90 f   CalendarWnd.obj
 0001:00002ed0       ?OnLButtonDblClk@CCalendarWnd@@IAEXIVCPoint@@@Z 00403ed0 f   CalendarWnd.obj
 0001:00002f20       ?MakeAndSelectMenu@CCalendarWnd@@AAEHHHH@Z 00403f20 f   CalendarWnd.obj
 0001:00002ff0       ?SetMonth@CCalendarWnd@@AAEXHH@Z 00403ff0 f   CalendarWnd.obj
 0001:00003030       ?OnLButtonUp@CCalendarWnd@@IAEXIVCPoint@@@Z 00404030 f   CalendarWnd.obj
 0001:00003120       ?OnRButtonUp@CCalendarWnd@@IAEXIVCPoint@@@Z 00404120 f   CalendarWnd.obj
 0001:00003220       ?OnKeyDown@CCalendarWnd@@IAEXIII@Z 00404220 f   CalendarWnd.obj
 0001:00003310       ?OnMouseMove@CCalendarWnd@@IAEXIVCPoint@@@Z 00404310 f   CalendarWnd.obj
 0001:00003460       ?OnPaint@CCalendarWnd@@IAEXXZ 00404460 f   CalendarWnd.obj
 0001:000034c0       ?OnEraseBkgnd@CGhostAIGraph@@IAEHPAVCDC@@@Z 004044c0 f   CalendarWnd.obj
 0001:000034c0       ?OnEraseBkgnd@CCalendarWnd@@IAEHPAVCDC@@@Z 004044c0 f   CalendarWnd.obj
 0001:000034c0       ?OnEraseBkgnd@CGhostTimeWnd@@IAEHPAVCDC@@@Z 004044c0 f   CalendarWnd.obj
 0001:000034c0       ?OnEraseBkgnd@CMessageWnd@@IAEHPAVCDC@@@Z 004044c0 f   CalendarWnd.obj
 0001:000034d0       ?OnMenuClose@CCalendarWnd@@IAEXXZ 004044d0 f   CalendarWnd.obj
 0001:000034e0       ?OnMenuEdit@CCalendarWnd@@IAEXXZ 004044e0 f   CalendarWnd.obj
 0001:000034f0       ?OnMenuNext@CCalendarWnd@@IAEXXZ 004044f0 f   CalendarWnd.obj
 0001:00003500       ?OnMenuPrev@CCalendarWnd@@IAEXXZ 00404500 f   CalendarWnd.obj
 0001:00003510       ?MoveMonth@CCalendarWnd@@QAEXH@Z 00404510 f   CalendarWnd.obj
 0001:00003560       ?OnMouseWheel@CCalendarWnd@@IAEHIFVCPoint@@@Z 00404560 f   CalendarWnd.obj
 0001:000035a0       ?UpdateWindowSize@CCalendarWnd@@QAEXXZ 004045a0 f   CalendarWnd.obj
 0001:000035c0       ?UpdateSkinMenu@CCalendarWnd@@QAEXXZ 004045c0 f   CalendarWnd.obj
 0001:00003740       ?UpdateSensorMenu@CCalendarWnd@@QAEXXZ 00404740 f   CalendarWnd.obj
 0001:00003800       ?OnCommand@CCalendarWnd@@MAEHIJ@Z 00404800 f   CalendarWnd.obj
 0001:000039b0       ?DoPostSchedule@CCalendarWnd@@QAEXPAVSPScheduleSensorProp@@PAVSPScheduleEntry@@@Z 004049b0 f   CalendarWnd.obj
 0001:000039d0       ?OnMenuReadevent@CCalendarWnd@@IAEXXZ 004049d0 f   CalendarWnd.obj
 0001:000039e0       ?OnMenuTodaysschedule@CCalendarWnd@@IAEXXZ 004049e0 f   CalendarWnd.obj
 0001:00003a00       ?TimerExec@CCalendarWnd@@QAEXPAVSPGhost@@AAU_SYSTEMTIME@@@Z 00404a00 f   CalendarWnd.obj
 0001:00003b10       ?OnMenuTopmost@CCalendarWnd@@IAEXXZ 00404b10 f   CalendarWnd.obj
 0001:00003bc0       ?OnMenuDelete@CCalendarWnd@@IAEXXZ 00404bc0 f   CalendarWnd.obj
 0001:00003bf0       ?OnMenuDeleteMonth@CCalendarWnd@@IAEXXZ 00404bf0 f   CalendarWnd.obj
 0001:00003c30       ?OnMenuDeleteYear@CCalendarWnd@@IAEXXZ 00404c30 f   CalendarWnd.obj
 0001:00003c60       ?OnDestroy@CCalendarWnd@@IAEXXZ 00404c60 f   CalendarWnd.obj
 0001:00003cf0       ?SaveWindowPos@CCalendarWnd@@AAEXXZ 00404cf0 f   CalendarWnd.obj
 0001:00003d20       ?ShowScheduleSetting@CCalendarWnd@@AAEXXZ 00404d20 f   CalendarWnd.obj
 0001:00003f30       ??3CObject@@SGXPAX@Z       00404f30 f i CalendarWnd.obj
 0001:00003f50       ??1SPDlgTemplate@@QAE@XZ   00404f50 f i CalendarWnd.obj
 0001:00003ff0       ?OnMenuCenter@CCalendarWnd@@IAEXXZ 00404ff0 f   CalendarWnd.obj
 0001:00004010       ?OnDrawItem@CCalendarWnd@@IAEXHPAUtagDRAWITEMSTRUCT@@@Z 00405010 f   CalendarWnd.obj
 0001:00004050       ?OnMeasureItem@CCalendarWnd@@IAEXHPAUtagMEASUREITEMSTRUCT@@@Z 00405050 f   CalendarWnd.obj
 0001:00004090       ??0CCharBodyWnd@@QAE@XZ    00405090 f   CharBodyWnd.obj
 0001:000040f0       ??_ECCharBodyWnd@@UAEPAXI@Z 004050f0 f i CharBodyWnd.obj
 0001:000040f0       ??_GCCharBodyWnd@@UAEPAXI@Z 004050f0 f i CharBodyWnd.obj
 0001:00004120       ??1CCharBodyWnd@@UAE@XZ    00405120 f   CharBodyWnd.obj
 0001:00004180       ??_GCCharWndBase@@UAEPAXI@Z 00405180 f i CharBodyWnd.obj
 0001:00004180       ??_ECCharWndBase@@UAEPAXI@Z 00405180 f i CharBodyWnd.obj
 0001:000041b0       ??1CCharWndBase@@UAE@XZ    004051b0 f i CharBodyWnd.obj
 0001:00004210       ?GetMessageMap@CCharBodyWnd@@MBEPBUAFX_MSGMAP@@XZ 00405210 f   CharBodyWnd.obj
 0001:00004220       ?OnCreate@CCharBodyWnd@@IAEHPAUtagCREATESTRUCTA@@@Z 00405220 f   CharBodyWnd.obj
 0001:00004220       ?OnCreate@CKeroWnd@@IAEHPAUtagCREATESTRUCTA@@@Z 00405220 f   CharBodyWnd.obj
 0001:00004250       ?OnLButtonDblClk@CCharBodyWnd@@IAEXIVCPoint@@@Z 00405250 f   CharBodyWnd.obj
 0001:00004280       ?OnMouseMove@CCharBodyWnd@@IAEXIVCPoint@@@Z 00405280 f   CharBodyWnd.obj
 0001:000042b0       ?WindowProc@CCharBodyWnd@@MAEJIIJ@Z 004052b0 f   CharBodyWnd.obj
 0001:00004300       ?GetDefaultWndPosX@CCharBodyWnd@@UAEHAAJAAVJRect@@1AAVJPoint@@@Z 00405300 f   CharBodyWnd.obj
 0001:000043b0       ?SetCharWndProp@CCharBodyWnd@@QAEXHPAVCSakuraWnd@@@Z 004053b0 f   CharBodyWnd.obj
 0001:000043e0       ?PreTranslateMessage@CCharBodyWnd@@UAEHPAUtagMSG@@@Z 004053e0 f   CharBodyWnd.obj
 0001:000043e0       ?PreTranslateMessage@CKeroWnd@@UAEHPAUtagMSG@@@Z 004053e0 f   CharBodyWnd.obj
 0001:00004410       ??_ECCharWndBase@@WDM@AEPAXI@Z 00405410 f i CharBodyWnd.obj
 0001:00004420       ??_ECCharBodyWnd@@WDM@AEPAXI@Z 00405420 f i CharBodyWnd.obj
 0001:00004470       ?GetCharWndCodeManager@@YAAAVCCharWndCodeManager@@XZ 00405470 f   CharWndCode.obj
 0001:000044b0       ??0CCharWndCodeManager@@QAE@XZ 004054b0 f i CharWndCode.obj
 0001:00004630       ??1CCharWndCodeManager@@QAE@XZ 00405630 f i CharWndCode.obj
 0001:000046d0       ??0CCharWndCode@@QAE@XZ    004056d0 f   CharWndCode.obj
 0001:00004990       ??0JRect@@QAE@XZ           00405990 f i CharWndCode.obj
 0001:000049a0       ??_GCCharWndCode@@UAEPAXI@Z 004059a0 f i CharWndCode.obj
 0001:000049a0       ??_ECCharWndCode@@UAEPAXI@Z 004059a0 f i CharWndCode.obj
 0001:000049d0       ??1CCharWndCode@@UAE@XZ    004059d0 f   CharWndCode.obj
 0001:00004ac0       ?CCWC_Initialize@CCharWndCode@@IAEXXZ 00405ac0 f   CharWndCode.obj
 0001:00004e40       ??0CCharWndCodeFuncTable@@QAE@XZ 00405e40 f i CharWndCode.obj
 0001:00005110       ??1JDynLoadStub@@UAE@XZ    00406110 f i CharWndCode.obj
 0001:00005120       ?SetSourceFilter@SPStreamFilterSocket@@UAEHPAVSPStreamFilter@@@Z 00406120 f i CharWndCode.obj
 0001:00005120       ?MatchNext@?$CGlobalElxT@$0A@@@UBEHPAVCContext@@@Z 00406120 f i CharWndCode.obj
 0001:00005120       ?SetPalette@JSurfaceObject@@UAEHAAVJPalette@@@Z 00406120 f i CharWndCode.obj
 0001:00005120       ?ReadLineImpl@SPStreamFilterHttpChunk@@UAEPADAA_J@Z 00406120 f i CharWndCode.obj
 0001:00005120       ?GetPalette@JSurfaceObject@@UAEHAAVJPalette@@@Z 00406120 f i CharWndCode.obj
 0001:00005120       ?ReadLineImpl@SPStreamFilterGZip@@UAEPADAA_J@Z 00406120 f i CharWndCode.obj
 0001:00005120       ?MatchNext@?$CEmptyElxT@$0A@@@UBEHPAVCContext@@@Z 00406120 f i CharWndCode.obj
 0001:00005120       ?Load@JSurfaceObject@@UAEHAAVJStream@@@Z 00406120 f i CharWndCode.obj
 0001:00005120       ?MatchNext@?$CBoundaryElxT@G@@UBEHPAVCContext@@@Z 00406120 f i CharWndCode.obj
 0001:00005120       ?GetProc@JDynLoadStub@@UAEPAXPBD@Z 00406120 f i CharWndCode.obj
 0001:00005120       ?Write@JMappedStream@@EAEKE@Z 00406120 f i CharWndCode.obj
 0001:00005120       ?ShallowClone@XMLDocument@tinyxml2@@UBEPAVXMLNode@2@PAV12@@Z 00406120 f i CharWndCode.obj
 0001:00005130       ??_EJDynLoadStub@@UAEPAXI@Z 00406130 f i CharWndCode.obj
 0001:00005130       ??_GJDynLoadStub@@UAEPAXI@Z 00406130 f i CharWndCode.obj
 0001:00005160       ??1JDynLoad@@UAE@XZ        00406160 f i CharWndCode.obj
 0001:000051c0       ?Load@JDynLoad@@UAEXPBD@Z  004061c0 f i CharWndCode.obj
 0001:000051f0       ??_EJDynLoad@@UAEPAXI@Z    004061f0 f i CharWndCode.obj
 0001:000051f0       ??_GJDynLoad@@UAEPAXI@Z    004061f0 f i CharWndCode.obj
 0001:00005220       ??1JDynLoadSystem@@UAE@XZ  00406220 f i CharWndCode.obj
 0001:00005280       ??_GJDynLoadSystem@@UAEPAXI@Z 00406280 f i CharWndCode.obj
 0001:00005280       ??_EJDynLoadSystem@@UAEPAXI@Z 00406280 f i CharWndCode.obj
 0001:000052c0       ??1CCharWndCodeFuncTable@@QAE@XZ 004062c0 f i CharWndCode.obj
 0001:00005330       ?CCWC_Close@CCharWndCode@@IAEXXZ 00406330 f   CharWndCode.obj
 0001:00005350       ?CCWC_Destroy@CCharWndCode@@IAEXXZ 00406350 f   CharWndCode.obj
 0001:00005590       ?InitWndMenu@CCharWndCode@@QAEXXZ 00406590 f   CharWndCode.obj
 0001:000056b0       ?ResetMenuState@CCharWndCode@@QAEXXZ 004066b0 f   CharWndCode.obj
 0001:000056c0       ?IsVisible@CCharWndCode@@QBE_NXZ 004066c0 f   CharWndCode.obj
 0001:000056e0       ?GetWindowRectOffsetMove@CCharWndCode@@QAEXAAVJRect@@@Z 004066e0 f   CharWndCode.obj
 0001:00005750       ?GGetCursorPos@CCharWndCode@@IBEXAAVJPoint@@@Z 00406750 f   CharWndCode.obj
 0001:00005780       ?CWGetCursorPos@CCharWndCode@@IBEXAAVJPoint@@@Z 00406780 f   CharWndCode.obj
 0001:000057e0       ?GetHWND@CCharWndCode@@QAEPAUHWND__@@XZ 004067e0 f   CharWndCode.obj
 0001:000057f0       ?CCWC_OnMouseMove@CCharWndCode@@IAEHIABUtagPOINT@@@Z 004067f0 f   CharWndCode.obj
 0001:00005830       ?OnEXMouseMove@CCharWndCode@@AAEHABVJPoint@@_N1@Z 00406830 f   CharWndCode.obj
 0001:00005f20       ?OnEXMouseMove_DragUpdate@CCharWndCode@@AAEXVJPoint@@_N@Z 00406f20 f   CharWndCode.obj
 0001:00005fd0       ?SelectModeCol@CCharWndCode@@IAE?AW4SPSelectModeColID@@XZ 00406fd0 f   CharWndCode.obj
 0001:00006110       ?SelectModeProc@CCharWndCode@@IAEXABVJPoint@@@Z 00407110 f   CharWndCode.obj
 0001:00006430       ?SendGestureEvent@CCharWndCode@@AAEHPAGABUtagPOINT@@0H@Z 00407430 f   CharWndCode.obj
 0001:000065c0       ??1SPShioriEvent@@UAE@XZ   004075c0 f i CharWndCode.obj
 0001:000065c0       ??1SPModuleEvent@@UAE@XZ   004075c0 f i CharWndCode.obj
 0001:000065c0       ??1SPPluginEvent@@UAE@XZ   004075c0 f i CharWndCode.obj
 0001:000065d0       ??_GSPModuleEvent@@UAEPAXI@Z 004075d0 f i CharWndCode.obj
 0001:000065d0       ??_ESPModuleEvent@@UAEPAXI@Z 004075d0 f i CharWndCode.obj
 0001:00006600       ??_GSPShioriEvent@@UAEPAXI@Z 00407600 f i CharWndCode.obj
 0001:00006600       ??_ESPShioriEvent@@UAEPAXI@Z 00407600 f i CharWndCode.obj
 0001:00006630       ?CCWC_OnMouseDoubleClick@CCharWndCode@@IAEHJJ@Z 00407630 f   CharWndCode.obj
 0001:000066c0       ?CCWC_PreTranslateMessage@CCharWndCode@@IAEHAAUtagMSG@@@Z 004076c0 f   CharWndCode.obj
 0001:000067a0       ?CCWC_WindowProc@CCharWndCode@@IAEHAAI0AAJ1@Z 004077a0 f   CharWndCode.obj
 0001:00006ac0       ?OnCWPaint@CCharWndCode@@IAEHIJAAJ@Z 00407ac0 f   CharWndCode.obj
 0001:00006b00       ?OnCWPrintClient@CCharWndCode@@IAEHIJAAJ@Z 00407b00 f   CharWndCode.obj
 0001:00006b30       ?OnCWEraseBkgnd@CCharWndCode@@IAEHIJAAJ@Z 00407b30 f   CharWndCode.obj
 0001:00006b50       ?OnCWMouseWheel@CCharWndCode@@IAEHIJAAJ@Z 00407b50 f   CharWndCode.obj
 0001:00006ba0       ?OnEXMouseWheel@CCharWndCode@@AAEHABVJPoint@@H_N@Z 00407ba0 f   CharWndCode.obj
 0001:00006c80       ?OnCWHScroll@CCharWndCode@@IAEHIJAAJ@Z 00407c80 f   CharWndCode.obj
 0001:00006d30       ?OnCWVScroll@CCharWndCode@@IAEHIJAAJ@Z 00407d30 f   CharWndCode.obj
 0001:00006de0       ?OnCWWindowPosChanged@CCharWndCode@@IAEHIJAAJ@Z 00407de0 f   CharWndCode.obj
 0001:00006e80       ?SetForeground@CCharWndCode@@QAEXXZ 00407e80 f   CharWndCode.obj
 0001:00006ea0       ?ExecDisplayHandover@CCharWndCode@@QAEXXZ 00407ea0 f   CharWndCode.obj
 0001:00007130       ?Clear@SPModuleEvent@@QAEXXZ 00408130 f i CharWndCode.obj
 0001:00007150       ?OnCWMXButtonDown@CCharWndCode@@IAEHIJAAJ@Z 00408150 f   CharWndCode.obj
 0001:00007230       ?OnCWMXButtonUp@CCharWndCode@@IAEHIJAAJ@Z 00408230 f   CharWndCode.obj
 0001:00007370       ?OnCWMXButtonDoubleClick@CCharWndCode@@IAEHIJAAJ@Z 00408370 f   CharWndCode.obj
 0001:00007400       ?OnCWMXButtonMultipleClick@CCharWndCode@@IAEHIJAAJ@Z 00408400 f   CharWndCode.obj
 0001:000074c0       ?OnCWSetCursor@CCharWndCode@@IAEHIJAAJ@Z 004084c0 f   CharWndCode.obj
 0001:00007640       ?OnCWLButtonDown@CCharWndCode@@IAEHIJAAJ@Z 00408640 f   CharWndCode.obj
 0001:00007680       ?OnEXLButtonDown@CCharWndCode@@AAEHABVJPoint@@_N@Z 00408680 f   CharWndCode.obj
 0001:00007820       ?OnCWLButtonUp@CCharWndCode@@IAEHIJAAJ@Z 00408820 f   CharWndCode.obj
 0001:00007860       ?OnEXLButtonUp@CCharWndCode@@AAEHABVJPoint@@_N@Z 00408860 f   CharWndCode.obj
 0001:00007a50       ?OnCWLButtonMultipleClick@CCharWndCode@@IAEHIJAAJ@Z 00408a50 f   CharWndCode.obj
 0001:00007ae0       ?OnCWRButtonDown@CCharWndCode@@IAEHIJAAJ@Z 00408ae0 f   CharWndCode.obj
 0001:00007b20       ?OnEXRButtonDown@CCharWndCode@@AAEHABVJPoint@@_N@Z 00408b20 f   CharWndCode.obj
 0001:00007c20       ?OnCWRButtonDoubleClick@CCharWndCode@@IAEHIJAAJ@Z 00408c20 f   CharWndCode.obj
 0001:00007c90       ?OnCWRButtonMultipleClick@CCharWndCode@@IAEHIJAAJ@Z 00408c90 f   CharWndCode.obj
 0001:00007d30       ?DragStartNoMouseDown@CCharWndCode@@QAEXXZ 00408d30 f   CharWndCode.obj
 0001:00007d60       ?InitDragValue@CCharWndCode@@AAEX_N@Z 00408d60 f   CharWndCode.obj
 0001:00007f60       ?OnCWRButtonUp@CCharWndCode@@IAEHIJAAJ@Z 00408f60 f   CharWndCode.obj
 0001:00007fa0       ?OnEXRButtonUp@CCharWndCode@@AAEHABVJPoint@@_N@Z 00408fa0 f   CharWndCode.obj
 0001:00008090       ?OnCWSysCommand@CCharWndCode@@IAEHIJAAJ@Z 00409090 f   CharWndCode.obj
 0001:00008120       ?OnCWSystemMenu@CCharWndCode@@IAEHIJAAJ@Z 00409120 f   CharWndCode.obj
 0001:00008170       ?OnCWContextMenu@CCharWndCode@@IAEHIJAAJ@Z 00409170 f   CharWndCode.obj
 0001:00008210       ?OnCWContextMenuSSP@CCharWndCode@@IAEHPAUtagPOINT@@_N@Z 00409210 f   CharWndCode.obj
 0001:00008400       ?ShowContextMenu@CCharWndCode@@IAEXIPAUtagPOINT@@@Z 00409400 f   CharWndCode.obj
 0001:000084a0       ?OnCWKeyDown@CCharWndCode@@IAEHIJAAJ@Z 004094a0 f   CharWndCode.obj
 0001:000084f0       ?OnCWSysKeyDown@CCharWndCode@@IAEHIJAAJ@Z 004094f0 f   CharWndCode.obj
 0001:00008520       ?OnCWKeyUp@CCharWndCode@@IAEHIJAAJ@Z 00409520 f   CharWndCode.obj
 0001:00008590       ?OnCWSysKeyUp@CCharWndCode@@IAEHIJAAJ@Z 00409590 f   CharWndCode.obj
 0001:000085c0       ?EX_OnKeyDown@CCharWndCode@@QAE_NIJPAUHWND__@@@Z 004095c0 f   CharWndCode.obj
 0001:00008690       ?ProcessKeyDown@CCharWndCode@@IAE_NIJ@Z 00409690 f   CharWndCode.obj
 0001:000088c0       ?OnCWDrawItem@CCharWndCode@@IAEHIJAAJ@Z 004098c0 f   CharWndCode.obj
 0001:00008920       ?OnCWMeasureItem@CCharWndCode@@IAEHIJAAJ@Z 00409920 f   CharWndCode.obj
 0001:00008950       ?OnCWGetMinMaxInfo@CCharWndCode@@IAEHIJAAJ@Z 00409950 f   CharWndCode.obj
 0001:000089a0       ?OnCWMenuSelect@CCharWndCode@@IAEHIJAAJ@Z 004099a0 f   CharWndCode.obj
 0001:00008b10       ?OnCWTimer@CCharWndCode@@IAEHIJAAJ@Z 00409b10 f   CharWndCode.obj
 0001:00008d60       ?OnCWMouseLeave@CCharWndCode@@IAEHIJAAJ@Z 00409d60 f   CharWndCode.obj
 0001:00008f50       ?OnCWNotifyFormat@CCharWndCode@@IAEHIJAAJ@Z 00409f50 f   CharWndCode.obj
 0001:00008f70       ?OnCWNotify@CCharWndCode@@IAEHIJAAJ@Z 00409f70 f   CharWndCode.obj
 0001:00008fb0       ?OnCWNCHitTest@CCharWndCode@@IAEHIJAAJ@Z 00409fb0 f   CharWndCode.obj
 0001:00008fd0       ?OnCWEnterSizeMove@CCharWndCode@@IAEHIJAAJ@Z 00409fd0 f   CharWndCode.obj
 0001:00009020       ?OnCWTouch@CCharWndCode@@IAEHIJAAJ@Z 0040a020 f   CharWndCode.obj
 0001:00009210       ?OnEXTouchDown@CCharWndCode@@AAEXKPBUtagSP_TOUCHINPUT@@KK@Z 0040a210 f   CharWndCode.obj
 0001:00009300       ?OnEXTouchUp@CCharWndCode@@AAEXKPBUtagSP_TOUCHINPUT@@KK@Z 0040a300 f   CharWndCode.obj
 0001:000093d0       ?OnEXTouchMove@CCharWndCode@@AAEXPBUtagSP_TOUCHINPUT@@KK@Z 0040a3d0 f   CharWndCode.obj
 0001:00009420       ?OnEXTouchTimer@CCharWndCode@@AAEXXZ 0040a420 f   CharWndCode.obj
 0001:00009430       ?ProcessThumbnail@CCharWndCode@@IAEXI@Z 0040a430 f   CharWndCode.obj
 0001:000098a0       ??0JWString@@QAE@XZ        0040a8a0 f i CharWndCode.obj
 0001:00009960       ??1JUnlock@@QAE@XZ         0040a960 f i CharWndCode.obj
 0001:00009960       ??1JLock@@QAE@XZ           0040a960 f i CharWndCode.obj
 0001:00009970       ?ModifyMenuWithTable@CCharWndCode@@IAEXPAVSPMenuItem@@PBUtagSPMENUMODIFYTABLE@@I@Z 0040a970 f   CharWndCode.obj
 0001:00009d10       ?UpdateChildWndPos@CCharWndCode@@QAEXXZ 0040ad10 f   CharWndCode.obj
 0001:00009d50       ?UpdateMessageScale@CCharWndCode@@QAEXXZ 0040ad50 f   CharWndCode.obj
 0001:00009d90       ?UpdateWndRecommendation@CCharWndCode@@UAEXXZ 0040ad90 f   CharWndCode.obj
 0001:00009f20       ?ModifyPopupMenu@CCharWndCode@@MAEXXZ 0040af20 f   CharWndCode.obj
 0001:0000a180       ?ModifyPopupMenuEnableStateChar@CCharWndCode@@AAEX_N@Z 0040b180 f   CharWndCode.obj
 0001:0000a270       ?CCWC_OnCommand@CCharWndCode@@IAEHIJ@Z 0040b270 f   CharWndCode.obj
 0001:0000a610       ?CCWC_OnSSPSysMsg@CCharWndCode@@IAEHIJ@Z 0040b610 f   CharWndCode.obj
 0001:0000aa60       ?Clear@SPShioriEvent@@QAEXXZ 0040ba60 f i CharWndCode.obj
 0001:0000aaa0       ?GetDefaultWndPosX@CCharWndCode@@MAEHAAJAAVJRect@@1AAVJPoint@@@Z 0040baa0 f   CharWndCode.obj
 0001:0000ab80       ?GetDefaultWndPosXImpl@CCharWndCode@@AAEHPBGAAJAAVJRect@@2AAVJPoint@@@Z 0040bb80 f   CharWndCode.obj
 0001:0000ace0       ?GetDefaultWndPosY@CCharWndCode@@MAEHAAJAAVJRect@@1AAVJPoint@@@Z 0040bce0 f   CharWndCode.obj
 0001:0000ad80       ?GetDefaultWndPosYImpl@CCharWndCode@@AAEHPBGAAJAAVJRect@@2AAVJPoint@@@Z 0040bd80 f   CharWndCode.obj
 0001:0000aee0       ?UpdateWndSizeInitial@CCharWndCode@@QAEXXZ 0040bee0 f   CharWndCode.obj
 0001:0000af00       ?UpdateWndSize@CCharWndCode@@QAEXIJJ@Z 0040bf00 f   CharWndCode.obj
 0001:0000b490       ?CalcMaxMenuItemCount@CCharWndCode@@QAEKK@Z 0040c490 f   CharWndCode.obj
 0001:0000b4e0       ?UpdateBindMenu@CCharWndCode@@QAEXXZ 0040c4e0 f   CharWndCode.obj
 0001:0000bd90       ?UpdateBindMenuCheck@CCharWndCode@@QAEXXZ 0040cd90 f   CharWndCode.obj
 0001:0000bf30       ?MouseDragStartEnd@CCharWndCode@@AAEX_N0@Z 0040cf30 f   CharWndCode.obj
 0001:0000c110       ?MouseDragFadeExec@CCharWndCode@@AAEX_N@Z 0040d110 f   CharWndCode.obj
 0001:0000c180       ?ToolTipDispInfo@CCharWndCode@@AAE_NAAUtagNMTTDISPINFOW@@@Z 0040d180 f   CharWndCode.obj
 0001:0000c690       ?ToolTipActivate@CCharWndCode@@AAEX_N@Z 0040d690 f   CharWndCode.obj
 0001:0000c6c0       ?ShowSystemPopup@CCharWndCode@@AAEX_N@Z 0040d6c0 f   CharWndCode.obj
 0001:0000c7d0       ?OnCWVirtualDesktopNotify@CCharWndCode@@IAEHIJAAJ@Z 0040d7d0 f   CharWndCode.obj
 0001:0000c7f0       ?OnStatusChanged@SPLocationEvent@@UAGJABU_GUID@@W4LOCATION_REPORT_STATUS@@@Z 0040d7f0 f   CharWndCode.obj
 0001:0000c7f0       ?OnCWVirtualDesktopNotifyOverride@CCharWndCode@@MAEHIJAAJ@Z 0040d7f0 f   CharWndCode.obj
 0001:0000c7f0       ?OnLocationChanged@SPLocationEvent@@UAGJABU_GUID@@PAUILocationReport@@@Z 0040d7f0 f   CharWndCode.obj
 0001:0000c800       ?Add@CCharWndCodeManager@@QAEXPAVCCharWndCode@@@Z 0040d800 f   CharWndCode.obj
 0001:0000c8e0       ?Delete@CCharWndCodeManager@@QAEXPAVCCharWndCode@@@Z 0040d8e0 f   CharWndCode.obj
 0001:0000c9e0       ?Find@CCharWndCodeManager@@AAEJPAVCCharWndCode@@@Z 0040d9e0 f   CharWndCode.obj
 0001:0000ca10       ?StartDrag@CCharWndCodeManager@@QAEXXZ 0040da10 f   CharWndCode.obj
 0001:0000ca20       ?EndDrag@CCharWndCodeManager@@QAEXXZ 0040da20 f   CharWndCode.obj
 0001:0000ca50       ?Check@CCharWndCodeManager@@QAEXXZ 0040da50 f   CharWndCode.obj
 0001:0000d370       ?Last@?$JArray@G@@QAEAAGXZ 0040e370 f i CharWndCode.obj
 0001:0000d390       ?Size@?$JArray@G@@QBEKXZ   0040e390 f i CharWndCode.obj
 0001:0000d3b0       ?SetNum@?$JArray@G@@QAEXK@Z 0040e3b0 f i CharWndCode.obj
 0001:0000d400       ?SetNumNoPurge@?$JArray@G@@QAEXK_N@Z 0040e400 f i CharWndCode.obj
 0001:0000d460       ?Add@?$JArray@PAX@@QAEXPBQAXJ@Z 0040e460 f i CharWndCode.obj
 0001:0000d5b0       ?Realloc@?$JArray@PAX@@QAE_NK@Z 0040e5b0 f i CharWndCode.obj
 0001:0000d5b0       ?Realloc@?$JArray@H@@QAE_NK@Z 0040e5b0 f i CharWndCode.obj
 0001:0000d5b0       ?Realloc@?$JArray@K@@QAE_NK@Z 0040e5b0 f i CharWndCode.obj
 0001:0000d5b0       ?Realloc@?$JArray@J@@QAE_NK@Z 0040e5b0 f i CharWndCode.obj
 0001:0000d690       ?Realloc@?$JArray@VCCharWndCodeManagerData@@@@QAE_NK@Z 0040e690 f i CharWndCode.obj
 0001:0000d790       ?Add@?$JArray@PAX@@QAEKK@Z 0040e790 f i CharWndCode.obj
 0001:0000d8d0       ??0CDeveloperSettingDlg@@QAE@PAVCWnd@@@Z 0040e8d0 f   DeveloperSetting.obj
 0001:0000d9c0       ??_ECDeveloperSettingDlg@@UAEPAXI@Z 0040e9c0 f i DeveloperSetting.obj
 0001:0000d9c0       ??_GCDeveloperSettingDlg@@UAEPAXI@Z 0040e9c0 f i DeveloperSetting.obj
 0001:0000d9f0       ??1CDeveloperSettingDlg@@UAE@XZ 0040e9f0 f i DeveloperSetting.obj
 0001:0000da50       ?DoDataExchange@CDeveloperSettingDlg@@MAEXPAVCDataExchange@@@Z 0040ea50 f   DeveloperSetting.obj
 0001:0000da70       ?GetMessageMap@CDeveloperSettingDlg@@MBEPBUAFX_MSGMAP@@XZ 0040ea70 f   DeveloperSetting.obj
 0001:0000da80       ?ModifyTemplate@CDeveloperSettingDlg@@UAEXPAVSPDlgTemplate@@@Z 0040ea80 f   DeveloperSetting.obj
 0001:0000daa0       ?OnInitDialog@CDeveloperSettingDlg@@MAEHXZ 0040eaa0 f   DeveloperSetting.obj
 0001:0000e020       ?OnDestroy@CDeveloperSettingDlg@@IAEXXZ 0040f020 f   DeveloperSetting.obj
 0001:0000e220       ?OnEnableChangeFmoName@CDeveloperSettingDlg@@IAEXXZ 0040f220 f   DeveloperSetting.obj
 0001:0000e2d0       ?OnChangeFmoName@CDeveloperSettingDlg@@IAEXXZ 0040f2d0 f   DeveloperSetting.obj
 0001:0000e3d0       ?OnUpdateDefChange@CDeveloperSettingDlg@@IAEXXZ 0040f3d0 f   DeveloperSetting.obj
 0001:0000e490       ?OnUpdateUTF8@CDeveloperSettingDlg@@IAEXXZ 0040f490 f   DeveloperSetting.obj
 0001:0000e4c0       ?OnUpdateCache@CDeveloperSettingDlg@@IAEXXZ 0040f4c0 f   DeveloperSetting.obj
 0001:0000e4f0       ?OnSetDirDrop@CDeveloperSettingDlg@@IAEXXZ 0040f4f0 f   DeveloperSetting.obj
 0001:0000e520       ?OnNarpathRadio@CDeveloperSettingDlg@@IAEXXZ 0040f520 f   DeveloperSetting.obj
 0001:0000e580       ?OnNarPathUserAsk@CDeveloperSettingDlg@@IAEXXZ 0040f580 f   DeveloperSetting.obj
 0001:0000e700       ??1SPFolderDialog@@QAE@XZ  0040f700 f i DeveloperSetting.obj
 0001:0000e760       ?OnUpdateBackupfiles@CDeveloperSettingDlg@@IAEXXZ 0040f760 f   DeveloperSetting.obj
 0001:0000e790       ?OnUpdateIgnoreReadonly@CDeveloperSettingDlg@@IAEXXZ 0040f790 f   DeveloperSetting.obj
 0001:0000e7c0       ?OnHideSurfaceError@CDeveloperSettingDlg@@IAEXXZ 0040f7c0 f   DeveloperSetting.obj
 0001:0000e800       ?OnSakuraMutex@CDeveloperSettingDlg@@IAEXXZ 0040f800 f   DeveloperSetting.obj
 0001:0000e830       ?OnDisableVanish@CDeveloperSettingDlg@@IAEXXZ 0040f830 f   DeveloperSetting.obj
 0001:0000e870       ?OnDisableLock@CDeveloperSettingDlg@@IAEXXZ 0040f870 f   DeveloperSetting.obj
 0001:0000e8b0       ?OnTortoiseSVN@CDeveloperSettingDlg@@IAEXXZ 0040f8b0 f   DeveloperSetting.obj
 0001:0000e8e0       ?OnSelchangeNotifyError@CDeveloperSettingDlg@@IAEXXZ 0040f8e0 f   DeveloperSetting.obj
 0001:0000e930       ?OnExhandler@CDeveloperSettingDlg@@IAEXXZ 0040f930 f   DeveloperSetting.obj
 0001:0000e970       ?OnEnableTestUpdate@CDeveloperSettingDlg@@IAEXXZ 0040f970 f   DeveloperSetting.obj
 0001:0000e9e0       ??0CDevPalette@@QAE@PAVCWnd@@@Z 0040f9e0 f   DevPalette.obj
 0001:0000ea10       ??_ECDevPalette@@UAEPAXI@Z 0040fa10 f i DevPalette.obj
 0001:0000ea10       ??_GCDevPalette@@UAEPAXI@Z 0040fa10 f i DevPalette.obj
 0001:0000ea40       ??1CModuleCharset@@UAE@XZ  0040fa40 f i DevPalette.obj
 0001:0000ea40       ??1CSaveShareDlg@@UAE@XZ   0040fa40 f i DevPalette.obj
 0001:0000ea40       ??1CDevPalette@@UAE@XZ     0040fa40 f i DevPalette.obj
 0001:0000ea40       ??1CNoGhostDlg@@UAE@XZ     0040fa40 f i DevPalette.obj
 0001:0000ea40       ??1CDialogCustom@@UAE@XZ   0040fa40 f i DevPalette.obj
 0001:0000ea40       ??1CMessengerUserDlg@@UAE@XZ 0040fa40 f i DevPalette.obj
 0001:0000ea40       ??1CMessengerSettingDlg@@UAE@XZ 0040fa40 f i DevPalette.obj
 0001:0000ea40       ??1CExtAppDlg@@UAE@XZ      0040fa40 f i DevPalette.obj
 0001:0000ea50       ?DoDataExchange@CDevSerikoDump@@MAEXPAVCDataExchange@@@Z 0040fa50 f   DevPalette.obj
 0001:0000ea50       ?DoDataExchange@CSendShioriRequest@@MAEXPAVCDataExchange@@@Z 0040fa50 f   DevPalette.obj
 0001:0000ea50       ?RelayEvent@CToolTipCustom@@QAEXAAUtagMSG@@@Z 0040fa50 f   DevPalette.obj
 0001:0000ea50       ?DoDataExchange@CGhostTermsDlg@@MAEXPAVCDataExchange@@@Z 0040fa50 f   DevPalette.obj
 0001:0000ea50       ?DoDataExchange@CMessengerUserDlg@@MAEXPAVCDataExchange@@@Z 0040fa50 f   DevPalette.obj
 0001:0000ea50       ?DoDataExchange@CGhostATSoundWnd@@MAEXPAVCDataExchange@@@Z 0040fa50 f   DevPalette.obj
 0001:0000ea50       ?DoDataExchange@CModuleCharset@@MAEXPAVCDataExchange@@@Z 0040fa50 f   DevPalette.obj
 0001:0000ea50       ?DoDataExchange@CAboutDlg@@MAEXPAVCDataExchange@@@Z 0040fa50 f   DevPalette.obj
 0001:0000ea50       ?AfterTrackPopup@CSimpleMenu@@QBEXPAUHWND__@@@Z 0040fa50 f   DevPalette.obj
 0001:0000ea50       ?DoDataExchange@CNoGhostDlg@@MAEXPAVCDataExchange@@@Z 0040fa50 f   DevPalette.obj
 0001:0000ea50       ?DoDataExchange@CDevPalette@@MAEXPAVCDataExchange@@@Z 0040fa50 f   DevPalette.obj
 0001:0000ea50       ?DoDataExchange@CMessengerSettingDlg@@MAEXPAVCDataExchange@@@Z 0040fa50 f   DevPalette.obj
 0001:0000ea50       ?DoDataExchange@CScalingDlg@@MAEXPAVCDataExchange@@@Z 0040fa50 f   DevPalette.obj
 0001:0000ea50       ?DoDataExchange@CStdInput@@MAEXPAVCDataExchange@@@Z 0040fa50 f   DevPalette.obj
 0001:0000ea50       ?DoDataExchange@CSaveShareDlg@@MAEXPAVCDataExchange@@@Z 0040fa50 f   DevPalette.obj
 0001:0000ea50       ?ExitInstance@SPWinUpdate@@MAEXH@Z 0040fa50 f   DevPalette.obj
 0001:0000ea50       ?DoDataExchange@CFolderDlg@@MAEXPAVCDataExchange@@@Z 0040fa50 f   DevPalette.obj
 0001:0000ea50       ?DoDataExchange@CExtAppDlg@@MAEXPAVCDataExchange@@@Z 0040fa50 f   DevPalette.obj
 0001:0000ea50       ?DoDataExchange@CPlaySSFDlg@@MAEXPAVCDataExchange@@@Z 0040fa50 f   DevPalette.obj
 0001:0000ea60       ?GetMessageMap@CDevPalette@@MBEPBUAFX_MSGMAP@@XZ 0040fa60 f   DevPalette.obj
 0001:0000ea70       ?OnClose@CDevPalette@@IAEXXZ 0040fa70 f   DevPalette.obj
 0001:0000ea70       ?OnCancel@CDevPalette@@MAEXXZ 0040fa70 f   DevPalette.obj
 0001:0000ea90       ?CreateMe@CDevPalette@@QAEXPAVCWnd@@PAVCSakuraWnd@@@Z 0040fa90 f   DevPalette.obj
 0001:0000eab0       ?ModifyTemplate@CDevPalette@@UAEXPAVSPDlgTemplate@@@Z 0040fab0 f   DevPalette.obj
 0001:0000ead0       ?UpdateCheck@CDevPalette@@AAEXXZ 0040fad0 f   DevPalette.obj
 0001:0000ebf0       ?OnInitDialog@CDevPalette@@MAEHXZ 0040fbf0 f   DevPalette.obj
 0001:0000ed70       ?OnDestroy@CDevPalette@@IAEXXZ 0040fd70 f   DevPalette.obj
 0001:0000edb0       ?OnOpenScript@CDevPalette@@IAEXXZ 0040fdb0 f   DevPalette.obj
 0001:0000edd0       ?OnOpenSurfacetest@CDevPalette@@IAEXXZ 0040fdd0 f   DevPalette.obj
 0001:0000edf0       ?OnOpenTimeMachine@CDevPalette@@IAEXXZ 0040fdf0 f   DevPalette.obj
 0001:0000ee00       ?OnOpenSeriko@CDevPalette@@IAEXXZ 0040fe00 f   DevPalette.obj
 0001:0000ee10       ?OnOpenErrorlog@CDevPalette@@IAEXXZ 0040fe10 f   DevPalette.obj
 0001:0000ee30       ?OnShowHitRect@CDevPalette@@IAEXXZ 0040fe30 f   DevPalette.obj
 0001:0000eea0       ?OnBalloonTest@CDevPalette@@IAEXXZ 0040fea0 f   DevPalette.obj
 0001:0000ef00       ?OnAdjustSerikoWait@CDevPalette@@IAEXXZ 0040ff00 f   DevPalette.obj
 0001:0000f090       ??1CStdInput@@UAE@XZ       00410090 f i DevPalette.obj
 0001:0000f100       ?OnShioriLog@CDevPalette@@IAEXXZ 00410100 f   DevPalette.obj
 0001:0000f160       ?OnShioriLogNotify@CDevPalette@@IAEXXZ 00410160 f   DevPalette.obj
 0001:0000f1c0       ?OnShioriDebugNotify@CDevPalette@@IAEXXZ 004101c0 f   DevPalette.obj
 0001:0000f200       ?UpdateEnabled@CDevPalette@@AAEXXZ 00410200 f   DevPalette.obj
 0001:0000f220       ?OnExecReload@CDevPalette@@IAEXXZ 00410220 f   DevPalette.obj
 0001:0000f460       ?OnDummyUpdate@CDevPalette@@IAEXXZ 00410460 f   DevPalette.obj
 0001:0000f4a0       ?OnChangeSender@CDevPalette@@IAEXXZ 004104a0 f   DevPalette.obj
 0001:0000f640       ?UpdateTestProc@CDevPaletteUpdateTestInfo@@QAEXPCH@Z 00410640 f   DevPalette.obj
 0001:00010130       ??0SPStaticStringArrayW@@QAE@XZ 00411130 f i DevPalette.obj
 0001:00010180       ??1SPStaticStringArrayW@@QAE@XZ 00411180 f i DevPalette.obj
 0001:00010210       ??0SPUpdateListenerBase@@QAE@PAVSPGhost@@PBG11_N@Z 00411210 f i DevPalette.obj
 0001:000102d0       ??1SPCmdListener@@UAE@XZ   004112d0 f i DevPalette.obj
 0001:00010340       ??_ESPCmdListener@@UAEPAXI@Z 00411340 f i DevPalette.obj
 0001:00010340       ??_GSPCmdListener@@UAEPAXI@Z 00411340 f i DevPalette.obj
 0001:00010370       ??1SPUpdateListenerBase@@UAE@XZ 00411370 f i DevPalette.obj
 0001:00010410       ??_ESPUpdateListenerBase@@UAEPAXI@Z 00411410 f i DevPalette.obj
 0001:00010410       ??_GSPUpdateListenerBase@@UAEPAXI@Z 00411410 f i DevPalette.obj
 0001:00010440       ??_GSPUpdateListener@@UAEPAXI@Z 00411440 f i DevPalette.obj
 0001:00010440       ??_ESPUpdateListener@@UAEPAXI@Z 00411440 f i DevPalette.obj
 0001:00010470       ??1SPUpdateListener@@UAE@XZ 00411470 f i DevPalette.obj
 0001:00010520       ?OnExecOpen@CDevPalette@@IAEXXZ 00411520 f   DevPalette.obj
 0001:00011020       ??0JWString@@QAE@PBG@Z     00412020 f i DevPalette.obj
 0001:00011070       ??1SPCmdNotifier@@UAE@XZ   00412070 f i DevPalette.obj
 0001:00011110       ??_ESPCmdNotifier@@UAEPAXI@Z 00412110 f i DevPalette.obj
 0001:00011110       ??_GSPCmdNotifier@@UAEPAXI@Z 00412110 f i DevPalette.obj
 0001:00011140       ??1SPDeleteTxt@@QAE@XZ     00412140 f i DevPalette.obj
 0001:000112d0       ??1?$CRegexpT@G@@QAE@XZ    004122d0 f i DevPalette.obj
 0001:00011430       ?SPCNotify@CDevPaletteUpdateTestInfo@@UAE_NKPAPAXK@Z 00412430 f i DevPalette.obj
 0001:00011460       ??_ECDevPaletteUpdateTestInfo@@UAEPAXI@Z 00412460 f i DevPalette.obj
 0001:00011460       ??_GCDevPaletteUpdateTestInfo@@UAEPAXI@Z 00412460 f i DevPalette.obj
 0001:00011490       ??1CDevPaletteUpdateTestInfo@@UAE@XZ 00412490 f i DevPalette.obj
 0001:00011550       ?OnGroupFlagChange@CDevPalette@@IAEXXZ 00412550 f   DevPalette.obj
 0001:00011570       ?OnSuppressExit@CDevPalette@@IAEXXZ 00412570 f   DevPalette.obj
 0001:000115b0       ?OnExecOpenSurfaceDump@CDevPalette@@AAEXXZ 004125b0 f   DevPalette.obj
 0001:00011810       ??1SPGhostDumpSurface@@UAE@XZ 00412810 f i DevPalette.obj
 0001:00011890       ??_ESPGhostDumpSurface@@UAEPAXI@Z 00412890 f i DevPalette.obj
 0001:00011890       ??_GSPGhostDumpSurface@@UAEPAXI@Z 00412890 f i DevPalette.obj
 0001:000118c0       ??1CDevSerikoDump@@UAE@XZ  004128c0 f i DevPalette.obj
 0001:00011930       ?WindowProc@CDevPalette@@MAEJIIJ@Z 00412930 f   DevPalette.obj
 0001:00011970       ??0?$JPtrArray@PAVSPCmdNotifier@@@@QAE@J@Z 00412970 f i DevPalette.obj
 0001:000119d0       ??1?$CBufferT@PAVElxInterface@@@@UAE@XZ 004129d0 f i DevPalette.obj
 0001:00011a00       ??1?$CBufferT@PAV?$CListElxT@$0A@@@@@UAE@XZ 00412a00 f i DevPalette.obj
 0001:00011a30       ??1?$CBufferT@PAV?$CDelegateElxT@G@@@@UAE@XZ 00412a30 f i DevPalette.obj
 0001:00011a60       ??1?$CBufferT@PAV?$CBackrefElxT@G@@@@UAE@XZ 00412a60 f i DevPalette.obj
 0001:00011a90       ??1?$CBufferT@PAV?$CConditionElxT@G@@@@UAE@XZ 00412a90 f i DevPalette.obj
 0001:00011ac0       ??1?$CBufferRefT@G@@UAE@XZ 00412ac0 f i DevPalette.obj
 0001:00011ad0       ??_G?$CBufferRefT@PAVElxInterface@@@@UAEPAXI@Z 00412ad0 f i DevPalette.obj
 0001:00011ad0       ??_E?$CBufferRefT@PAVElxInterface@@@@UAEPAXI@Z 00412ad0 f i DevPalette.obj
 0001:00011b00       ??_G?$CBufferT@PAVElxInterface@@@@UAEPAXI@Z 00412b00 f i DevPalette.obj
 0001:00011b00       ??_E?$CBufferT@PAVElxInterface@@@@UAEPAXI@Z 00412b00 f i DevPalette.obj
 0001:00011b30       ??_G?$CBufferRefT@PAV?$CListElxT@$0A@@@@@UAEPAXI@Z 00412b30 f i DevPalette.obj
 0001:00011b30       ??_E?$CBufferRefT@PAV?$CListElxT@$0A@@@@@UAEPAXI@Z 00412b30 f i DevPalette.obj
 0001:00011b60       ??_E?$CBufferT@PAV?$CListElxT@$0A@@@@@UAEPAXI@Z 00412b60 f i DevPalette.obj
 0001:00011b60       ??_G?$CBufferT@PAV?$CListElxT@$0A@@@@@UAEPAXI@Z 00412b60 f i DevPalette.obj
 0001:00011b90       ??_E?$CBufferRefT@PAV?$CDelegateElxT@G@@@@UAEPAXI@Z 00412b90 f i DevPalette.obj
 0001:00011b90       ??_G?$CBufferRefT@PAV?$CDelegateElxT@G@@@@UAEPAXI@Z 00412b90 f i DevPalette.obj
 0001:00011bc0       ??_G?$CBufferT@PAV?$CDelegateElxT@G@@@@UAEPAXI@Z 00412bc0 f i DevPalette.obj
 0001:00011bc0       ??_E?$CBufferT@PAV?$CDelegateElxT@G@@@@UAEPAXI@Z 00412bc0 f i DevPalette.obj
 0001:00011bf0       ??_G?$CBufferRefT@PAV?$CBackrefElxT@G@@@@UAEPAXI@Z 00412bf0 f i DevPalette.obj
 0001:00011bf0       ??_E?$CBufferRefT@PAV?$CBackrefElxT@G@@@@UAEPAXI@Z 00412bf0 f i DevPalette.obj
 0001:00011c20       ??_E?$CBufferT@PAV?$CBackrefElxT@G@@@@UAEPAXI@Z 00412c20 f i DevPalette.obj
 0001:00011c20       ??_G?$CBufferT@PAV?$CBackrefElxT@G@@@@UAEPAXI@Z 00412c20 f i DevPalette.obj
 0001:00011c50       ??_E?$CBufferRefT@PAV?$CConditionElxT@G@@@@UAEPAXI@Z 00412c50 f i DevPalette.obj
 0001:00011c50       ??_G?$CBufferRefT@PAV?$CConditionElxT@G@@@@UAEPAXI@Z 00412c50 f i DevPalette.obj
 0001:00011c80       ??_E?$CBufferT@PAV?$CConditionElxT@G@@@@UAEPAXI@Z 00412c80 f i DevPalette.obj
 0001:00011c80       ??_G?$CBufferT@PAV?$CConditionElxT@G@@@@UAEPAXI@Z 00412c80 f i DevPalette.obj
 0001:00011cb0       ??_E?$CBufferRefT@G@@UAEPAXI@Z 00412cb0 f i DevPalette.obj
 0001:00011cb0       ??_G?$CBufferRefT@G@@UAEPAXI@Z 00412cb0 f i DevPalette.obj
 0001:00011ce0       ??0CDevSerikoDump@@QAE@PAVCWnd@@@Z 00412ce0 f   DevSerikoDump.obj
 0001:00011e20       ??_ECDevSerikoDump@@UAEPAXI@Z 00412e20 f i DevSerikoDump.obj
 0001:00011e20       ??_GCDevSerikoDump@@UAEPAXI@Z 00412e20 f i DevSerikoDump.obj
 0001:00011e50       ?GetMessageMap@CDevSerikoDump@@MBEPBUAFX_MSGMAP@@XZ 00412e50 f   DevSerikoDump.obj
 0001:00011e60       ?OnInitDialog@CDevSerikoDump@@MAEHXZ 00412e60 f   DevSerikoDump.obj
 0001:00011fa0       ?OnOK@CDevSerikoDump@@MAEXXZ 00412fa0 f   DevSerikoDump.obj
 0001:000120b0       ?OnDevSereikoDumpGetCurrent@CDevSerikoDump@@IAEXXZ 004130b0 f   DevSerikoDump.obj
 0001:00012100       ?OnDevSereikoDumpDirSelect@CDevSerikoDump@@IAEXXZ 00413100 f   DevSerikoDump.obj
 0001:00012260       ??0CDevSerikoTree@@QAE@PAVCWnd@@@Z 00413260 f   DevSerikoTree.obj
 0001:00012350       ??_GCTreeCtrl@@UAEPAXI@Z   00413350 f i DevSerikoTree.obj
 0001:00012350       ??_ECTreeCtrl@@UAEPAXI@Z   00413350 f i DevSerikoTree.obj
 0001:00012380       ??_GCDevSerikoTree@@UAEPAXI@Z 00413380 f i DevSerikoTree.obj
 0001:00012380       ??_ECDevSerikoTree@@UAEPAXI@Z 00413380 f i DevSerikoTree.obj
 0001:000123b0       ??1CDevSerikoTree@@UAE@XZ  004133b0 f i DevSerikoTree.obj
 0001:00012460       ?DoDataExchange@CDevSerikoTree@@MAEXPAVCDataExchange@@@Z 00413460 f   DevSerikoTree.obj
 0001:00012480       ?GetMessageMap@CDevSerikoTree@@MBEPBUAFX_MSGMAP@@XZ 00413480 f   DevSerikoTree.obj
 0001:00012490       ?OnInitDialog@CDevSerikoTree@@MAEHXZ 00413490 f   DevSerikoTree.obj
 0001:00012690       ?OnSize@CDevSerikoTree@@IAEXIHH@Z 00413690 f   DevSerikoTree.obj
 0001:000126c0       ?OnClose@CDevSerikoTree@@IAEXXZ 004136c0 f   DevSerikoTree.obj
 0001:000126c0       ?OnCancel@CDevSerikoTree@@MAEXXZ 004136c0 f   DevSerikoTree.obj
 0001:000126f0       ?SetGhost@CDevSerikoTree@@QAEXPAVCSakuraWnd@@@Z 004136f0 f   DevSerikoTree.obj
 0001:00012700       ?OnDestroy@CDevSerikoTree@@IAEXXZ 00413700 f   DevSerikoTree.obj
 0001:00012740       ?OnGetMinMaxInfo@CDevSerikoTree@@IAEXPAUtagMINMAXINFO@@@Z 00413740 f   DevSerikoTree.obj
 0001:000127e0       ?InitTree@CDevSerikoTree@@AAEXXZ 004137e0 f   DevSerikoTree.obj
 0001:00012810       ?AddToTree@CDevSerikoTree@@AAEX_NKPBGH@Z 00413810 f   DevSerikoTree.obj
 0001:00012910       ?ExpandChild@CDevSerikoTree@@AAEXPAU_TREEITEM@@_N@Z 00413910 f   DevSerikoTree.obj
 0001:00012950       ?ExpandChildReal@CDevSerikoTree@@AAEXPAU_TREEITEM@@_N@Z 00413950 f   DevSerikoTree.obj
 0001:00012a90       ?OnItemExpandedSerikoTree@CDevSerikoTree@@IAEXPAUtagNMHDR@@PAJ@Z 00413a90 f   DevSerikoTree.obj
 0001:00012b20       ?UpdateTreeInfo@CDevSerikoTree@@AAEX_N@Z 00413b20 f   DevSerikoTree.obj
 0001:00013ca0       ?OnDevSerikoExpand@CDevSerikoTree@@IAEXXZ 00414ca0 f   DevSerikoTree.obj
 0001:00013cb0       ?OnDevSerikoCollapse@CDevSerikoTree@@IAEXXZ 00414cb0 f   DevSerikoTree.obj
 0001:00013cc0       ?OnDevSerikoDump@CDevSerikoTree@@IAEXXZ 00414cc0 f   DevSerikoTree.obj
 0001:00013e80       ??1JStream@@UAE@XZ         00414e80 f i DevSerikoTree.obj
 0001:00013ea0       ?Open@JStream@@UAEHPAVJStreamObject@@PBDH@Z 00414ea0 f i DevSerikoTree.obj
 0001:00013ee0       ?Open@JStream@@UAEHPAVJStreamObject@@PBGH@Z 00414ee0 f i DevSerikoTree.obj
 0001:00013f20       ?Open@JStream@@UAEHPBDH@Z  00414f20 f i DevSerikoTree.obj
 0001:00013f50       ?Open@JStream@@UAEHPBGH@Z  00414f50 f i DevSerikoTree.obj
 0001:00013f80       ?AttachStream@JStream@@UAEXPAVJStreamObject@@@Z 00414f80 f i DevSerikoTree.obj
 0001:00013fb0       ?DetachStream@JStream@@UAEPAVJStreamObject@@XZ 00414fb0 f i DevSerikoTree.obj
 0001:00013fc0       ?Close@JStream@@UAEXXZ     00414fc0 f i DevSerikoTree.obj
 0001:00013fd0       ?Read@JStream@@UAEEXZ      00414fd0 f i DevSerikoTree.obj
 0001:00014000       ?Read@JStream@@UAEKPAXK@Z  00415000 f i DevSerikoTree.obj
 0001:00014040       ?Write@JStream@@UAEKE@Z    00415040 f i DevSerikoTree.obj
 0001:00014070       ?Write@JStream@@UAEKPBXK@Z 00415070 f i DevSerikoTree.obj
 0001:000140b0       ?Seek@JStream@@UAEHJH@Z    004150b0 f i DevSerikoTree.obj
 0001:000140e0       ?Length@JStream@@UAEKXZ    004150e0 f i DevSerikoTree.obj
 0001:000140f0       ?Pos@JStream@@UAEKXZ       004150f0 f i DevSerikoTree.obj
 0001:00014100       ?OnWrite@JStream@@UAEXPAEK@Z 00415100 f i DevSerikoTree.obj
 0001:00014100       ?OnRead@JStream@@UAEXPAEK@Z 00415100 f i DevSerikoTree.obj
 0001:00014110       ?Flush@JStream@@UAEXXZ     00415110 f i DevSerikoTree.obj
 0001:00014120       ??_EJStream@@UAEPAXI@Z     00415120 f i DevSerikoTree.obj
 0001:00014120       ??_GJStream@@UAEPAXI@Z     00415120 f i DevSerikoTree.obj
 0001:00014150       ?ExpandCollapseAll@CDevSerikoTree@@AAEX_N@Z 00415150 f   DevSerikoTree.obj
 0001:00014200       ?AddToArray@?$SPSparsePtrArrayDef@PAVSPAnimeBase@@@@QAEXAAV?$JArray@V?$SPSparsePtrArrayDefPair@PAVSPAnimeBase@@@@@@@Z 00415200 f i DevSerikoTree.obj
 0001:00014350       ?Copy@?$JArray@VJPoint@@@@QAE_NPBVJPoint@@K@Z 00415350 f i DevSerikoTree.obj
 0001:000144c0       ?make_heap@std@@YAXPAPAVSPCollisionProp@@0U?$JArray_PointerPred@PAVSPCollisionProp@@@@@Z 004154c0 f i DevSerikoTree.obj
 0001:000145a0       ?sort_heap@std@@YAXPAPAVSPAnimeScript@@0U?$JArray_PointerPred@PAVSPAnimeScript@@@@@Z 004155a0 f i DevSerikoTree.obj
 0001:00014670       ?make_heap@std@@YAXPAV?$SPSparsePtrArrayDefPair@PAVSPAnimeBase@@@@0@Z 00415670 f i DevSerikoTree.obj
 0001:00014760       ?sort_heap@std@@YAXPAV?$SPSparsePtrArrayDefPair@PAVSPAnimeBase@@@@0@Z 00415760 f i DevSerikoTree.obj
 0001:00014840       ?_Make_heap@std@@YAXPAPAVSPAnimeScript@@0U?$JArray_PointerPred@PAVSPAnimeScript@@@@PAH0@Z 00415840 f i DevSerikoTree.obj
 0001:00014910       ?_Pop_heap_0@std@@YAXPAPAVSPCollisionProp@@0U?$JArray_PointerPred@PAVSPCollisionProp@@@@0@Z 00415910 f i DevSerikoTree.obj
 0001:000149a0       ?CreateIndirectCustom@CDialogCustom@@QAE_NPAVCWnd@@@Z 004159a0 f   DialogCustom.obj
 0001:000149c0       ?CreateIndirectCustom@CDialogCustom@@QAE_NHPAVCWnd@@@Z 004159c0 f   DialogCustom.obj
 0001:00014b90       ?CreateIndirectCustomTemplate@CDialogCustom@@QAE_NAAVSPDlgTemplate@@PAVCWnd@@@Z 00415b90 f   DialogCustom.obj
 0001:00014c10       ?CreateIndirectCustomPtr@CDialogCustom@@QAE_NPAXPAVCWnd@@@Z 00415c10 f   DialogCustom.obj
 0001:00014c30       ?DoModalCustom@CDialogCustom@@QAEHPAVCWnd@@@Z 00415c30 f   DialogCustom.obj
 0001:00014c50       ?DoModalCustom@CDialogCustom@@QAEHHPAVCWnd@@@Z 00415c50 f   DialogCustom.obj
 0001:00014e10       ?DoModalCustomTemplate@CDialogCustom@@QAEHAAVSPDlgTemplate@@PAVCWnd@@@Z 00415e10 f   DialogCustom.obj
 0001:00014ee0       ??0CDictationPalette@@QAE@PAVCWnd@@@Z 00415ee0 f   DictationPalette.obj
 0001:00014f80       ??_ECDictationPalette@@UAEPAXI@Z 00415f80 f i DictationPalette.obj
 0001:00014f80       ??_GCDictationPalette@@UAEPAXI@Z 00415f80 f i DictationPalette.obj
 0001:00014fb0       ??1CDictationPalette@@UAE@XZ 00415fb0 f   DictationPalette.obj
 0001:00015050       ?DoDataExchange@CDictationPalette@@MAEXPAVCDataExchange@@@Z 00416050 f   DictationPalette.obj
 0001:00015070       ?GetMessageMap@CDictationPalette@@MBEPBUAFX_MSGMAP@@XZ 00416070 f   DictationPalette.obj
 0001:00015080       ?OnInitDialog@CDictationPalette@@MAEHXZ 00416080 f   DictationPalette.obj
 0001:00015330       ?OnDestroy@CDictationPalette@@IAEXXZ 00416330 f   DictationPalette.obj
 0001:000153e0       ?OnCancel@CDictationPalette@@MAEXXZ 004163e0 f   DictationPalette.obj
 0001:000153e0       ?OnClose@CDictationPalette@@IAEXXZ 004163e0 f   DictationPalette.obj
 0001:00015410       ?OnRecoEvent@CDictationPalette@@IAEJIJ@Z 00416410 f   DictationPalette.obj
 0001:00015440       ?SetListenMode@CDictationPalette@@AAEXI@Z 00416440 f   DictationPalette.obj
 0001:00015470       ?ReloadDictationConfig@CDictationPalette@@QAEXXZ 00416470 f   DictationPalette.obj
 0001:00015480       ?UpdateState@CDictationPalette@@QAEXIJ@Z 00416480 f   DictationPalette.obj
 0001:000154a0       ?OnSSPSysMsg@CDictationPalette@@IAEJIJ@Z 004164a0 f   DictationPalette.obj
 0001:000154d0       ?OnEraseBkgnd@CDictationPalette@@IAEHPAVCDC@@@Z 004164d0 f   DictationPalette.obj
 0001:000155a0       ?OnCtlColor@CDictationPalette@@IAEPAUHBRUSH__@@PAVCDC@@PAVCWnd@@I@Z 004165a0 f   DictationPalette.obj
 0001:00015720       ?OnSize@CDictationPalette@@IAEXIHH@Z 00416720 f   DictationPalette.obj
 0001:000157a0       ?ResultProc@CDictationPalette@@QAEJPAUHWND__@@IIJ@Z 004167a0 f   DictationPalette.obj
 0001:00015880       ?OnCustomDrawResult@CDictationPalette@@IAEXPAUtagNMHDR@@PAJ@Z 00416880 f   DictationPalette.obj
 0001:00015920       ?CreateObject@CDictationSettingDlg@@SGPAVCObject@@XZ 00416920 f   DictationSettingDlg.obj
 0001:00015980       ?GetRuntimeClass@CDictationSettingDlg@@UBEPAUCRuntimeClass@@XZ 00416980 f   DictationSettingDlg.obj
 0001:00015990       ??0CDictationSettingDlg@@QAE@PAVCWnd@@@Z 00416990 f   DictationSettingDlg.obj
 0001:00015bd0       ??0CSliderCtrl@@QAE@XZ     00416bd0 f i DictationSettingDlg.obj
 0001:00015bf0       ??_GCSliderCtrl@@UAEPAXI@Z 00416bf0 f i DictationSettingDlg.obj
 0001:00015bf0       ??_ECSliderCtrl@@UAEPAXI@Z 00416bf0 f i DictationSettingDlg.obj
 0001:00015c20       ??_GCDictationSettingDlg@@UAEPAXI@Z 00416c20 f i DictationSettingDlg.obj
 0001:00015c20       ??_ECDictationSettingDlg@@UAEPAXI@Z 00416c20 f i DictationSettingDlg.obj
 0001:00015c50       ??1CDictationSettingDlg@@UAE@XZ 00416c50 f i DictationSettingDlg.obj
 0001:00015f00       ?DoDataExchange@CDictationSettingDlg@@MAEXPAVCDataExchange@@@Z 00416f00 f   DictationSettingDlg.obj
 0001:00015f40       ?GetMessageMap@CDictationSettingDlg@@MBEPBUAFX_MSGMAP@@XZ 00416f40 f   DictationSettingDlg.obj
 0001:00015f50       ?GetInfoFromID@CDictationSettingDlg@@AAE?AUtagCDSInfo@@H@Z 00416f50 f   DictationSettingDlg.obj
 0001:00016040       ?UpdateComboBox@CDictationSettingDlg@@AAEXH@Z 00417040 f   DictationSettingDlg.obj
 0001:00016110       ?UpdateComboBoxPitch@CDictationSettingDlg@@AAEXHJ@Z 00417110 f   DictationSettingDlg.obj
 0001:00016200       ?OnInitDialog@CDictationSettingDlg@@MAEHXZ 00417200 f   DictationSettingDlg.obj
 0001:000164b0       ?OnDestroy@CDictationSettingDlg@@IAEXXZ 004174b0 f   DictationSettingDlg.obj
 0001:000164d0       ?SelChange@CDictationSettingDlg@@AAEPBGH@Z 004174d0 f   DictationSettingDlg.obj
 0001:00016550       ?OnSelchangeDictationEngine@CDictationSettingDlg@@IAEXXZ 00417550 f   DictationSettingDlg.obj
 0001:000165f0       ?OnDictationEngineConfig@CDictationSettingDlg@@IAEXXZ 004175f0 f   DictationSettingDlg.obj
 0001:00016640       ?OnDictationEngineMic@CDictationSettingDlg@@IAEXXZ 00417640 f   DictationSettingDlg.obj
 0001:00016690       ?OnDictationEngineTraining@CDictationSettingDlg@@IAEXXZ 00417690 f   DictationSettingDlg.obj
 0001:000166e0       ?OnSelchangeDictationInput@CDictationSettingDlg@@IAEXXZ 004176e0 f   DictationSettingDlg.obj
 0001:00016720       ?OnDictationInputConfig@CDictationSettingDlg@@IAEXXZ 00417720 f   DictationSettingDlg.obj
 0001:00016770       ?OnSelchangeDictationProfile@CDictationSettingDlg@@IAEXXZ 00417770 f   DictationSettingDlg.obj
 0001:00016780       ?OnSelchangeTTSOutput@CDictationSettingDlg@@IAEXXZ 00417780 f   DictationSettingDlg.obj
 0001:000167d0       ?OnTTSOutputConfig@CDictationSettingDlg@@IAEXXZ 004177d0 f   DictationSettingDlg.obj
 0001:00016820       ?OnHScroll@CDictationSettingDlg@@IAEXIIPAVCScrollBar@@@Z 00417820 f   DictationSettingDlg.obj
 0001:000168c0       ?OnSelchangeTtsVoice0@CDictationSettingDlg@@IAEXXZ 004178c0 f   DictationSettingDlg.obj
 0001:00016910       ?OnSelchangeTtsVoice1@CDictationSettingDlg@@IAEXXZ 00417910 f   DictationSettingDlg.obj
 0001:00016960       ?OnSelchangeTtsVoice2@CDictationSettingDlg@@IAEXXZ 00417960 f   DictationSettingDlg.obj
 0001:000169b0       ?OnTtsVoiceConfig0@CDictationSettingDlg@@IAEXXZ 004179b0 f   DictationSettingDlg.obj
 0001:00016a00       ?OnTtsVoiceConfig1@CDictationSettingDlg@@IAEXXZ 00417a00 f   DictationSettingDlg.obj
 0001:00016a50       ?OnTtsVoiceConfig2@CDictationSettingDlg@@IAEXXZ 00417a50 f   DictationSettingDlg.obj
 0001:00016aa0       ?OnSelchangeTtsPitch0@CDictationSettingDlg@@IAEXXZ 00417aa0 f   DictationSettingDlg.obj
 0001:00016af0       ?OnSelchangeTtsPitch1@CDictationSettingDlg@@IAEXXZ 00417af0 f   DictationSettingDlg.obj
 0001:00016b40       ?OnSelchangeTtsPitch2@CDictationSettingDlg@@IAEXXZ 00417b40 f   DictationSettingDlg.obj
 0001:00016b90       ??0?$JArray@J@@QAE@K@Z     00417b90 f i DictationSettingDlg.obj
 0001:00016b90       ??0?$JArray@PAX@@QAE@K@Z   00417b90 f i DictationSettingDlg.obj
 0001:00016b90       ??0?$JArray@K@@QAE@K@Z     00417b90 f i DictationSettingDlg.obj
 0001:00016c30       ??0?$JPtrArray@PAG@@QAE@J@Z 00417c30 f i DictationSettingDlg.obj
 0001:00016cd0       ?CreateObject@CDispDlg@@SGPAVCObject@@XZ 00417cd0 f   DispDlg.obj
 0001:00016d30       ?GetRuntimeClass@CDispDlg@@UBEPAUCRuntimeClass@@XZ 00417d30 f   DispDlg.obj
 0001:00016d40       ??0CDispDlg@@QAE@PAVCWnd@@@Z 00417d40 f   DispDlg.obj
 0001:00016de0       ??_ECDispDlg@@UAEPAXI@Z    00417de0 f i DispDlg.obj
 0001:00016de0       ??_GCDispDlg@@UAEPAXI@Z    00417de0 f i DispDlg.obj
 0001:00016e10       ??1CDispDlg@@UAE@XZ        00417e10 f i DispDlg.obj
 0001:00016e80       ?DoDataExchange@CDispDlg@@MAEXPAVCDataExchange@@@Z 00417e80 f   DispDlg.obj
 0001:00016ed0       ?GetMessageMap@CDispDlg@@MBEPBUAFX_MSGMAP@@XZ 00417ed0 f   DispDlg.obj
 0001:00016ee0       ?ModifyTemplate@CDispDlg@@UAEXPAVSPDlgTemplate@@@Z 00417ee0 f   DispDlg.obj
 0001:00016f00       ?OnInitDialog@CDispDlg@@MAEHXZ 00417f00 f   DispDlg.obj
 0001:000172c0       ?OnHScroll@CDispDlg@@IAEXIIPAVCScrollBar@@@Z 004182c0 f   DispDlg.obj
 0001:00017520       ?UpdateLWinConfigEnabled@CDispDlg@@IAEXXZ 00418520 f   DispDlg.obj
 0001:00017580       ?OnLayered@CDispDlg@@IAEXXZ 00418580 f   DispDlg.obj
 0001:000175c0       ?OnCrossfader@CDispDlg@@IAEXXZ 004185c0 f   DispDlg.obj
 0001:00017610       ?OnExtendMenuWidthClick@CDispDlg@@IAEXXZ 00418610 f   DispDlg.obj
 0001:00017650       ?OnDontSetCursorClick@CDispDlg@@IAEXXZ 00418650 f   DispDlg.obj
 0001:000176a0       ?OnChangeDesktopOffset@CDispDlg@@IAEXXZ 004186a0 f   DispDlg.obj
 0001:000176f0       ?OnShowThumbnail@CDispDlg@@IAEXXZ 004186f0 f   DispDlg.obj
 0001:00017740       ?OnCreateSubmenu@CDispDlg@@IAEXXZ 00418740 f   DispDlg.obj
 0001:00017790       ?OnChangeMenuLimit@CDispDlg@@IAEXXZ 00418790 f   DispDlg.obj
 0001:000177f0       ?OnDestroy@CDispDlg@@IAEXXZ 004187f0 f   DispDlg.obj
 0001:00017910       ?OnChangeHistoryLimit@CDispDlg@@IAEXXZ 00418910 f   DispDlg.obj
 0001:00017940       ?OnChangeMenuHeight@CDispDlg@@IAEXXZ 00418940 f   DispDlg.obj
 0001:000179a0       ?OnDragdrop@CDispDlg@@IAEXXZ 004189a0 f   DispDlg.obj
 0001:000179f0       ?OnFlip3d@CDispDlg@@IAEXXZ 004189f0 f   DispDlg.obj
 0001:00017b70       ?OnTaskbar@CDispDlg@@IAEXXZ 00418b70 f   DispDlg.obj
 0001:00017c60       ?OnHideFullscreen@CDispDlg@@IAEXXZ 00418c60 f   DispDlg.obj
 0001:00017cb0       ?OnPinVD@CDispDlg@@IAEXXZ  00418cb0 f   DispDlg.obj
 0001:00017d00       ?OnBringOtherWindowToFront@CDispDlg@@IAEXXZ 00418d00 f   DispDlg.obj
 0001:00017d50       ?GetCheckedRadioButton@CDlgUtil@@SAHPAUHWND__@@PBHK@Z 00418d50 f   DlgUtil.obj
 0001:00017d80       ?GetCheckedRadioButtonNum@CDlgUtil@@SAHPAUHWND__@@PBHK@Z 00418d80 f   DlgUtil.obj
 0001:00017df0       ?SetCheckedRadioButton@CDlgUtil@@SAXPAUHWND__@@HPBHK@Z 00418df0 f   DlgUtil.obj
 0001:00017ea0       ?GetItemCheck@CDlgUtil@@SAHPAUHWND__@@H@Z 00418ea0 f   DlgUtil.obj
 0001:00017ec0       ?GetItemCheck3State@CDlgUtil@@SAHPAUHWND__@@H@Z 00418ec0 f   DlgUtil.obj
 0001:00017ef0       ?SetItemCheck@CDlgUtil@@SA_NPAUHWND__@@HH@Z 00418ef0 f   DlgUtil.obj
 0001:00017f30       ?EnableItem@CDlgUtil@@SA_NPAUHWND__@@HH@Z 00418f30 f   DlgUtil.obj
 0001:00017f90       ?ShowItem@CDlgUtil@@SA_NPAUHWND__@@HH@Z 00418f90 f   DlgUtil.obj
 0001:00018000       ?SetFocusItem@CDlgUtil@@SA_NPAUHWND__@@H@Z 00419000 f   DlgUtil.obj
 0001:00018050       ?GetItemRect@CDlgUtil@@SA_NPAUHWND__@@HAAUtagRECT@@@Z 00419050 f   DlgUtil.obj
 0001:00018080       ?SetItemRect@CDlgUtil@@SA_NPAUHWND__@@HAAUtagRECT@@@Z 00419080 f   DlgUtil.obj
 0001:000180d0       ?GetText@CDlgUtil@@SA_NPAUHWND__@@AAVJWString@@@Z 004190d0 f   DlgUtil.obj
 0001:00018290       ?SetText@CDlgUtil@@SA_NPAUHWND__@@PBG@Z 00419290 f   DlgUtil.obj
 0001:000182f0       ?GetItemText@CDlgUtil@@SA_NPAUHWND__@@HAAVJWString@@@Z 004192f0 f   DlgUtil.obj
 0001:00018320       ?GetItemText@CDlgUtil@@SA_NPAUHWND__@@HAAVJString@@@Z 00419320 f   DlgUtil.obj
 0001:00018450       ?IsItemEmpty@CDlgUtil@@SA_NPAUHWND__@@H@Z 00419450 f   DlgUtil.obj
 0001:00018480       ?SetItemText@CDlgUtil@@SA_NPAUHWND__@@HPBD@Z 00419480 f   DlgUtil.obj
 0001:00018510       ?SetItemText@CDlgUtil@@SA_NPAUHWND__@@HPBG@Z 00419510 f   DlgUtil.obj
 0001:00018540       ?SetItemLimitText@CDlgUtil@@SA_NPAUHWND__@@HH@Z 00419540 f   DlgUtil.obj
 0001:000185a0       ?SetButtonIcon@CDlgUtil@@SA_NPAUHWND__@@HH@Z 004195a0 f   DlgUtil.obj
 0001:000185f0       ?SetItemNum@CDlgUtil@@SA_NPAUHWND__@@HH@Z 004195f0 f   DlgUtil.obj
 0001:00018620       ?SetItemNumU@CDlgUtil@@SA_NPAUHWND__@@HI@Z 00419620 f   DlgUtil.obj
 0001:00018650       ?SetItemNumAndSpin@CDlgUtil@@SA_NPAUHWND__@@HHHHH@Z 00419650 f   DlgUtil.obj
 0001:00018740       ?GetItemNum@CDlgUtil@@SAJPAUHWND__@@H@Z 00419740 f   DlgUtil.obj
 0001:00018860       ?GetItemNumU@CDlgUtil@@SAKPAUHWND__@@H@Z 00419860 f   DlgUtil.obj
 0001:00018980       ?SetPos@CDlgUtil@@SA_NPAUHWND__@@HH@Z 00419980 f   DlgUtil.obj
 0001:000189c0       ?SetRange@CDlgUtil@@SA_NPAUHWND__@@HHH@Z 004199c0 f   DlgUtil.obj
 0001:00018a60       ?SetComboBoxTableImpl@CDlgUtil@@CAXPAUHWND__@@PAPAGK@Z 00419a60 f   DlgUtil.obj
 0001:00018c30       ?SetComboBoxTable@CDlgUtil@@SAXPAUHWND__@@PAD@Z 00419c30 f   DlgUtil.obj
 0001:00018d10       ?SetComboBoxTable@CDlgUtil@@SAXPAUHWND__@@AAVSPStaticStringArrayW@@@Z 00419d10 f   DlgUtil.obj
 0001:00018d40       ?AddComboBox@CDlgUtil@@SAXPAUHWND__@@PBG@Z 00419d40 f   DlgUtil.obj
 0001:00018e40       ?GetItemCurSel@CDlgUtil@@SAJPAUHWND__@@H@Z 00419e40 f   DlgUtil.obj
 0001:00018eb0       ?SetItemCurSel@CDlgUtil@@SAXPAUHWND__@@HJ@Z 00419eb0 f   DlgUtil.obj
 0001:00018f10       ?GetItemCurSelData@CDlgUtil@@SAJPAUHWND__@@H@Z 00419f10 f   DlgUtil.obj
 0001:00018fd0       ??0CDlgUtilLockWindowUpdate@@QAE@AAVCWnd@@@Z 00419fd0 f   DlgUtil.obj
 0001:00019000       ??1CDlgUtilLockWindowUpdate@@QAE@XZ 0041a000 f   DlgUtil.obj
 0001:00019070       ??0CExplorerDialog@@QAE@PAVCWnd@@@Z 0041a070 f   ExplorerDialog.obj
 0001:00019230       ??_ECExplorerDialog@@UAEPAXI@Z 0041a230 f i ExplorerDialog.obj
 0001:00019230       ??_GCExplorerDialog@@UAEPAXI@Z 0041a230 f i ExplorerDialog.obj
 0001:00019260       ??1CExplorerDialog@@UAE@XZ 0041a260 f i ExplorerDialog.obj
 0001:00019390       ?DoDataExchange@CExplorerDialog@@MAEXPAVCDataExchange@@@Z 0041a390 f   ExplorerDialog.obj
 0001:000193b0       ?GetMessageMap@CExplorerDialog@@MBEPBUAFX_MSGMAP@@XZ 0041a3b0 f   ExplorerDialog.obj
 0001:000193c0       ?OnInitDialog@CExplorerDialog@@MAEHXZ 0041a3c0 f   ExplorerDialog.obj
 0001:00019be0       ??1SPMenuTemplate@@QAE@XZ  0041abe0 f i ExplorerDialog.obj
 0001:00019c70       ?ActivateWindow@CExplorerDialog@@QAEXXZ 0041ac70 f   ExplorerDialog.obj
 0001:00019c90       ?CreateIndirectExt@CExplorerDialog@@QAEXPAVCWnd@@@Z 0041ac90 f   ExplorerDialog.obj
 0001:00019e60       ?DoModalExt@CExplorerDialog@@QAEHPAVCWnd@@@Z 0041ae60 f   ExplorerDialog.obj
 0001:0001a030       ?SetListMode@CExplorerDialog@@QAEXPAVSPGhost@@H@Z 0041b030 f   ExplorerDialog.obj
 0001:0001a0a0       ?IsAutoClose@CExplorerDialog@@AAE_NXZ 0041b0a0 f   ExplorerDialog.obj
 0001:0001a0c0       ?OnPropAutoclose@CExplorerDialog@@IAEXXZ 0041b0c0 f   ExplorerDialog.obj
 0001:0001a100       ?UpdateAutoCloseCheck@CExplorerDialog@@AAEXXZ 0041b100 f   ExplorerDialog.obj
 0001:0001a140       ?GetTypeText@CExplorerDialog@@AAEXPAGJ@Z 0041b140 f   ExplorerDialog.obj
 0001:0001a2c0       ?OnDblclkDlist@CExplorerDialog@@IAEXPAUtagNMHDR@@PAJ@Z 0041b2c0 f   ExplorerDialog.obj
 0001:0001a320       ?ChangeMenuState@CExplorerDialog@@AAEXXZ 0041b320 f   ExplorerDialog.obj
 0001:0001ab50       ?ShowListContextMenu@CExplorerDialog@@AAEX_N@Z 0041bb50 f   ExplorerDialog.obj
 0001:0001ac10       ?SetListNum@CExplorerDialog@@AAEXI@Z 0041bc10 f   ExplorerDialog.obj
 0001:0001acb0       ?InitListColumn@CExplorerDialog@@AAEXXZ 0041bcb0 f   ExplorerDialog.obj
 0001:0001ae40       ?InitOneItem@CExplorerDialog@@AAEXPAVSPProp@@AAVJString@@_N2@Z 0041be40 f   ExplorerDialog.obj
 0001:0001b020       ?InitList@CExplorerDialog@@AAEXH@Z 0041c020 f   ExplorerDialog.obj
 0001:0001bb10       ?SetExplorerTitle@CExplorerDialog@@AAEXXZ 0041cb10 f   ExplorerDialog.obj
 0001:0001bbd0       ?GetSelectedCommandID@CExplorerDialog@@AAEJXZ 0041cbd0 f   ExplorerDialog.obj
 0001:0001bc30       ?GetSelectedCommandIDMulti@CExplorerDialog@@AAEKAAV?$JArray@K@@@Z 0041cc30 f   ExplorerDialog.obj
 0001:0001bdb0       ?AskTooManySelection@CExplorerDialog@@AAEHK@Z 0041cdb0 f   ExplorerDialog.obj
 0001:0001be00       ?OnCommand@CExplorerDialog@@MAEHIJ@Z 0041ce00 f   ExplorerDialog.obj
 0001:0001be90       ?OnCommandReal@CExplorerDialog@@AAEHIJ@Z 0041ce90 f   ExplorerDialog.obj
 0001:0001d110       ?SHFileOperationA@CExplorerDialog@@AAE_NHKABVSPStaticStringArrayW@@AAV?$JPtrArray@PAVSPProp@@@@@Z 0041e110 f   ExplorerDialog.obj
 0001:0001d740       ??0JDynLoad@@QAE@PBD@Z     0041e740 f i ExplorerDialog.obj
 0001:0001d830       ?OnCommandCreateShortcut@CExplorerDialog@@AAEHAAV?$JArray@K@@_N@Z 0041e830 f   ExplorerDialog.obj
 0001:0001d850       ?UpdateList@CExplorerDialog@@AAEXPAVSPGhost@@H@Z 0041e850 f   ExplorerDialog.obj
 0001:0001d8b0       ?SetGhost@CExplorerDialog@@QAEXPAVSPGhost@@@Z 0041e8b0 f   ExplorerDialog.obj
 0001:0001d970       ?GetGhost@CExplorerDialog@@QAEPAVSPGhost@@XZ 0041e970 f   ExplorerDialog.obj
 0001:0001d990       ?OnSelchangeExplorertype@CExplorerDialog@@IAEXI@Z 0041e990 f   ExplorerDialog.obj
 0001:0001db30       ?OnGetMinMaxInfo@CExplorerDialog@@IAEXPAUtagMINMAXINFO@@@Z 0041eb30 f   ExplorerDialog.obj
 0001:0001dbd0       ?OnSize@CExplorerDialog@@IAEXIHH@Z 0041ebd0 f   ExplorerDialog.obj
 0001:0001dc10       ?OnOK@CExplorerDialog@@MAEXXZ 0041ec10 f   ExplorerDialog.obj
 0001:0001dd70       ?OnCancel@CExplorerDialog@@MAEXXZ 0041ed70 f   ExplorerDialog.obj
 0001:0001dd70       ?OnClose@CExplorerDialog@@IAEXXZ 0041ed70 f   ExplorerDialog.obj
 0001:0001dd90       ?OnDestroy@CExplorerDialog@@IAEXXZ 0041ed90 f   ExplorerDialog.obj
 0001:0001df60       ?InitializeMembers@CExplorerDialog@@AAEXXZ 0041ef60 f   ExplorerDialog.obj
 0001:0001e0f0       ?DeleteAllData@CExplorerDialog@@AAEXXZ 0041f0f0 f   ExplorerDialog.obj
 0001:0001e560       ?OnColumnClickDlist@CExplorerDialog@@IAEXPAUtagNMHDR@@PAJ@Z 0041f560 f   ExplorerDialog.obj
 0001:0001e5c0       ?SortDlist@CExplorerDialog@@AAEXI@Z 0041f5c0 f   ExplorerDialog.obj
 0001:0001e700       ?OnFindList@CExplorerDialog@@IAEXXZ 0041f700 f   ExplorerDialog.obj
 0001:0001ea30       ?FindNext@CExplorerDialog@@AAEHXZ 0041fa30 f   ExplorerDialog.obj
 0001:0001eb70       ?Find@CExplorerDialog@@AAEJJ@Z 0041fb70 f   ExplorerDialog.obj
 0001:0001ed50       ?PreTranslateMessage@CExplorerDialog@@UAEHPAUtagMSG@@@Z 0041fd50 f   ExplorerDialog.obj
 0001:0001ed90       ?ProcessShortcut@CExplorerDialog@@AAEHI@Z 0041fd90 f   ExplorerDialog.obj
 0001:0001eed0       ?PostCommandIfEnable@CExplorerDialog@@AAEXJ@Z 0041fed0 f   ExplorerDialog.obj
 0001:0001ef30       ?OnSelectAll@CExplorerDialog@@IAEXXZ 0041ff30 f   ExplorerDialog.obj
 0001:0001ef70       ?OnCopyLine@CExplorerDialog@@IAEXXZ 0041ff70 f   ExplorerDialog.obj
 0001:0001f190       ?OnSSPSysMsg@CExplorerDialog@@IAEJIJ@Z 00420190 f   ExplorerDialog.obj
 0001:0001f270       ?OnUpdateMessage@CExplorerDialog@@IAEJIJ@Z 00420270 f   ExplorerDialog.obj
 0001:0001f290       ?OnColumnRClickDList@CExplorerDialog@@AAEXPAUtagNMHEADERA@@@Z 00420290 f   ExplorerDialog.obj
 0001:0001f350       ?OnNotify@CExplorerDialog@@MAEHIJPAJ@Z 00420350 f   ExplorerDialog.obj
 0001:0001f3e0       ?GetHeaderWidth@CExplorerDialog@@AAEXPAH@Z 004203e0 f   ExplorerDialog.obj
 0001:0001f470       ?SaveHeaderStatus@CExplorerDialog@@AAEXXZ 00420470 f   ExplorerDialog.obj
 0001:0001f570       ?LoadHeaderStatus@CExplorerDialog@@AAEXPAH@Z 00420570 f   ExplorerDialog.obj
 0001:0001f660       ?OnFindNext@CExplorerDialog@@IAEXXZ 00420660 f   ExplorerDialog.obj
 0001:0001f690       ?GetCurrentTypeFlag@CExplorerDialog@@SAI_NH@Z 00420690 f   ExplorerDialog.obj
 0001:0001f700       ?OnReload@CExplorerDialog@@IAEXXZ 00420700 f   ExplorerDialog.obj
 0001:0001f740       ?OnContextMenu@CExplorerDialog@@IAEXPAVCWnd@@VCPoint@@@Z 00420740 f   ExplorerDialog.obj
 0001:0001f7a0       ?DrawOneItem@CExplorerDialog@@AAEXJ_NAAVCExplorerDialogData@@AAVJRect@@PAUHDC__@@@Z 004207a0 f   ExplorerDialog.obj
 0001:0001fa20       ?GetOneItemText@CExplorerDialog@@AAEPBGJW4CExplorerDialogColumn@@AAVCExplorerDialogData@@@Z 00420a20 f   ExplorerDialog.obj
 0001:0001fb90       ?OnMeasureItem@CExplorerDialog@@IAEXHPAUtagMEASUREITEMSTRUCT@@@Z 00420b90 f   ExplorerDialog.obj
 0001:0001fbb0       ?OnDrawItem@CExplorerDialog@@IAEXHPAUtagDRAWITEMSTRUCT@@@Z 00420bb0 f   ExplorerDialog.obj
 0001:0001fd40       ?HeaderDoubleClick@CExplorerDialog@@AAEXJ@Z 00420d40 f   ExplorerDialog.obj
 0001:000200a0       ?RealSortNum@CExplorerDialog@@AAEKK@Z 004210a0 f   ExplorerDialog.obj
 0001:000200e0       ?MarkSort@CExplorerDialog@@AAEXK@Z 004210e0 f   ExplorerDialog.obj
 0001:000201c0       ?UpdateFolderMoveMenu@CExplorerDialog@@AAEXXZ 004211c0 f   ExplorerDialog.obj
 0001:000204c0       ?OnItemChangedDlist@CExplorerDialog@@IAEXPAUtagNMHDR@@PAJ@Z 004214c0 f   ExplorerDialog.obj
 0001:00020540       ??0?$JPtrArray@PAVSPMultiFileEntry@@@@QAE@J@Z 00421540 f i ExplorerDialog.obj
 0001:000205a0       ?sort_heap@std@@YAXPAK0@Z  004215a0 f i ExplorerDialog.obj
 0001:00020640       ?_Make_heap@std@@YAXPAK0PAH0@Z 00421640 f i ExplorerDialog.obj
 0001:00020730       ?Execute@CExplorerNetUpdateDlg@@UAEXPAX@Z 00421730 f   ExplorerNetUpdateDlg.obj
 0001:000207e0       ??1SPScriptPlayerAppExitAdd@@QAE@XZ 004217e0 f i ExplorerNetUpdateDlg.obj
 0001:000207f0       ?OrderTerminate@CExplorerNetUpdateDlg@@UAEXXZ 004217f0 f   ExplorerNetUpdateDlg.obj
 0001:00020810       ?ThreadProcGhostRegister@CExplorerNetUpdateDlg@@QAEXXZ 00421810 f   ExplorerNetUpdateDlg.obj
 0001:00020f20       ?ThreadProcLoadRSS@CExplorerNetUpdateDlg@@QAE_NAAVSPHeadlineRSS@@@Z 00421f20 f   ExplorerNetUpdateDlg.obj
 0001:00021070       ?ThreadProcSelection@CExplorerNetUpdateDlg@@QAEXXZ 00422070 f   ExplorerNetUpdateDlg.obj
 0001:000211c0       ??1SPStaticStringArrayA@@QAE@XZ 004221c0 f i ExplorerNetUpdateDlg.obj
 0001:00021250       ?ThreadProcRSS@CExplorerNetUpdateDlg@@QAEXXZ 00422250 f   ExplorerNetUpdateDlg.obj
 0001:00021560       ?ThreadProc@CExplorerNetUpdateDlg@@QAEXPAV?$JArray@K@@PAVSPStaticStringArrayA@@@Z 00422560 f   ExplorerNetUpdateDlg.obj
 0001:000220f0       ??1CExplorerNetUpdateOnline@@QAE@XZ 004230f0 f i ExplorerNetUpdateDlg.obj
 0001:00022250       ?UpdateOne@CExplorerNetUpdateDlg@@AAEHAAVSPUpdate@@PBGPBD21PBVSPProp@@2@Z 00423250 f   ExplorerNetUpdateDlg.obj
 0001:00022660       ??1SPUpdateFlags@@UAE@XZ   00423660 f i ExplorerNetUpdateDlg.obj
 0001:00022670       ??_GSPUpdateFlags@@UAEPAXI@Z 00423670 f i ExplorerNetUpdateDlg.obj
 0001:00022670       ??_ESPUpdateFlags@@UAEPAXI@Z 00423670 f i ExplorerNetUpdateDlg.obj
 0001:000226a0       ??0CExplorerNetUpdateDlg@@QAE@PAVCWnd@@@Z 004236a0 f   ExplorerNetUpdateDlg.obj
 0001:00022870       ??1SPEventObject@@QAE@XZ   00423870 f i ExplorerNetUpdateDlg.obj
 0001:00022880       ??0SPHttp@@QAE@XZ          00423880 f i ExplorerNetUpdateDlg.obj
 0001:00022bc0       ??1JSocket@@QAE@XZ         00423bc0 f i ExplorerNetUpdateDlg.obj
 0001:00022ca0       ??1SPHttp@@QAE@XZ          00423ca0 f i ExplorerNetUpdateDlg.obj
 0001:00022ea0       ??1SPSTMThreadDesc@@UAE@XZ 00423ea0 f i ExplorerNetUpdateDlg.obj
 0001:00022ea0       ??1SPSTMThreadDescProc@@UAE@XZ 00423ea0 f i ExplorerNetUpdateDlg.obj
 0001:00022ed0       ?IsProc@SPSTMThreadDesc@@UAE_NP6AXPAXPCH@Z@Z 00423ed0 f i ExplorerNetUpdateDlg.obj
 0001:00022ed0       ?ShallowEqual@XMLDocument@tinyxml2@@UBE_NPBVXMLNode@2@@Z 00423ed0 f i ExplorerNetUpdateDlg.obj
 0001:00022ee0       ??_ESPSTMThreadDesc@@UAEPAXI@Z 00423ee0 f i ExplorerNetUpdateDlg.obj
 0001:00022ee0       ??_GSPSTMThreadDesc@@UAEPAXI@Z 00423ee0 f i ExplorerNetUpdateDlg.obj
 0001:00022f10       ??_GCExplorerNetUpdateDlg@@UAEPAXI@Z 00423f10 f i ExplorerNetUpdateDlg.obj
 0001:00022f10       ??_ECExplorerNetUpdateDlg@@UAEPAXI@Z 00423f10 f i ExplorerNetUpdateDlg.obj
 0001:00022f40       ??1CExplorerNetUpdateDlg@@UAE@XZ 00423f40 f   ExplorerNetUpdateDlg.obj
 0001:00023220       ?DoDataExchange@CExplorerNetUpdateDlg@@MAEXPAVCDataExchange@@@Z 00424220 f   ExplorerNetUpdateDlg.obj
 0001:00023240       ?GetMessageMap@CExplorerNetUpdateDlg@@MBEPBUAFX_MSGMAP@@XZ 00424240 f   ExplorerNetUpdateDlg.obj
 0001:00023250       ?OnCancel@CExplorerNetUpdateDlg@@MAEXXZ 00424250 f   ExplorerNetUpdateDlg.obj
 0001:00023260       ?OnInitDialog@CExplorerNetUpdateDlg@@MAEHXZ 00424260 f   ExplorerNetUpdateDlg.obj
 0001:000234c0       ?OnDestroy@CExplorerNetUpdateDlg@@IAEXXZ 004244c0 f   ExplorerNetUpdateDlg.obj
 0001:000235d0       ?SetName@CExplorerNetUpdateDlg@@QAEXPBGII_N@Z 004245d0 f   ExplorerNetUpdateDlg.obj
 0001:00023730       ?SetInfo@CExplorerNetUpdateDlg@@QAE_NAAV?$JArray@K@@AAV?$JArray@VCExplorerDialogData@@@@PBGHGPAVCExplorerDialog@@@Z 00424730 f   ExplorerNetUpdateDlg.obj
 0001:000239e0       ?ModifyTemplate@CExplorerNetUpdateDlg@@UAEXPAVSPDlgTemplate@@@Z 004249e0 f   ExplorerNetUpdateDlg.obj
 0001:00023a30       ?CreateMe@CExplorerNetUpdateDlg@@QAEXXZ 00424a30 f   ExplorerNetUpdateDlg.obj
 0001:00023a70       ?SPCNotify@CExplorerNetUpdateDlg@@UAE_NKPAPAXK@Z 00424a70 f   ExplorerNetUpdateDlg.obj
 0001:00023e20       ?OnClose@CExplorerNetUpdateDlg@@IAEXXZ 00424e20 f   ExplorerNetUpdateDlg.obj
 0001:00023e40       ??0?$JPtrArray@PAD@@QAE@J@Z 00424e40 f i ExplorerNetUpdateDlg.obj
 0001:00023ea0       ??_ECExplorerNetUpdateDlg@@WGA@AEPAXI@Z 00424ea0 f i ExplorerNetUpdateDlg.obj
 0001:00023eb0       ??_ECExplorerNetUpdateDlg@@WBEM@AEPAXI@Z 00424eb0 f i ExplorerNetUpdateDlg.obj
 0001:00023ec0       ?CreateObject@CExtAppDlg@@SGPAVCObject@@XZ 00424ec0 f   ExtAppDlg.obj
 0001:00023f20       ?GetRuntimeClass@CExtAppDlg@@UBEPAUCRuntimeClass@@XZ 00424f20 f   ExtAppDlg.obj
 0001:00023f30       ??0CExtAppDlg@@QAE@PAVCWnd@@@Z 00424f30 f   ExtAppDlg.obj
 0001:00023f60       ?GetMessageMap@CExtAppDlg@@MBEPBUAFX_MSGMAP@@XZ 00424f60 f   ExtAppDlg.obj
 0001:00023f70       ?ChoiceExeFile@CExtAppDlg@@AAEHAAVJWString@@PBG@Z 00424f70 f   ExtAppDlg.obj
 0001:00024020       ?OnRefBrowser@CExtAppDlg@@IAEXXZ 00425020 f   ExtAppDlg.obj
 0001:000240a0       ?OnRefFiler@CExtAppDlg@@IAEXXZ 004250a0 f   ExtAppDlg.obj
 0001:00024120       ?OnRefMailer@CExtAppDlg@@IAEXXZ 00425120 f   ExtAppDlg.obj
 0001:000241b0       ?OnRefEditor@CExtAppDlg@@IAEXXZ 004251b0 f   ExtAppDlg.obj
 0001:00024240       ?OnRefSvn@CExtAppDlg@@IAEXXZ 00425240 f   ExtAppDlg.obj
 0001:00024340       ?OnRefGit@CExtAppDlg@@IAEXXZ 00425340 f   ExtAppDlg.obj
 0001:00024440       ?OnInitDialog@CExtAppDlg@@MAEHXZ 00425440 f   ExtAppDlg.obj
 0001:000245f0       ?OnChangeDefaultBrowser@CExtAppDlg@@IAEXXZ 004255f0 f   ExtAppDlg.obj
 0001:00024630       ?OnChangeDefaultFiler@CExtAppDlg@@IAEXXZ 00425630 f   ExtAppDlg.obj
 0001:00024670       ?OnChangeDefaultMailer@CExtAppDlg@@IAEXXZ 00425670 f   ExtAppDlg.obj
 0001:000246c0       ?OnChangeDefaultMailerArg@CExtAppDlg@@IAEXXZ 004256c0 f   ExtAppDlg.obj
 0001:00024700       ?UpdateMailerArgEnable@CExtAppDlg@@AAEXXZ 00425700 f   ExtAppDlg.obj
 0001:00024730       ?OnChangeDefaultEditor@CExtAppDlg@@IAEXXZ 00425730 f   ExtAppDlg.obj
 0001:00024780       ?OnChangeDefaultEditorArg@CExtAppDlg@@IAEXXZ 00425780 f   ExtAppDlg.obj
 0001:000247c0       ?UpdateEditorArgEnable@CExtAppDlg@@AAEXXZ 004257c0 f   ExtAppDlg.obj
 0001:000247f0       ?OnChangeDefaultSvn@CExtAppDlg@@IAEXXZ 004257f0 f   ExtAppDlg.obj
 0001:00024900       ?OnChangeDefaultGit@CExtAppDlg@@IAEXXZ 00425900 f   ExtAppDlg.obj
 0001:00024a10       ??0CFolderDlg@@QAE@PAVCWnd@@@Z 00425a10 f   FolderDlg.obj
 0001:00024b00       ??_GCFolderDlg@@UAEPAXI@Z  00425b00 f i FolderDlg.obj
 0001:00024b00       ??_ECFolderDlg@@UAEPAXI@Z  00425b00 f i FolderDlg.obj
 0001:00024b30       ??1CFolderDlg@@UAE@XZ      00425b30 f i FolderDlg.obj
 0001:00024b90       ?GetMessageMap@CFolderDlg@@MBEPBUAFX_MSGMAP@@XZ 00425b90 f   FolderDlg.obj
 0001:00024ba0       ?OnInitDialog@CFolderDlg@@MAEHXZ 00425ba0 f   FolderDlg.obj
 0001:00024f50       ?OnDestroy@CFolderDlg@@IAEXXZ 00425f50 f   FolderDlg.obj
 0001:00025180       ?OnGhostEdit@CFolderDlg@@IAEXXZ 00426180 f   FolderDlg.obj
 0001:00025350       ??1CFolderEditDlg@@UAE@XZ  00426350 f i FolderDlg.obj
 0001:00025410       ?OnBalloonEdit@CFolderDlg@@IAEXXZ 00426410 f   FolderDlg.obj
 0001:000255e0       ?OnHeadlineEdit@CFolderDlg@@IAEXXZ 004265e0 f   FolderDlg.obj
 0001:000257b0       ?OnPluginEdit@CFolderDlg@@IAEXXZ 004267b0 f   FolderDlg.obj
 0001:00025980       ?CFolderDlg_ModifyNum@@YAXPAUHWND__@@HK@Z 00426980 f   FolderDlg.obj
 0001:00025aa0       ?UpdateNum@CFolderDlg@@IAEXXZ 00426aa0 f   FolderDlg.obj
 0001:00025b20       ?OnGhostReload@CFolderDlg@@IAEXXZ 00426b20 f   FolderDlg.obj
 0001:00025b50       ?OnBalloonReload@CFolderDlg@@IAEXXZ 00426b50 f   FolderDlg.obj
 0001:00025b80       ?OnHeadlineReload@CFolderDlg@@IAEXXZ 00426b80 f   FolderDlg.obj
 0001:00025bb0       ?OnPluginReload@CFolderDlg@@IAEXXZ 00426bb0 f   FolderDlg.obj
 0001:00025be0       ?OnGhostSelect@CFolderDlg@@IAEXXZ 00426be0 f   FolderDlg.obj
 0001:00025c10       ?OnBalloonSelect@CFolderDlg@@IAEXXZ 00426c10 f   FolderDlg.obj
 0001:00025c40       ?OnHeadlineSelect@CFolderDlg@@IAEXXZ 00426c40 f   FolderDlg.obj
 0001:00025c70       ?OnPluginSelect@CFolderDlg@@IAEXXZ 00426c70 f   FolderDlg.obj
 0001:00025ca0       ?OnGhostSelectBoot@CFolderDlg@@IAEXXZ 00426ca0 f   FolderDlg.obj
 0001:00025cd0       ?OnBalloonSelectBoot@CFolderDlg@@IAEXXZ 00426cd0 f   FolderDlg.obj
 0001:00025d00       ?OnTempPathRef@CFolderDlg@@IAEXXZ 00426d00 f   FolderDlg.obj
 0001:00025eb0       ?OnTempPathDefault@CFolderDlg@@IAEXXZ 00426eb0 f   FolderDlg.obj
 0001:00025fc0       ?OnNarPathRef@CFolderDlg@@IAEXXZ 00426fc0 f   FolderDlg.obj
 0001:00026170       ?OnNarPathDefault@CFolderDlg@@IAEXXZ 00427170 f   FolderDlg.obj
 0001:00026280       ??0CFolderEditDlg@@QAE@PAVCWnd@@@Z 00427280 f   FolderEditDlg.obj
 0001:00026350       ??_ECFolderEditDlg@@UAEPAXI@Z 00427350 f i FolderEditDlg.obj
 0001:00026350       ??_GCFolderEditDlg@@UAEPAXI@Z 00427350 f i FolderEditDlg.obj
 0001:00026380       ?DoModalExt@CFolderEditDlg@@QAEHPAVCWnd@@W4SPDataPathListID@@@Z 00427380 f   FolderEditDlg.obj
 0001:00026550       ?DoDataExchange@CFolderEditDlg@@MAEXPAVCDataExchange@@@Z 00427550 f   FolderEditDlg.obj
 0001:00026570       ?GetMessageMap@CFolderEditDlg@@MBEPBUAFX_MSGMAP@@XZ 00427570 f   FolderEditDlg.obj
 0001:00026580       ?OnInitDialog@CFolderEditDlg@@MAEHXZ 00427580 f   FolderEditDlg.obj
 0001:000268f0       ?OnDestroy@CFolderEditDlg@@IAEXXZ 004278f0 f   FolderEditDlg.obj
 0001:00026970       ?UpdateList@CFolderEditDlg@@IAEXXZ 00427970 f   FolderEditDlg.obj
 0001:00026fa0       ?GetListSel@CFolderEditDlg@@IAEHXZ 00427fa0 f   FolderEditDlg.obj
 0001:00026fe0       ?SetListSel@CFolderEditDlg@@IAEXH@Z 00427fe0 f   FolderEditDlg.obj
 0001:00027020       ?OnOK@CFolderEditDlg@@MAEXXZ 00428020 f   FolderEditDlg.obj
 0001:00027080       ?OnCancel@CFolderEditDlg@@MAEXXZ 00428080 f   FolderEditDlg.obj
 0001:000270a0       ?OnFolderModify@CFolderEditDlg@@IAEXXZ 004280a0 f   FolderEditDlg.obj
 0001:00027290       ?OnFolderAdd@CFolderEditDlg@@IAEXXZ 00428290 f   FolderEditDlg.obj
 0001:00027400       ?OnFolderEdit@CFolderEditDlg@@IAEXXZ 00428400 f   FolderEditDlg.obj
 0001:000275f0       ?OnFolderDel@CFolderEditDlg@@IAEXXZ 004285f0 f   FolderEditDlg.obj
 0001:00027640       ?ChangeFolderState@CFolderEditDlg@@IAEXHPAUtagNMHDR@@@Z 00428640 f   FolderEditDlg.obj
 0001:000276d0       ?OnDblclkFolderList@CFolderEditDlg@@IAEXPAUtagNMHDR@@PAJ@Z 004286d0 f   FolderEditDlg.obj
 0001:00027770       ?OnClickFolderList@CFolderEditDlg@@IAEXPAUtagNMHDR@@PAJ@Z 00428770 f   FolderEditDlg.obj
 0001:00027800       ?OnDropFiles@CFolderEditDlg@@IAEXPAUHDROP__@@@Z 00428800 f   FolderEditDlg.obj
 0001:000278d0       ??1SPMultiFile@@QAE@XZ     004288d0 f i FolderEditDlg.obj
 0001:00027930       ?OnFolderUp@CFolderEditDlg@@IAEXXZ 00428930 f   FolderEditDlg.obj
 0001:00027980       ?OnFolderDn@CFolderEditDlg@@IAEXXZ 00428980 f   FolderEditDlg.obj
 0001:000279e0       ?UpdateButtonState@CFolderEditDlg@@IAEXXZ 004289e0 f   FolderEditDlg.obj
 0001:00027d50       ?OnItemChangedFolderList@CFolderEditDlg@@IAEXPAUtagNMHDR@@PAJ@Z 00428d50 f   FolderEditDlg.obj
 0001:00027d90       ?OnBeginlabeleditFolderList@CFolderEditDlg@@IAEXPAUtagNMHDR@@PAJ@Z 00428d90 f   FolderEditDlg.obj
 0001:00027dc0       ?OnEndLabelEditFolderList@CFolderEditDlg@@IAEXPAUtagNMHDR@@PAJ@Z 00428dc0 f   FolderEditDlg.obj
 0001:00027e60       ?OnFolderSettingChange@CFolderEditDlg@@IAEXXZ 00428e60 f   FolderEditDlg.obj
 0001:00027ec0       ?SetGroupFlagCheck@CFolderEditDlg@@SAXPAUHWND__@@K@Z 00428ec0 f   FolderEditDlg.obj
 0001:00027f10       ?GetGroupFlagCheck@CFolderEditDlg@@SAKPAUHWND__@@@Z 00428f10 f   FolderEditDlg.obj
 0001:00027f80       ?OnGetMinMaxInfo@CFolderEditDlg@@IAEXPAUtagMINMAXINFO@@@Z 00428f80 f   FolderEditDlg.obj
 0001:00028030       ?OnSize@CFolderEditDlg@@IAEXIHH@Z 00429030 f   FolderEditDlg.obj
 0001:00028050       ??0CGhostAIGraph@@QAE@XZ   00429050 f   GhostAIGraph.obj
 0001:00028110       ??_ECGhostAIGraph@@UAEPAXI@Z 00429110 f i GhostAIGraph.obj
 0001:00028110       ??_GCGhostAIGraph@@UAEPAXI@Z 00429110 f i GhostAIGraph.obj
 0001:00028140       ??1CGhostAIGraph@@UAE@XZ   00429140 f   GhostAIGraph.obj
 0001:00028310       ?GetMessageMap@CGhostAIGraph@@MBEPBUAFX_MSGMAP@@XZ 00429310 f   GhostAIGraph.obj
 0001:00028320       ?OnCreate@CGhostAIGraph@@IAEHPAUtagCREATESTRUCTA@@@Z 00429320 f   GhostAIGraph.obj
 0001:000285c0       ?UpdateShioriAIInfo@CGhostAIGraph@@AAEXXZ 004295c0 f   GhostAIGraph.obj
 0001:00029060       ?OnTimer@CGhostAIGraph@@IAEXI@Z 0042a060 f   GhostAIGraph.obj
 0001:000290d0       ?OnDestroy@CGhostAIGraph@@IAEXXZ 0042a0d0 f   GhostAIGraph.obj
 0001:000291f0       ?GetHitTestID@CGhostAIGraph@@AAEKXZ 0042a1f0 f   GhostAIGraph.obj
 0001:000292b0       ?OnLButtonUp@CGhostAIGraph@@IAEXIVCPoint@@@Z 0042a2b0 f   GhostAIGraph.obj
 0001:000292d0       ?OnPaint@CGhostAIGraph@@IAEXXZ 0042a2d0 f   GhostAIGraph.obj
 0001:000293b0       ?CreateMe@CGhostAIGraph@@QAEHPAVCWnd@@PAVCSakuraWnd@@@Z 0042a3b0 f   GhostAIGraph.obj
 0001:000297c0       ??1SPFindFileW@@QAE@XZ     0042a7c0 f i GhostAIGraph.obj
 0001:00029810       ?DrawBackBuffer@CGhostAIGraph@@AAEXXZ 0042a810 f   GhostAIGraph.obj
 0001:0002a940       ??0CGdiObject@@QAE@XZ      0042b940 f i GhostAIGraph.obj
 0001:0002a950       ??1CPen@@UAE@XZ            0042b950 f i GhostAIGraph.obj
 0001:0002a990       ??1CBrush@@UAE@XZ          0042b990 f i GhostAIGraph.obj
 0001:0002aa40       ?WindowProc@CGhostAIGraph@@MAEJIIJ@Z 0042ba40 f   GhostAIGraph.obj
 0001:0002aad0       ?OnWindowPosChanged@CGhostAIGraph@@IAEXPAUtagWINDOWPOS@@@Z 0042bad0 f   GhostAIGraph.obj
 0001:0002ab10       ??0?$JArray@N@@QAE@K@Z     0042bb10 f i GhostAIGraph.obj
 0001:0002abb0       ??1CGhostAIGraphInfo@@QAE@XZ 0042bbb0 f i GhostAIGraph.obj
 0001:0002aca0       ?SwapBuffer@?$JArray@PAX@@QAEXAAV1@@Z 0042bca0 f i GhostAIGraph.obj
 0001:0002ae70       ?Realloc@?$JArray@VSPSerikoAnimationPlayPat@@@@QAE_NK@Z 0042be70 f i GhostAIGraph.obj
 0001:0002ae70       ?Realloc@?$JArray@UtagPOINT@@@@QAE_NK@Z 0042be70 f i GhostAIGraph.obj
 0001:0002ae70       ?Realloc@?$JArray@VSPSerikoRange@@@@QAE_NK@Z 0042be70 f i GhostAIGraph.obj
 0001:0002ae70       ?Realloc@?$JArray@U_TASKDIALOG_BUTTON@@@@QAE_NK@Z 0042be70 f i GhostAIGraph.obj
 0001:0002ae70       ?Realloc@?$JArray@VSPGhostBindBlockEntry@@@@QAE_NK@Z 0042be70 f i GhostAIGraph.obj
 0001:0002ae70       ?Realloc@?$JArray@VCSurfaceTestBaseList@@@@QAE_NK@Z 0042be70 f i GhostAIGraph.obj
 0001:0002ae70       ?Realloc@?$JArray@N@@QAE_NK@Z 0042be70 f i GhostAIGraph.obj
 0001:0002ae70       ?Realloc@?$JArray@VJPoint@@@@QAE_NK@Z 0042be70 f i GhostAIGraph.obj
 0001:0002af50       ??0CGhostATSoundDesc@@AAE@XZ 0042bf50 f   GhostAsyncTaskSound.obj
 0001:0002b060       ??1CGhostATSoundDesc@@AAE@XZ 0042c060 f   GhostAsyncTaskSound.obj
 0001:0002b0d0       ?Clear@CGhostATSoundDesc@@QAEXXZ 0042c0d0 f   GhostAsyncTaskSound.obj
 0001:0002b130       ?SetPreload@CGhostATSoundDesc@@QAEX_N@Z 0042c130 f   GhostAsyncTaskSound.obj
 0001:0002b290       ?SendCommand@CGhostATSoundDesc@@QAEKIK@Z 0042c290 f   GhostAsyncTaskSound.obj
 0001:0002b2b0       ?SendCommandWithParam@CGhostATSoundDesc@@QAEKIKPAX@Z 0042c2b0 f   GhostAsyncTaskSound.obj
 0001:0002ba60       ?SendCommand@CGhostATSoundImpl@@UAEKIIKK@Z 0042ca60 f i GhostAsyncTaskSound.obj
 0001:0002ba70       ??_ECGhostATSoundImpl@@UAEPAXI@Z 0042ca70 f i GhostAsyncTaskSound.obj
 0001:0002ba70       ??_GCGhostATSoundImpl@@UAEPAXI@Z 0042ca70 f i GhostAsyncTaskSound.obj
 0001:0002baa0       ?SendCommand@CGhostATSoundImplMCI@@UAEKIIKK@Z 0042caa0 f i GhostAsyncTaskSound.obj
 0001:0002bb00       ??_ECGhostATSoundImplMCI@@UAEPAXI@Z 0042cb00 f i GhostAsyncTaskSound.obj
 0001:0002bb00       ??_GCGhostATSoundImplMCI@@UAEPAXI@Z 0042cb00 f i GhostAsyncTaskSound.obj
 0001:0002bb30       ??1CGhostATSoundImplMCI@@UAE@XZ 0042cb30 f i GhostAsyncTaskSound.obj
 0001:0002bb30       ??1CGhostATSoundImpl@@UAE@XZ 0042cb30 f i GhostAsyncTaskSound.obj
 0001:0002bb40       ?ShowWindow@CGhostATSoundImplDShow@@UAEX_N@Z 0042cb40 f i GhostAsyncTaskSound.obj
 0001:0002bb60       ?SendCommand@CGhostATSoundImplDShow@@UAEKIIKK@Z 0042cb60 f i GhostAsyncTaskSound.obj
 0001:0002bbb0       ?SendCommandReal@CGhostATSoundImplDShow@@QAEKIIKK@Z 0042cbb0 f i GhostAsyncTaskSound.obj
 0001:0002bfb0       ?ReleaseAllFilters@CGhostATSoundImplDShow@@AAEXXZ 0042cfb0 f i GhostAsyncTaskSound.obj
 0001:0002c1a0       ?Open@CGhostATSoundImplDShow@@QAEKXZ 0042d1a0 f i GhostAsyncTaskSound.obj
 0001:0002d4f0       ??YJWString@@QAEAAV0@ABV0@@Z 0042e4f0 f i GhostAsyncTaskSound.obj
 0001:0002d510       ??YJWString@@QAEAAV0@PBG@Z 0042e510 f i GhostAsyncTaskSound.obj
 0001:0002d540       ??0JWString@@QAE@PBDH@Z    0042e540 f i GhostAsyncTaskSound.obj
 0001:0002d750       ?AddFilterDumpLog@CGhostATSoundImplDShow@@AAEXXZ 0042e750 f i GhostAsyncTaskSound.obj
 0001:0002d8c0       ?ReceiveNotification@CGhostATSoundImplDShow@@UAEXPAUHWND__@@@Z 0042e8c0 f i GhostAsyncTaskSound.obj
 0001:0002d960       ??_GCGhostATSoundImplDShow@@UAEPAXI@Z 0042e960 f i GhostAsyncTaskSound.obj
 0001:0002d960       ??_ECGhostATSoundImplDShow@@UAEPAXI@Z 0042e960 f i GhostAsyncTaskSound.obj
 0001:0002d990       ??1CGhostATSoundImplDShow@@UAE@XZ 0042e990 f i GhostAsyncTaskSound.obj
 0001:0002daf0       ?ReceiveNotificationDShow@CGhostATSoundDesc@@QAEXXZ 0042eaf0 f   GhostAsyncTaskSound.obj
 0001:0002db10       ?Release@?$_com_ptr_t_ssp@V?$_com_IIID_ssp@UIBasicAudio@@$1?_GUID_56a868b3_0ad4_11ce_b03a_0020af0ba770@@3U__s_GUID@@A@@@@QAEKXZ 0042eb10 f i GhostAsyncTaskSound.obj
 0001:0002db10       ?Release@?$_com_ptr_t_ssp@V?$_com_IIID_ssp@UIMFVideoDisplayControl@@$1?_GUID_a490b1e4_ab84_4d31_a1b2_181e03b1077a@@3U__s_GUID@@A@@@@QAEKXZ 0042eb10 f i GhostAsyncTaskSound.obj
 0001:0002db10       ?Release@?$_com_ptr_t_ssp@V?$_com_IIID_ssp@UIMediaEventEx@@$1?_GUID_56a868c0_0ad4_11ce_b03a_0020af0ba770@@3U__s_GUID@@A@@@@QAEKXZ 0042eb10 f i GhostAsyncTaskSound.obj
 0001:0002db10       ?Release@?$_com_ptr_t_ssp@V?$_com_IIID_ssp@UIGraphBuilder@@$1?_GUID_56a868a9_0ad4_11ce_b03a_0020af0ba770@@3U__s_GUID@@A@@@@QAEKXZ 0042eb10 f i GhostAsyncTaskSound.obj
 0001:0002db10       ?Release@?$_com_ptr_t_ssp@V?$_com_IIID_ssp@UIVideoWindow@@$1?_GUID_56a868b4_0ad4_11ce_b03a_0020af0ba770@@3U__s_GUID@@A@@@@QAEKXZ 0042eb10 f i GhostAsyncTaskSound.obj
 0001:0002db10       ?Release@?$_com_ptr_t_ssp@V?$_com_IIID_ssp@UIMediaSeeking@@$1?_GUID_36b73880_c2c8_11cf_8b46_00805f6cef60@@3U__s_GUID@@A@@@@QAEKXZ 0042eb10 f i GhostAsyncTaskSound.obj
 0001:0002db10       ?Release@?$_com_ptr_t_ssp@V?$_com_IIID_ssp@UIMediaControl@@$1?_GUID_56a868b1_0ad4_11ce_b03a_0020af0ba770@@3U__s_GUID@@A@@@@QAEKXZ 0042eb10 f i GhostAsyncTaskSound.obj
 0001:0002db40       ??4?$_com_ptr_t_ssp@V?$_com_IIID_ssp@UIBasicAudio@@$1?_GUID_56a868b3_0ad4_11ce_b03a_0020af0ba770@@3U__s_GUID@@A@@@@QAEAAV0@H@Z 0042eb40 f i GhostAsyncTaskSound.obj
 0001:0002db40       ??4?$_com_ptr_t_ssp@V?$_com_IIID_ssp@UIVideoWindow@@$1?_GUID_56a868b4_0ad4_11ce_b03a_0020af0ba770@@3U__s_GUID@@A@@@@QAEAAV0@H@Z 0042eb40 f i GhostAsyncTaskSound.obj
 0001:0002db70       ??4?$_com_ptr_t_ssp@V?$_com_IIID_ssp@UIMediaEventEx@@$1?_GUID_56a868c0_0ad4_11ce_b03a_0020af0ba770@@3U__s_GUID@@A@@@@QAEAAV0@PAUIMediaEventEx@@@Z 0042eb70 f i GhostAsyncTaskSound.obj
 0001:0002db70       ??4?$_com_ptr_t_ssp@V?$_com_IIID_ssp@UIBaseFilter@@$1?_GUID_56a86895_0ad4_11ce_b03a_0020af0ba770@@3U__s_GUID@@A@@@@QAEAAV0@PAUIBaseFilter@@@Z 0042eb70 f i GhostAsyncTaskSound.obj
 0001:0002db70       ??4?$_com_ptr_t_ssp@V?$_com_IIID_ssp@UIGraphBuilder@@$1?_GUID_56a868a9_0ad4_11ce_b03a_0020af0ba770@@3U__s_GUID@@A@@@@QAEAAV0@PAUIGraphBuilder@@@Z 0042eb70 f i GhostAsyncTaskSound.obj
 0001:0002db70       ??4?$_com_ptr_t_ssp@V?$_com_IIID_ssp@UIMediaSeeking@@$1?_GUID_36b73880_c2c8_11cf_8b46_00805f6cef60@@3U__s_GUID@@A@@@@QAEAAV0@PAUIMediaSeeking@@@Z 0042eb70 f i GhostAsyncTaskSound.obj
 0001:0002db70       ??4?$_com_ptr_t_ssp@V?$_com_IIID_ssp@UIMediaControl@@$1?_GUID_56a868b1_0ad4_11ce_b03a_0020af0ba770@@3U__s_GUID@@A@@@@QAEAAV0@PAUIMediaControl@@@Z 0042eb70 f i GhostAsyncTaskSound.obj
 0001:0002dba0       ?Delete@?$JArray@PAX@@QAEXJJ@Z 0042eba0 f i GhostAsyncTaskSound.obj
 0001:0002dc20       ?_QueryInterface@?$_com_ptr_t_ssp@V?$_com_IIID_ssp@UIMediaControl@@$1?_GUID_56a868b1_0ad4_11ce_b03a_0020af0ba770@@3U__s_GUID@@A@@@@AAEJABV?$_com_ptr_t_ssp@V?$_com_IIID_ssp@UIGraphBuilder@@$1?_GUID_56a868a9_0ad4_11ce_b03a_0020af0ba770@@3U__s_GUID@@A@@@@@Z 0042ec20 f i GhostAsyncTaskSound.obj
 0001:0002dca0       ?_QueryInterface@?$_com_ptr_t_ssp@V?$_com_IIID_ssp@UIMediaEventEx@@$1?_GUID_56a868c0_0ad4_11ce_b03a_0020af0ba770@@3U__s_GUID@@A@@@@AAEJABV?$_com_ptr_t_ssp@V?$_com_IIID_ssp@UIGraphBuilder@@$1?_GUID_56a868a9_0ad4_11ce_b03a_0020af0ba770@@3U__s_GUID@@A@@@@@Z 0042eca0 f i GhostAsyncTaskSound.obj
 0001:0002dd20       ?_QueryInterface@?$_com_ptr_t_ssp@V?$_com_IIID_ssp@UIMediaSeeking@@$1?_GUID_36b73880_c2c8_11cf_8b46_00805f6cef60@@3U__s_GUID@@A@@@@AAEJABV?$_com_ptr_t_ssp@V?$_com_IIID_ssp@UIGraphBuilder@@$1?_GUID_56a868a9_0ad4_11ce_b03a_0020af0ba770@@3U__s_GUID@@A@@@@@Z 0042ed20 f i GhostAsyncTaskSound.obj
 0001:0002dda0       ?_QueryInterface@?$_com_ptr_t_ssp@V?$_com_IIID_ssp@UIFileSourceFilter@@$1?_GUID_56a868a6_0ad4_11ce_b03a_0020af0ba770@@3U__s_GUID@@A@@@@AAEJABV?$_com_ptr_t_ssp@V?$_com_IIID_ssp@UIBaseFilter@@$1?_GUID_56a86895_0ad4_11ce_b03a_0020af0ba770@@3U__s_GUID@@A@@@@@Z 0042eda0 f i GhostAsyncTaskSound.obj
 0001:0002de20       ?_QueryInterface@?$_com_ptr_t_ssp@V?$_com_IIID_ssp@UIFilterGraph2@@$1?_GUID_36b73882_c2c8_11cf_8b46_00805f6cef60@@3U__s_GUID@@A@@@@AAEJABV?$_com_ptr_t_ssp@V?$_com_IIID_ssp@UIGraphBuilder@@$1?_GUID_56a868a9_0ad4_11ce_b03a_0020af0ba770@@3U__s_GUID@@A@@@@@Z 0042ee20 f i GhostAsyncTaskSound.obj
 0001:0002dea0       ?_QueryInterface@?$_com_ptr_t_ssp@V?$_com_IIID_ssp@UIBasicAudio@@$1?_GUID_56a868b3_0ad4_11ce_b03a_0020af0ba770@@3U__s_GUID@@A@@@@AAEJABV?$_com_ptr_t_ssp@V?$_com_IIID_ssp@UIGraphBuilder@@$1?_GUID_56a868a9_0ad4_11ce_b03a_0020af0ba770@@3U__s_GUID@@A@@@@@Z 0042eea0 f i GhostAsyncTaskSound.obj
 0001:0002df20       ?QueryInterface@?$_com_ptr_t_ssp@V?$_com_IIID_ssp@UIGraphBuilder@@$1?_GUID_56a868a9_0ad4_11ce_b03a_0020af0ba770@@3U__s_GUID@@A@@@@QAEJABU_GUID@@AAPAX@Z 0042ef20 f i GhostAsyncTaskSound.obj
 0001:0002df50       ?CreateObject@CGhostAsyncTaskThread@@SGPAVCObject@@XZ 0042ef50 f   GhostAsyncTaskThread.obj
 0001:0002dfb0       ?GetRuntimeClass@CGhostAsyncTaskThread@@UBEPAUCRuntimeClass@@XZ 0042efb0 f   GhostAsyncTaskThread.obj
 0001:0002dfc0       ??0CGhostAsyncTaskThread@@QAE@XZ 0042efc0 f   GhostAsyncTaskThread.obj
 0001:0002e020       ??_GCGhostAsyncTaskThread@@UAEPAXI@Z 0042f020 f i GhostAsyncTaskThread.obj
 0001:0002e020       ??_ECGhostAsyncTaskThread@@UAEPAXI@Z 0042f020 f i GhostAsyncTaskThread.obj
 0001:0002e050       ??1CGhostAsyncTaskThread@@UAE@XZ 0042f050 f   GhostAsyncTaskThread.obj
 0001:0002e0b0       ?InitInstance@CGhostAsyncTaskThread@@UAEHXZ 0042f0b0 f   GhostAsyncTaskThread.obj
 0001:0002e1d0       ?GetMessageMap@CGhostAsyncTaskThread@@MBEPBUAFX_MSGMAP@@XZ 0042f1d0 f   GhostAsyncTaskThread.obj
 0001:0002e1e0       ??1?$CWinThreadAdapter@VCWinThread@@@@UAE@XZ 0042f1e0 f i GhostAsyncTaskThread.obj
 0001:0002e1f0       ??_E?$CWinThreadAdapter@VCWinThread@@@@UAEPAXI@Z 0042f1f0 f i GhostAsyncTaskThread.obj
 0001:0002e1f0       ??_G?$CWinThreadAdapter@VCWinThread@@@@UAEPAXI@Z 0042f1f0 f i GhostAsyncTaskThread.obj
 0001:0002e220       ??0CGhostAsyncTaskWnd@@QAE@XZ 0042f220 f   GhostAsyncTaskWnd.obj
 0001:0002e280       ??_ECGhostAsyncTaskWnd@@UAEPAXI@Z 0042f280 f i GhostAsyncTaskWnd.obj
 0001:0002e280       ??_GCGhostAsyncTaskWnd@@UAEPAXI@Z 0042f280 f i GhostAsyncTaskWnd.obj
 0001:0002e2b0       ??1CGhostAsyncTaskWnd@@UAE@XZ 0042f2b0 f   GhostAsyncTaskWnd.obj
 0001:0002e310       ?GetMessageMap@CGhostAsyncTaskWnd@@MBEPBUAFX_MSGMAP@@XZ 0042f310 f   GhostAsyncTaskWnd.obj
 0001:0002e320       ?OnCreate@CGhostAsyncTaskWnd@@IAEHPAUtagCREATESTRUCTA@@@Z 0042f320 f   GhostAsyncTaskWnd.obj
 0001:0002e360       ?OnClose@CGhostAsyncTaskWnd@@IAEXXZ 0042f360 f   GhostAsyncTaskWnd.obj
 0001:0002e3c0       ?FindDevNameFromFile@CGhostAsyncTaskWnd@@AAEXPAGPAPBD@Z 0042f3c0 f   GhostAsyncTaskWnd.obj
 0001:0002e420       ?MCIPlayFile@CGhostAsyncTaskWnd@@AAEHPAVCGhostATSoundDesc@@@Z 0042f420 f   GhostAsyncTaskWnd.obj
 0001:0002e480       ?MCILoadFile@CGhostAsyncTaskWnd@@AAEHPAVCGhostATSoundDesc@@@Z 0042f480 f   GhostAsyncTaskWnd.obj
 0001:0002e690       ?MCINotifyError@CGhostAsyncTaskWnd@@AAEXPAGKPAVCGhostATSoundDesc@@@Z 0042f690 f   GhostAsyncTaskWnd.obj
 0001:0002e7b0       ?OnMCIExecute@CGhostAsyncTaskWnd@@IAEJIJ@Z 0042f7b0 f   GhostAsyncTaskWnd.obj
 0001:0002e800       ??1SPSoundParam@@QAE@XZ    0042f800 f i GhostAsyncTaskWnd.obj
 0001:0002e850       ?MCIFindPlaying@CGhostAsyncTaskWnd@@AAEPAVCGhostATSoundDesc@@PBG@Z 0042f850 f   GhostAsyncTaskWnd.obj
 0001:0002e8a0       ?MCIFindPreload@CGhostAsyncTaskWnd@@AAEPAVCGhostATSoundDesc@@PBG@Z 0042f8a0 f   GhostAsyncTaskWnd.obj
 0001:0002e8f0       ?MCIFindPlayingOrPreload@CGhostAsyncTaskWnd@@AAEPAVCGhostATSoundDesc@@PBG@Z 0042f8f0 f   GhostAsyncTaskWnd.obj
 0001:0002e920       ?MCIFindPreloadOrNew@CGhostAsyncTaskWnd@@AAEPAVCGhostATSoundDesc@@KPBG@Z 0042f920 f   GhostAsyncTaskWnd.obj
 0001:0002e9d0       ?OnMCIExecuteReal@CGhostAsyncTaskWnd@@AAEJGGPAVSPSoundParam@@@Z 0042f9d0 f   GhostAsyncTaskWnd.obj
 0001:0002eed0       ??0JWString@@QAE@ABV0@@Z   0042fed0 f i GhostAsyncTaskWnd.obj
 0001:0002ef20       ?OnMCIExecuteProcessOption@CGhostAsyncTaskWnd@@AAEXPAVCGhostATSoundDesc@@VJWString@@_N@Z 0042ff20 f   GhostAsyncTaskWnd.obj
 0001:0002f1c0       ?OnDShowNotify@CGhostAsyncTaskWnd@@IAEJIJ@Z 004301c0 f   GhostAsyncTaskWnd.obj
 0001:0002f230       ?OnMCINotify@CGhostAsyncTaskWnd@@IAEJIJ@Z 00430230 f   GhostAsyncTaskWnd.obj
 0001:0002f3f0       ?MCIStopAll@CGhostAsyncTaskWnd@@AAEXXZ 004303f0 f   GhostAsyncTaskWnd.obj
 0001:0002f420       ?MCIPlayCDTrack@CGhostAsyncTaskWnd@@AAEHPAVCGhostATSoundDesc@@I@Z 00430420 f   GhostAsyncTaskWnd.obj
 0001:0002f500       ?MCIDoAllPlaying@CGhostAsyncTaskWnd@@AAEXI@Z 00430500 f   GhostAsyncTaskWnd.obj
 0001:0002f570       ?MCIDoAllPreload@CGhostAsyncTaskWnd@@AAEXI@Z 00430570 f   GhostAsyncTaskWnd.obj
 0001:0002f5b0       ??0CGhostATSoundWnd@@QAE@PAVCWnd@@@Z 004305b0 f   GhostATSoundWnd.obj
 0001:0002f660       ??_ECGhostATSoundWnd@@UAEPAXI@Z 00430660 f i GhostATSoundWnd.obj
 0001:0002f660       ??_GCGhostATSoundWnd@@UAEPAXI@Z 00430660 f i GhostATSoundWnd.obj
 0001:0002f690       ??1CGhostATSoundWnd@@UAE@XZ 00430690 f i GhostATSoundWnd.obj
 0001:0002f710       ?GetMessageMap@CGhostATSoundWnd@@MBEPBUAFX_MSGMAP@@XZ 00430710 f   GhostATSoundWnd.obj
 0001:0002f720       ?OnCreate@CGhostATSoundWnd@@IAEHPAUtagCREATESTRUCTA@@@Z 00430720 f   GhostATSoundWnd.obj
 0001:0002f730       ?OnInitDialog@CGhostATSoundWnd@@MAEHXZ 00430730 f   GhostATSoundWnd.obj
 0001:0002fb40       ?OnClose@CGhostATSoundWnd@@IAEXXZ 00430b40 f   GhostATSoundWnd.obj
 0001:0002fb70       ?OnDestroy@CGhostATSoundWnd@@IAEXXZ 00430b70 f   GhostATSoundWnd.obj
 0001:0002fbd0       ?OnSize@CGhostATSoundWnd@@IAEXIHH@Z 00430bd0 f   GhostATSoundWnd.obj
 0001:0002fcb0       ?OnPlay@CGhostATSoundWnd@@IAEXXZ 00430cb0 f   GhostATSoundWnd.obj
 0001:0002fce0       ?OnPause@CGhostATSoundWnd@@IAEXXZ 00430ce0 f   GhostATSoundWnd.obj
 0001:0002fd10       ?OnStop@CGhostATSoundWnd@@IAEXXZ 00430d10 f   GhostATSoundWnd.obj
 0001:0002fd40       ?ModifyTemplate@CGhostATSoundWnd@@MAEXPAVSPDlgTemplate@@@Z 00430d40 f   GhostATSoundWnd.obj
 0001:0002fd60       ?CreateMe@CGhostATSoundWnd@@QAEXPAVCGhostATSoundDesc@@PAUIVideoWindow@@PAUIMFVideoDisplayControl@@PAUIMediaSeeking@@@Z 00430d60 f   GhostATSoundWnd.obj
 0001:0002fdc0       ?UpdateButtonState@CGhostATSoundWnd@@QAEXXZ 00430dc0 f   GhostATSoundWnd.obj
 0001:0002fe70       ?OnTimer@CGhostATSoundWnd@@IAEXI@Z 00430e70 f   GhostATSoundWnd.obj
 0001:0002fea0       ?UpdatePos@CGhostATSoundWnd@@QAEXXZ 00430ea0 f   GhostATSoundWnd.obj
 0001:0002ff10       ?ShowForegroundWindow@CGhostATSoundWnd@@QAEX_N@Z 00430f10 f   GhostATSoundWnd.obj
 0001:0002ff60       ?OnSoundUpdate@CGhostATSoundWnd@@IAEJIJ@Z 00430f60 f   GhostATSoundWnd.obj
 0001:0002ff90       ?OnTrackBar@CGhostATSoundWnd@@IAEXII@Z 00430f90 f   GhostATSoundWnd.obj
 0001:00030110       ?OnHScroll@CGhostATSoundWnd@@IAEXIIPAVCScrollBar@@@Z 00431110 f   GhostATSoundWnd.obj
 0001:00030150       ?OnShowWindow@CGhostATSoundWnd@@IAEXHI@Z 00431150 f   GhostATSoundWnd.obj
 0001:00030180       ?OnGetMinMaxInfo@CGhostATSoundWnd@@IAEXPAUtagMINMAXINFO@@@Z 00431180 f   GhostATSoundWnd.obj
 0001:00030200       ??0CGhostDlg@@QAE@PAVCWnd@@@Z 00431200 f   GhostDlg.obj
 0001:00030270       ??_ECGhostDlg@@UAEPAXI@Z   00431270 f i GhostDlg.obj
 0001:00030270       ??_GCGhostDlg@@UAEPAXI@Z   00431270 f i GhostDlg.obj
 0001:000302a0       ??1CGhostDlg@@UAE@XZ       004312a0 f i GhostDlg.obj
 0001:00030300       ?DoDataExchange@CGhostDlg@@MAEXPAVCDataExchange@@@Z 00431300 f   GhostDlg.obj
 0001:00030320       ?GetMessageMap@CGhostDlg@@MBEPBUAFX_MSGMAP@@XZ 00431320 f   GhostDlg.obj
 0001:00030330       ?OnInitDialog@CGhostDlg@@MAEHXZ 00431330 f   GhostDlg.obj
 0001:00030750       ?OnCacheEnable@CGhostDlg@@IAEXXZ 00431750 f   GhostDlg.obj
 0001:000307b0       ?OnCacheListEnable@CGhostDlg@@IAEXXZ 004317b0 f   GhostDlg.obj
 0001:00030810       ?OnChangeCacheDuration@CGhostDlg@@IAEXXZ 00431810 f   GhostDlg.obj
 0001:00030860       ?OnChangeCacheNum@CGhostDlg@@IAEXXZ 00431860 f   GhostDlg.obj
 0001:000308b0       ?UpdateEnabled@CGhostDlg@@IAEXXZ 004318b0 f   GhostDlg.obj
 0001:00030990       ?OnRandomGhostBoot@CGhostDlg@@IAEXXZ 00431990 f   GhostDlg.obj
 0001:000309c0       ?OnSelectGhostBoot@CGhostDlg@@IAEXXZ 004319c0 f   GhostDlg.obj
 0001:000309f0       ?OnNoMenuModify@CGhostDlg@@IAEXXZ 004319f0 f   GhostDlg.obj
 0001:00030a60       ?OnAutoChangeEnable@CGhostDlg@@IAEXXZ 00431a60 f   GhostDlg.obj
 0001:00030ac0       ?OnAutoChangeRadio@CGhostDlg@@IAEXXZ 00431ac0 f   GhostDlg.obj
 0001:00030b00       ?OnChangeAutoChangeDuration@CGhostDlg@@IAEXXZ 00431b00 f   GhostDlg.obj
 0001:00030b50       ?OnNoTalkMinimize@CGhostDlg@@IAEXXZ 00431b50 f   GhostDlg.obj
 0001:00030ba0       ?OnSelchangeUpdatecheckMethod@CGhostDlg@@IAEXXZ 00431ba0 f   GhostDlg.obj
 0001:00030bd0       ?OnSelchangeStrictUpdateKey@CGhostDlg@@IAEXXZ 00431bd0 f   GhostDlg.obj
 0001:00030c00       ?OnStrictUpdate@CGhostDlg@@IAEXXZ 00431c00 f   GhostDlg.obj
 0001:00030c50       ?OnMikire@CGhostDlg@@IAEXXZ 00431c50 f   GhostDlg.obj
 0001:00030ca0       ?OnKasanari@CGhostDlg@@IAEXXZ 00431ca0 f   GhostDlg.obj
 0001:00030cf0       ?OnUpdateCheckOther@CGhostDlg@@IAEXXZ 00431cf0 f   GhostDlg.obj
 0001:00030d20       ?OnDestroy@CNetworkDlg@@IAEXXZ 00431d20 f   GhostDlg.obj
 0001:00030d20       ?OnDestroy@CGhostDlg@@IAEXXZ 00431d20 f   GhostDlg.obj
 0001:00030d20       ?OnDestroy@CExtAppDlg@@IAEXXZ 00431d20 f   GhostDlg.obj
 0001:00030d20       ?OnDestroy@CTalkDlg@@IAEXXZ 00431d20 f   GhostDlg.obj
 0001:00030d20       ?OnDestroy@CMessengerSettingDlg@@IAEXXZ 00431d20 f   GhostDlg.obj
 0001:00030d30       ?OnAutoUpdateEnable@CGhostDlg@@IAEXXZ 00431d30 f   GhostDlg.obj
 0001:00030d90       ?OnChangeAutoUpdateDuration@CGhostDlg@@IAEXXZ 00431d90 f   GhostDlg.obj
 0001:00030df0       ?OnSelchangeAltMidClickKey@CGhostDlg@@IAEXXZ 00431df0 f   GhostDlg.obj
 0001:00030e30       ?OnAltMidClick@CGhostDlg@@IAEXXZ 00431e30 f   GhostDlg.obj
 0001:00030ea0       ??0CGhostExtDlg@@QAE@PAVCWnd@@@Z 00431ea0 f   GhostExtDlg.obj
 0001:00030f20       ??_GCProgressCtrl@@UAEPAXI@Z 00431f20 f i GhostExtDlg.obj
 0001:00030f20       ??_ECProgressCtrl@@UAEPAXI@Z 00431f20 f i GhostExtDlg.obj
 0001:00030f50       ??_ECGhostExtDlg@@UAEPAXI@Z 00431f50 f i GhostExtDlg.obj
 0001:00030f50       ??_GCGhostExtDlg@@UAEPAXI@Z 00431f50 f i GhostExtDlg.obj
 0001:00030f80       ??1CGhostExtDlg@@UAE@XZ    00431f80 f i GhostExtDlg.obj
 0001:00030fe0       ?DoDataExchange@CGhostExtDlg@@MAEXPAVCDataExchange@@@Z 00431fe0 f   GhostExtDlg.obj
 0001:00031000       ?GetMessageMap@CGhostExtDlg@@MBEPBUAFX_MSGMAP@@XZ 00432000 f   GhostExtDlg.obj
 0001:00031010       ?OnInitDialog@CGhostExtDlg@@MAEHXZ 00432010 f   GhostExtDlg.obj
 0001:000312e0       ?OnDestroy@CGhostExtDlg@@IAEXXZ 004322e0 f   GhostExtDlg.obj
 0001:00031320       ?CreateMe@CGhostExtDlg@@QAEXPAVCWnd@@PAVSPGhost@@@Z 00432320 f   GhostExtDlg.obj
 0001:00031690       ?UpdateControlState@CGhostExtDlg@@QAEXXZ 00432690 f   GhostExtDlg.obj
 0001:00031910       ?SPS_AddValueBool@CGhostExtDlg@@AAE_NPBDH_N@Z 00432910 f   GhostExtDlg.obj
 0001:000319d0       ?SPS_AddValueW@CGhostExtDlg@@AAE_NPBDPBG@Z 004329d0 f   GhostExtDlg.obj
 0001:00031a40       ?SPS_GetValueBool@CGhostExtDlg@@ABEHPBDH_N@Z 00432a40 f   GhostExtDlg.obj
 0001:00031af0       ?SPS_GetValueW@CGhostExtDlg@@ABEPAGPBDPAG@Z 00432af0 f   GhostExtDlg.obj
 0001:00031b60       ?SPS_Save@CGhostExtDlg@@AAE_NXZ 00432b60 f   GhostExtDlg.obj
 0001:00031b90       ?OnReset@CGhostExtDlg@@IAEXXZ 00432b90 f   GhostExtDlg.obj
 0001:00031bc0       ?ThreadProc@CGhostExtDlg@@QAEXXZ 00432bc0 f   GhostExtDlg.obj
 0001:00032210       ??0JString@@QAE@XZ         00433210 f i GhostExtDlg.obj
 0001:000322c0       ??1SPSettings@@QAE@XZ      004332c0 f i GhostExtDlg.obj
 0001:000323e0       ?OnTopmost@CGhostExtDlg@@IAEXXZ 004333e0 f   GhostExtDlg.obj
 0001:00032410       ?OnIgnoreMove@CGhostExtDlg@@IAEXXZ 00433410 f   GhostExtDlg.obj
 0001:00032440       ?OnSound@CGhostExtDlg@@IAEXXZ 00433440 f   GhostExtDlg.obj
 0001:00032470       ?OnBalloonmove@CGhostExtDlg@@IAEXXZ 00433470 f   GhostExtDlg.obj
 0001:000324a0       ?OnForceAlignRadio@CGhostExtDlg@@IAEXXZ 004334a0 f   GhostExtDlg.obj
 0001:00032510       ?OnDeactivate@CGhostExtDlg@@IAEXXZ 00433510 f   GhostExtDlg.obj
 0001:00032540       ?OnActivate@CGhostExtDlg@@IAEXXZ 00433540 f   GhostExtDlg.obj
 0001:000325b0       ?OnDefinedSurfaceOnly@CGhostExtDlg@@IAEXXZ 004335b0 f   GhostExtDlg.obj
 0001:000325e0       ?OnShowHiddenElements@CGhostExtDlg@@IAEXXZ 004335e0 f   GhostExtDlg.obj
 0001:00032610       ?OnScalingBalloon@CGhostExtDlg@@IAEXXZ 00433610 f   GhostExtDlg.obj
 0001:00032660       ?OnScalingDither@CGhostExtDlg@@IAEXXZ 00433660 f   GhostExtDlg.obj
 0001:00032690       ?OnScalingDitherBalloon@CGhostExtDlg@@IAEXXZ 00433690 f   GhostExtDlg.obj
 0001:000326c0       ?OnScalingButton@CGhostExtDlg@@IAEXXZ 004336c0 f   GhostExtDlg.obj
 0001:00032750       ??1CScalingDlg@@UAE@XZ     00433750 f i GhostExtDlg.obj
 0001:000327b0       ?OnBalloonScalingButton@CGhostExtDlg@@IAEXXZ 004337b0 f   GhostExtDlg.obj
 0001:00032840       ?OnOK@CGhostExtDlg@@MAEXXZ 00433840 f   GhostExtDlg.obj
 0001:00032840       ?OnCancel@CGhostExtDlg@@MAEXXZ 00433840 f   GhostExtDlg.obj
 0001:00032860       ?OnResetGhost@CGhostExtDlg@@IAEXXZ 00433860 f   GhostExtDlg.obj
 0001:000328e0       ?OnApplyGhost@CGhostExtDlg@@IAEXXZ 004338e0 f   GhostExtDlg.obj
 0001:000329b0       ?OnShowDefaultGhostProp@CGhostExtDlg@@IAEXXZ 004339b0 f   GhostExtDlg.obj
 0001:000329e0       ??0?$JPtrArray@PAVSPDlgTemplateItem@@@@QAE@J@Z 004339e0 f i GhostExtDlg.obj
 0001:00032a40       ??_G?$JHashData@D@@QAEPAXI@Z 00433a40 f i GhostExtDlg.obj
 0001:00032a90       ?Copy@?$JArray@G@@QAE_NPBGK@Z 00433a90 f i GhostExtDlg.obj
 0001:00032c30       ??0CGhostHelperWnd@@QAE@XZ 00433c30 f   GhostHelperWnd.obj
 0001:00032c70       ??_GCGhostHelperWnd@@UAEPAXI@Z 00433c70 f i GhostHelperWnd.obj
 0001:00032c70       ??_ECGhostHelperWnd@@UAEPAXI@Z 00433c70 f i GhostHelperWnd.obj
 0001:00032ca0       ??1CGhostHelperWnd@@UAE@XZ 00433ca0 f   GhostHelperWnd.obj
 0001:00032ce0       ?GetMessageMap@CGhostHelperWnd@@MBEPBUAFX_MSGMAP@@XZ 00433ce0 f   GhostHelperWnd.obj
 0001:00032cf0       ?OnSSPSysMsg@CGhostHelperWnd@@IAEJIJ@Z 00433cf0 f   GhostHelperWnd.obj
 0001:00032d80       ?ResetSelfWndPos@CGhostHelperWnd@@AAEXXZ 00433d80 f   GhostHelperWnd.obj
 0001:00032dc0       ?GetSelfWndPos@CGhostHelperWnd@@AAE?AVJPoint@@_N@Z 00433dc0 f   GhostHelperWnd.obj
 0001:00032e50       ?ShowHideAll@CGhostHelperWnd@@AAEXJ@Z 00433e50 f   GhostHelperWnd.obj
 0001:00033080       ?OnDWMSendIconicThumbnail@CGhostHelperWnd@@IAEJIJ@Z 00434080 f   GhostHelperWnd.obj
 0001:000330f0       ?OnDWMSendIconicLivePreviewBitmap@CGhostHelperWnd@@IAEJIJ@Z 004340f0 f   GhostHelperWnd.obj
 0001:00033130       ?OnDestroy@CGhostHelperWnd@@IAEXXZ 00434130 f   GhostHelperWnd.obj
 0001:00033150       ?OnWindowPosChanged@CGhostHelperWnd@@IAEXPAUtagWINDOWPOS@@@Z 00434150 f   GhostHelperWnd.obj
 0001:000331f0       ?OnClose@CGhostHelperWnd@@IAEXXZ 004341f0 f   GhostHelperWnd.obj
 0001:00033210       ?CreateMe@CGhostHelperWnd@@QAE_NXZ 00434210 f   GhostHelperWnd.obj
 0001:000332f0       ?OnCreate@CGhostHelperWnd@@IAEHPAUtagCREATESTRUCTA@@@Z 004342f0 f   GhostHelperWnd.obj
 0001:00033390       ?ShowOnTaskbar@CGhostHelperWnd@@QAEX_N@Z 00434390 f   GhostHelperWnd.obj
 0001:000333f0       ?SetTopMost@CGhostHelperWnd@@QAEX_N@Z 004343f0 f   GhostHelperWnd.obj
 0001:00033420       ?WindowProc@CGhostHelperWnd@@MAEJIIJ@Z 00434420 f   GhostHelperWnd.obj
 0001:00033490       ?Delete@?$SPCacheObj@VSPGhostRaiseBlock@@VJDummyLockSection@@VJDummyLock@@@@QAEXPAVSPGhostRaiseBlock@@@Z 00434490 f i GhostHelperWnd.obj
 0001:000335e0       ??0CGhostProfile@@QAE@PAVCWnd@@@Z 004345e0 f   GhostProfile.obj
 0001:00033690       ??_GCGhostProfile@@UAEPAXI@Z 00434690 f i GhostProfile.obj
 0001:00033690       ??_ECGhostProfile@@UAEPAXI@Z 00434690 f i GhostProfile.obj
 0001:000336c0       ??1CGhostProfile@@UAE@XZ   004346c0 f   GhostProfile.obj
 0001:000337c0       ?DoDataExchange@CGhostProfile@@MAEXPAVCDataExchange@@@Z 004347c0 f   GhostProfile.obj
 0001:000337e0       ?GetMessageMap@CGhostProfile@@MBEPBUAFX_MSGMAP@@XZ 004347e0 f   GhostProfile.obj
 0001:000337f0       ?OnInitDialog@CGhostProfile@@MAEHXZ 004347f0 f   GhostProfile.obj
 0001:00033990       ?InitData@CGhostProfile@@AAEXXZ 00434990 f   GhostProfile.obj
 0001:00033ac0       ?OnOK@CGhostProfile@@MAEXXZ 00434ac0 f   GhostProfile.obj
 0001:00033ac0       ?OnCancel@CGhostProfile@@MAEXXZ 00434ac0 f   GhostProfile.obj
 0001:00033ac0       ?OnClose@CGhostProfile@@IAEXXZ 00434ac0 f   GhostProfile.obj
 0001:00033ae0       ?SetGhost@CGhostProfile@@QAEHPAVSPGhost@@@Z 00434ae0 f   GhostProfile.obj
 0001:00033c80       ?SetPropA@CGhostProfile@@QAEHPAVSPProp@@@Z 00434c80 f   GhostProfile.obj
 0001:00033da0       ?LoadData@CGhostProfile@@AAEXH@Z 00434da0 f   GhostProfile.obj
 0001:00033fc0       ?LoadReadme@CGhostProfile@@AAEHAAVSPProp@@AAVJWString@@@Z 00434fc0 f   GhostProfile.obj
 0001:000343f0       ??1JMappedStream@@UAE@XZ   004353f0 f i GhostProfile.obj
 0001:00034450       ?Read@JMappedStream@@UAEEXZ 00435450 f i GhostProfile.obj
 0001:00034470       ?Length@JMappedStream@@UAEKXZ 00435470 f i GhostProfile.obj
 0001:00034480       ?Pos@JMappedStream@@UAEKXZ 00435480 f i GhostProfile.obj
 0001:00034490       ??_EJMappedStream@@UAEPAXI@Z 00435490 f i GhostProfile.obj
 0001:00034490       ??_GJMappedStream@@UAEPAXI@Z 00435490 f i GhostProfile.obj
 0001:000344c0       ?OnCraftmanURLClick@CGhostProfile@@IAEXXZ 004354c0 f   GhostProfile.obj
 0001:000345d0       ?OnSize@CGhostProfile@@IAEXIHH@Z 004355d0 f   GhostProfile.obj
 0001:00034610       ?WindowProc@CGhostProfile@@MAEJIIJ@Z 00435610 f   GhostProfile.obj
 0001:00034700       ?OnDestroy@CGhostProfile@@IAEXXZ 00435700 f   GhostProfile.obj
 0001:00034720       ?OnSelchangeProfileKind@CGhostProfile@@IAEXXZ 00435720 f   GhostProfile.obj
 0001:00034720       ?OnSelchangeProfileCharset@CGhostProfile@@IAEXXZ 00435720 f   GhostProfile.obj
 0001:00034740       ?CreateMe@CGhostProfile@@QAEXPAVCWnd@@@Z 00435740 f   GhostProfile.obj
 0001:00034750       ?PreTranslateMessage@CGhostProfile@@UAEHPAUtagMSG@@@Z 00435750 f   GhostProfile.obj
 0001:00034800       ??0CGhostTermsDlg@@QAE@PAVCWnd@@@Z 00435800 f   GhostTermsDlg.obj
 0001:00034950       ??_ECGhostTermsDlg@@UAEPAXI@Z 00435950 f i GhostTermsDlg.obj
 0001:00034950       ??_GCGhostTermsDlg@@UAEPAXI@Z 00435950 f i GhostTermsDlg.obj
 0001:00034980       ??1CGhostTermsDlg@@UAE@XZ  00435980 f i GhostTermsDlg.obj
 0001:00034a30       ?GetMessageMap@CGhostTermsDlg@@MBEPBUAFX_MSGMAP@@XZ 00435a30 f   GhostTermsDlg.obj
 0001:00034a40       ?OnInitDialog@CGhostTermsDlg@@MAEHXZ 00435a40 f   GhostTermsDlg.obj
 0001:00034bd0       ?OnShowWindow@CGhostTermsDlg@@IAEXHI@Z 00435bd0 f   GhostTermsDlg.obj
 0001:00034c10       ?OnDestroy@CGhostTermsDlg@@IAEXXZ 00435c10 f   GhostTermsDlg.obj
 0001:00034c30       ?SetText@CGhostTermsDlg@@QAEXPBVSPShowTermsInfo@@@Z 00435c30 f   GhostTermsDlg.obj
 0001:00034cb0       ?DoModalExt@CGhostTermsDlg@@QAEHPAVCWnd@@@Z 00435cb0 f   GhostTermsDlg.obj
 0001:00034d60       ?SetTextView@CGhostTermsDlg@@AAEXXZ 00435d60 f   GhostTermsDlg.obj
 0001:00034f50       ?OnSize@CGhostTermsDlg@@IAEXIHH@Z 00435f50 f   GhostTermsDlg.obj
 0001:00034f80       ?OnSelchangeProfileCharset@CGhostTermsDlg@@IAEXXZ 00435f80 f   GhostTermsDlg.obj
 0001:00034f90       ?OnSysCommand@CGhostTermsDlg@@IAEXIJ@Z 00435f90 f   GhostTermsDlg.obj
 0001:00034fb0       ?PreTranslateMessage@CGhostTermsDlg@@UAEHPAUtagMSG@@@Z 00435fb0 f   GhostTermsDlg.obj
 0001:00035020       ??0CGhostTimeWnd@@QAE@XZ   00436020 f   GhostTimeWnd.obj
 0001:00035130       ??_ECGhostTimeWnd@@UAEPAXI@Z 00436130 f i GhostTimeWnd.obj
 0001:00035130       ??_GCGhostTimeWnd@@UAEPAXI@Z 00436130 f i GhostTimeWnd.obj
 0001:00035160       ??1CGhostTimeWnd@@UAE@XZ   00436160 f   GhostTimeWnd.obj
 0001:00035260       ?GetMessageMap@CGhostTimeWnd@@MBEPBUAFX_MSGMAP@@XZ 00436260 f   GhostTimeWnd.obj
 0001:00035270       ?CreateMe@CGhostTimeWnd@@QAEHPAUHWND__@@@Z 00436270 f   GhostTimeWnd.obj
 0001:00035550       ?SetType@CGhostTimeWnd@@QAEXH@Z 00436550 f   GhostTimeWnd.obj
 0001:00035590       ?OnCreate@CGhostTimeWnd@@IAEHPAUtagCREATESTRUCTA@@@Z 00436590 f   GhostTimeWnd.obj
 0001:00035610       ?OnPaint@CGhostTimeWnd@@IAEXXZ 00436610 f   GhostTimeWnd.obj
 0001:00035690       ?DrawBackBuffer@CGhostTimeWnd@@AAEXXZ 00436690 f   GhostTimeWnd.obj
 0001:00036a60       ??_ECPen@@UAEPAXI@Z        00437a60 f i GhostTimeWnd.obj
 0001:00036a60       ??_GCPen@@UAEPAXI@Z        00437a60 f i GhostTimeWnd.obj
 0001:00036a90       ??1CSelectObjectHelper@@QAE@XZ 00437a90 f i GhostTimeWnd.obj
 0001:00036b20       ?SaveBackBuffer@CGhostTimeWnd@@AAEXXZ 00437b20 f   GhostTimeWnd.obj
 0001:00036c70       ?OnKeyDown@CGhostTimeWnd@@IAEXIII@Z 00437c70 f   GhostTimeWnd.obj
 0001:00036d50       ?WindowProc@CGhostTimeWnd@@MAEJIIJ@Z 00437d50 f   GhostTimeWnd.obj
 0001:00036df0       ?OnDestroy@CGhostTimeWnd@@IAEXXZ 00437df0 f   GhostTimeWnd.obj
 0001:00036e80       ??1SPSurface@@QAE@XZ       00437e80 f i GhostTimeWnd.obj
 0001:00036ef0       ?GetHitTestID@CGhostTimeWnd@@AAEKXZ 00437ef0 f   GhostTimeWnd.obj
 0001:00037010       ??0CMouseHitMap@@QAE@IJJJJ@Z 00438010 f i GhostTimeWnd.obj
 0001:00037060       ?AdjustRect@CGhostTimeWnd@@AAEXAAUtagRECT@@@Z 00438060 f   GhostTimeWnd.obj
 0001:00037090       ?GetMaxPage@CGhostTimeWnd@@AAEJXZ 00438090 f   GhostTimeWnd.obj
 0001:000370d0       ?MovePage@CGhostTimeWnd@@AAEXH@Z 004380d0 f   GhostTimeWnd.obj
 0001:00037120       ?OnLButtonUp@CGhostTimeWnd@@IAEXIVCPoint@@@Z 00438120 f   GhostTimeWnd.obj
 0001:000371e0       ?OnNcRButtonUp@CGhostTimeWnd@@IAEXIVCPoint@@@Z 004381e0 f   GhostTimeWnd.obj
 0001:00037950       ?GetRankingHitTest@CGhostTimeWnd@@AAEJXZ 00438950 f   GhostTimeWnd.obj
 0001:000379d0       ?PreTranslateMessage@CGhostTimeWnd@@UAEHPAUtagMSG@@@Z 004389d0 f   GhostTimeWnd.obj
 0001:00037a10       ?ProcessShortcut@CGhostTimeWnd@@AAEHI@Z 00438a10 f   GhostTimeWnd.obj
 0001:00037a60       ??0?$JArray@UtagSPSurfaceRgnCache@@@@QAE@K@Z 00438a60 f i GhostTimeWnd.obj
 0001:00037b00       ?Size@?$JArray@VJRect@@@@QBEKXZ 00438b00 f i GhostTimeWnd.obj
 0001:00037b20       ?SetNumNoPurge@?$JArray@VJRect@@@@QAEXK_N@Z 00438b20 f i GhostTimeWnd.obj
 0001:00037b80       ?Realloc@?$JArray@UtagCTW_GHOSTTIMEDATA@@@@QAE_NK@Z 00438b80 f i GhostTimeWnd.obj
 0001:00037ca0       ??0CHelperMainWnd@@QAE@XZ  00438ca0 f   HelperMainWnd.obj
 0001:00037e30       ??_ECHelperMainWnd@@UAEPAXI@Z 00438e30 f i HelperMainWnd.obj
 0001:00037e30       ??_GCHelperMainWnd@@UAEPAXI@Z 00438e30 f i HelperMainWnd.obj
 0001:00037e60       ??1CHelperMainWnd@@UAE@XZ  00438e60 f   HelperMainWnd.obj
 0001:00037ee0       ?GetMessageMap@CHelperMainWnd@@MBEPBUAFX_MSGMAP@@XZ 00438ee0 f   HelperMainWnd.obj
 0001:00037f10       ??0JDynLoadSystem@@QAE@PBD@Z 00438f10 f i HelperMainWnd.obj
 0001:00038020       ?OnCreate@CHelperMainWnd@@IAEHPAUtagCREATESTRUCTA@@@Z 00439020 f   HelperMainWnd.obj
 0001:000381f0       ?OnMainWindowCreateFinished@CHelperMainWnd@@QAEXXZ 004391f0 f   HelperMainWnd.obj
 0001:00038440       ?OnDestroy@CHelperMainWnd@@IAEXXZ 00439440 f   HelperMainWnd.obj
 0001:00038530       ?OnClose@CHelperMainWnd@@IAEXXZ 00439530 f   HelperMainWnd.obj
 0001:00038560       ?ProcessSSF@CHelperMainWnd@@AAEXPAVJWString@@@Z 00439560 f   HelperMainWnd.obj
 0001:00038600       ?ProcessTaskList@CHelperMainWnd@@AAEXPAVJWString@@@Z 00439600 f   HelperMainWnd.obj
 0001:00038680       ?ProcessURLExec@CHelperMainWnd@@AAEXPAVJWString@@@Z 00439680 f   HelperMainWnd.obj
 0001:00038d40       ?ProcessDownload@CHelperMainWnd@@AAEXPAVSPDownloadInfo@@@Z 00439d40 f   HelperMainWnd.obj
 0001:00039030       ??1SPDownloadInfo@@QAE@XZ  0043a030 f i HelperMainWnd.obj
 0001:00039090       ?DownloadProc@CHelperMainWnd@@CAXPAXPCH@Z 0043a090 f   HelperMainWnd.obj
 0001:00039cb0       ??0SPCmdListener@@QAE@XZ   0043acb0 f i HelperMainWnd.obj
 0001:00039cf0       ??1SPGhostNoInterrupt@@QAE@XZ 0043acf0 f i HelperMainWnd.obj
 0001:00039d10       ?SPCNotify@SPGhostBreakClass@@UAE_NKPAPAXK@Z 0043ad10 f i HelperMainWnd.obj
 0001:00039d50       ??_GSPGhostBreakClass@@UAEPAXI@Z 0043ad50 f i HelperMainWnd.obj
 0001:00039d50       ??_ESPGhostBreakClass@@UAEPAXI@Z 0043ad50 f i HelperMainWnd.obj
 0001:00039d80       ??1SPGhostBreakClass@@UAE@XZ 0043ad80 f i HelperMainWnd.obj
 0001:00039df0       ??_GSPDownloadInfo@@QAEPAXI@Z 0043adf0 f i HelperMainWnd.obj
 0001:00039e20       ??1CHelperMainWndExit@@QAE@XZ 0043ae20 f i HelperMainWnd.obj
 0001:00039e50       ?DownloadProcAutoDiscovery@CHelperMainWnd@@CAHPAVSPDownloadInfo@@@Z 0043ae50 f   HelperMainWnd.obj
 0001:0003a5f0       ?DownloadProcRSS@CHelperMainWnd@@CAHPAVSPDownloadInfo@@@Z 0043b5f0 f   HelperMainWnd.obj
 0001:0003a6c0       ?DownloadProcRSSReal@CHelperMainWnd@@CAHPAVSPDownloadInfo@@AAVSPInstallEvent@@_N@Z 0043b6c0 f   HelperMainWnd.obj
 0001:0003be60       ?DownloadProcSSF@CHelperMainWnd@@CAXPAVSPDownloadInfo@@AAVJWString@@@Z 0043ce60 f   HelperMainWnd.obj
 0001:0003be80       ?DownloadProcNar@CHelperMainWnd@@CAXPAVSPDownloadInfo@@AAVJWString@@@Z 0043ce80 f   HelperMainWnd.obj
 0001:0003bea0       ?DownloadProcNarSSF@CHelperMainWnd@@CAXPAVSPDownloadInfo@@AAVJWString@@PBG@Z 0043cea0 f   HelperMainWnd.obj
 0001:0003cb10       ?DownloadProcHomeURL@CHelperMainWnd@@CAXPAVSPDownloadInfo@@AAVJWString@@@Z 0043db10 f   HelperMainWnd.obj
 0001:0003cd40       ?OnSSPSysMsg@CHelperMainWnd@@IAEJIJ@Z 0043dd40 f   HelperMainWnd.obj
 0001:0003d350       ?ShowStatusWindow@CHelperMainWnd@@AAEX_N@Z 0043e350 f   HelperMainWnd.obj
 0001:0003d3f0       ?ShowProgressWindow@CHelperMainWnd@@AAEXPBG@Z 0043e3f0 f   HelperMainWnd.obj
 0001:0003d650       ?ShowThumbnailWindow@CHelperMainWnd@@AAEXPBG@Z 0043e650 f   HelperMainWnd.obj
 0001:0003d6f0       ?ShowDictationWindow@CHelperMainWnd@@AAEX_N@Z 0043e6f0 f   HelperMainWnd.obj
 0001:0003d820       ?WindowProc@CHelperMainWnd@@MAEJIIJ@Z 0043e820 f   HelperMainWnd.obj
 0001:0003d8f0       ?OnTimer@CHelperMainWnd@@IAEXI@Z 0043e8f0 f   HelperMainWnd.obj
 0001:0003d9b0       ?ProcessSystemTimes@CHelperMainWnd@@AAEXXZ 0043e9b0 f   HelperMainWnd.obj
 0001:0003db40       ?OnSHChangeNotify@CHelperMainWnd@@IAEJIJ@Z 0043eb40 f   HelperMainWnd.obj
 0001:0003db90       ?ProcessSHChangeNotify@CHelperMainWnd@@AAEXXZ 0043eb90 f   HelperMainWnd.obj
 0001:0003dc40       ?QueryRecycleBin@CHelperMainWnd@@AAE?AURecycleBinInfo@@XZ 0043ec40 f   HelperMainWnd.obj
 0001:0003dd30       ?EmptyRecycleBin@CHelperMainWnd@@AAEXXZ 0043ed30 f   HelperMainWnd.obj
 0001:0003dd60       ?EmptyRecycleBinProc@CHelperMainWnd@@AAEXXZ 0043ed60 f   HelperMainWnd.obj
 0001:0003ddb0       ?EmptyRecycleBinNotify@CHelperMainWnd@@AAEXPAGAAURecycleBinInfo@@1@Z 0043edb0 f   HelperMainWnd.obj
 0001:0003def0       ?Alloc@?$JArray@D@@QAE_NK@Z 0043eef0 f i HelperMainWnd.obj
 0001:0003dfd0       ??0?$JHash@D@@QAE@XZ       0043efd0 f i HelperMainWnd.obj
 0001:0003dfd0       ??0?$JHash@G@@QAE@XZ       0043efd0 f i HelperMainWnd.obj
 0001:0003dff0       ??_ESPGhostLoaderInfo@@AAEPAXI@Z 0043eff0 f i HelperMainWnd.obj
 0001:0003e050       ?Release@?$JHash@D@@QAEXXZ 0043f050 f i HelperMainWnd.obj
 0001:0003e050       ??1?$JHash@D@@QAE@XZ       0043f050 f i HelperMainWnd.obj
 0001:0003e0e0       ?Add@?$JArray@D@@QAEKK@Z   0043f0e0 f i HelperMainWnd.obj
 0001:0003e210       ?CreateObject@CHelperThread@@SGPAVCObject@@XZ 0043f210 f   HelperThread.obj
 0001:0003e270       ?GetRuntimeClass@CHelperThread@@UBEPAUCRuntimeClass@@XZ 0043f270 f   HelperThread.obj
 0001:0003e280       ??0CHelperThread@@QAE@XZ   0043f280 f   HelperThread.obj
 0001:0003e2e0       ??_ECHelperThread@@UAEPAXI@Z 0043f2e0 f i HelperThread.obj
 0001:0003e2e0       ??_GCHelperThread@@UAEPAXI@Z 0043f2e0 f i HelperThread.obj
 0001:0003e310       ??1CHelperThread@@UAE@XZ   0043f310 f   HelperThread.obj
 0001:0003e370       ?InitInstance@CHelperThread@@UAEHXZ 0043f370 f   HelperThread.obj
 0001:0003e4b0       ?ExitInstance@CGhostAsyncTaskThread@@UAEHXZ 0043f4b0 f   HelperThread.obj
 0001:0003e4b0       ?ExitInstance@CHelperThread@@UAEHXZ 0043f4b0 f   HelperThread.obj
 0001:0003e5b0       ?WaitForThreadBoot@CGhostAsyncTaskThread@@QAEXXZ 0043f5b0 f   HelperThread.obj
 0001:0003e5b0       ?WaitForThreadBoot@CHelperThread@@QAEXXZ 0043f5b0 f   HelperThread.obj
 0001:0003e5d0       ?GetMessageMap@CHelperThread@@MBEPBUAFX_MSGMAP@@XZ 0043f5d0 f   HelperThread.obj
 0001:0003e5e0       ??0CImageListEx@@QAE@XZ    0043f5e0 f   ImageListEx.obj
 0001:0003e600       ??_GCImageListEx@@UAEPAXI@Z 0043f600 f i ImageListEx.obj
 0001:0003e600       ??_ECImageListEx@@UAEPAXI@Z 0043f600 f i ImageListEx.obj
 0001:0003e630       ??1CImageListEx@@UAE@XZ    0043f630 f   ImageListEx.obj
 0001:0003e640       ?CreateEx@CImageListEx@@QAEHIHHK@Z 0043f640 f   ImageListEx.obj
 0001:0003e760       ??_ECBitmap@@UAEPAXI@Z     0043f760 f i ImageListEx.obj
 0001:0003e760       ??_GCBitmap@@UAEPAXI@Z     0043f760 f i ImageListEx.obj
 0001:0003e790       ??1CBitmap@@UAE@XZ         0043f790 f i ImageListEx.obj
 0001:0003e7d0       ?Draw@CImageListEx@@QAEHPAVCDC@@HHHI@Z 0043f7d0 f   ImageListEx.obj
 0001:0003e800       ?Draw@CImageListEx@@QAEHPAUHDC__@@HHHI@Z 0043f800 f   ImageListEx.obj
 0001:0003e830       ??0CInputDropTarget@@QAE@XZ 0043f830 f   InputDropTarget.obj
 0001:0003e8a0       ??_GCInputDropTarget@@UAEPAXI@Z 0043f8a0 f i InputDropTarget.obj
 0001:0003e8a0       ??_ECInputDropTarget@@UAEPAXI@Z 0043f8a0 f i InputDropTarget.obj
 0001:0003e8d0       ??1CInputDropTarget@@UAE@XZ 0043f8d0 f   InputDropTarget.obj
 0001:0003e8f0       ?DragEnter@CInputDropTarget@@UAGJPAUIDataObject@@KU_POINTL@@PAK@Z 0043f8f0 f   InputDropTarget.obj
 0001:0003e980       ?DragOver@CInputDropTarget@@UAGJKU_POINTL@@PAK@Z 0043f980 f   InputDropTarget.obj
 0001:0003e9a0       ?DragLeave@CInputDropTarget@@UAGJXZ 0043f9a0 f   InputDropTarget.obj
 0001:0003e9b0       ?Drop@CInputDropTarget@@UAGJPAUIDataObject@@KU_POINTL@@PAK@Z 0043f9b0 f   InputDropTarget.obj
 0001:0003ea50       ?RegisterMe@CInputDropTarget@@QAEHPAVCWnd@@@Z 0043fa50 f   InputDropTarget.obj
 0001:0003ea80       ?Revoke@CInputDropTarget@@QAEXXZ 0043fa80 f   InputDropTarget.obj
 0001:0003eaa0       ?QueryInterface@?$SPComObjectBase@UIDropTarget@@@@UAGJABU_GUID@@PAPAX@Z 0043faa0 f i InputDropTarget.obj
 0001:0003eb60       ?Release@?$SPComObjectBase@UIEnumString@@@@UAGKXZ 0043fb60 f i InputDropTarget.obj
 0001:0003eb60       ?Release@?$SPComObjectBase@UIDropTarget@@@@UAGKXZ 0043fb60 f i InputDropTarget.obj
 0001:0003eb60       ?Release@?$SPComObjectBase@UISensorEvents@@@@UAGKXZ 0043fb60 f i InputDropTarget.obj
 0001:0003eba0       ??_G?$SPComObjectBase@UIDropTarget@@@@UAEPAXI@Z 0043fba0 f i InputDropTarget.obj
 0001:0003eba0       ??_E?$SPComObjectBase@UIDropTarget@@@@UAEPAXI@Z 0043fba0 f i InputDropTarget.obj
 0001:0003ebd0       ??1?$SPComObjectBase@UIDropTarget@@@@UAE@XZ 0043fbd0 f i InputDropTarget.obj
 0001:0003ebf0       ??0CInputEdit@@QAE@XZ      0043fbf0 f   InputEdit.obj
 0001:0003ec10       ??_GCInputEdit@@UAEPAXI@Z  0043fc10 f i InputEdit.obj
 0001:0003ec10       ??_ECInputEdit@@UAEPAXI@Z  0043fc10 f i InputEdit.obj
 0001:0003ec40       ??1CInputEdit@@UAE@XZ      0043fc40 f   InputEdit.obj
 0001:0003eca0       ?GetMessageMap@CInputEdit@@MBEPBUAFX_MSGMAP@@XZ 0043fca0 f   InputEdit.obj
 0001:0003ecb0       ?Create@CInputEdit@@QAEHKABUtagRECT@@PAVCWnd@@I@Z 0043fcb0 f   InputEdit.obj
 0001:0003ed50       ?DestroyWindow@CInputEdit@@UAEHXZ 0043fd50 f   InputEdit.obj
 0001:0003ed80       ?OnAccelClose@CInputEdit@@IAEXXZ 0043fd80 f   InputEdit.obj
 0001:0003eda0       ?SetSel@CInputEdit@@QAEXJJ@Z 0043fda0 f   InputEdit.obj
 0001:0003edc0       ?GetSel@CInputEdit@@QAEXAAJ0@Z 0043fdc0 f   InputEdit.obj
 0001:0003ede0       ?PreTranslateMessage@CInputEdit@@UAEHPAUtagMSG@@@Z 0043fde0 f   InputEdit.obj
 0001:0003ee60       ?OnLButtonDown@CWnd@@IAEXIVCPoint@@@Z 0043fe60 f i InputWnd.obj
 0001:0003ee60       ?OnLButtonDblClk@CWnd@@IAEXIVCPoint@@@Z 0043fe60 f i InputWnd.obj
 0001:0003ee60       ?OnMouseMove@CWnd@@IAEXIVCPoint@@@Z 0043fe60 f i InputWnd.obj
 0001:0003ee60       ?OnLButtonUp@CWnd@@IAEXIVCPoint@@@Z 0043fe60 f i InputWnd.obj
 0001:0003eef0       ??0CInputWnd@@QAE@XZ       0043fef0 f   InputWnd.obj
 0001:0003f140       ??_ECInputWnd@@UAEPAXI@Z   00440140 f i InputWnd.obj
 0001:0003f140       ??_GCInputWnd@@UAEPAXI@Z   00440140 f i InputWnd.obj
 0001:0003f170       ??1CInputWnd@@UAE@XZ       00440170 f   InputWnd.obj
 0001:0003f320       ?ReleaseButtonSurface@CInputWnd@@AAEXXZ 00440320 f   InputWnd.obj
 0001:0003f3b0       ?GetMessageMap@CInputWnd@@MBEPBUAFX_MSGMAP@@XZ 004403b0 f   InputWnd.obj
 0001:0003f3c0       ?OnCreate@CInputWnd@@IAEHPAUtagCREATESTRUCTA@@@Z 004403c0 f   InputWnd.obj
 0001:0003f460       ?CreateMe@CInputWnd@@QAEHPAVCSakuraWnd@@@Z 00440460 f   InputWnd.obj
 0001:0003f5e0       ?IsMatch@CInputWnd@@QAE_NIPBG@Z 004405e0 f   InputWnd.obj
 0001:0003f620       ?GetTypeTextW@CInputWnd@@AAEPBGXZ 00440620 f   InputWnd.obj
 0001:0003f650       ?GetTypeText@CInputWnd@@AAEPBDXZ 00440650 f   InputWnd.obj
 0001:0003f700       ?SetInfo@CInputWnd@@QAEXPAVSPInputWndDispInfo@@@Z 00440700 f   InputWnd.obj
 0001:00040770       ??_ECButton@@UAEPAXI@Z     00441770 f i InputWnd.obj
 0001:00040770       ??_GCButton@@UAEPAXI@Z     00441770 f i InputWnd.obj
 0001:000407a0       ??_ECDateTimeCtrl@@UAEPAXI@Z 004417a0 f i InputWnd.obj
 0001:000407a0       ??_GCDateTimeCtrl@@UAEPAXI@Z 004417a0 f i InputWnd.obj
 0001:000407d0       ??_ECIPAddressCtrl@@UAEPAXI@Z 004417d0 f i InputWnd.obj
 0001:000407d0       ??_GCIPAddressCtrl@@UAEPAXI@Z 004417d0 f i InputWnd.obj
 0001:00040800       ?SetAutoComplete@CInputWnd@@AAE_NPAVCInputEdit@@@Z 00441800 f   InputWnd.obj
 0001:00040a90       ?GetButtonText@CInputWnd@@AAEPADXZ 00441a90 f   InputWnd.obj
 0001:00040ad0       ?GetInputRect@CInputWnd@@AAEXAAVJExtent@@@Z 00441ad0 f   InputWnd.obj
 0001:00040b70       ?ToRect@JExtent@@QBE?AVJRect@@XZ 00441b70 f i InputWnd.obj
 0001:00040b90       ?AdjustInputRect@CInputWnd@@AAEXXZ 00441b90 f   InputWnd.obj
 0001:00041270       ?OnUserInput@CInputWnd@@AAEHXZ 00442270 f   InputWnd.obj
 0001:00041290       ?OnNotifyInput@CInputWnd@@AAEHPAG0@Z 00442290 f   InputWnd.obj
 0001:000412c0       ?OnNotifyInputCancel@CInputWnd@@AAEHPAG0@Z 004422c0 f   InputWnd.obj
 0001:00041520       ?OnNotifyInputReal@CInputWnd@@AAEHPAG0@Z 00442520 f   InputWnd.obj
 0001:00041760       ?SetBalloon@CInputWnd@@QAEHPAVSPBalloon@@@Z 00442760 f   InputWnd.obj
 0001:00041e80       ?OnCloseButton@CInputWnd@@IAEXXZ 00442e80 f   InputWnd.obj
 0001:00041ea0       ?OnCloseButtonDirect@CInputWnd@@AAEXXZ 00442ea0 f   InputWnd.obj
 0001:00041ec0       ?OnButtonPushedMode@CInputWnd@@IAEXXZ 00442ec0 f   InputWnd.obj
 0001:00041f20       ?OnButtonPushedOK@CInputWnd@@IAEXXZ 00442f20 f   InputWnd.obj
 0001:00041f30       ?Execute@CInputWnd@@AAEXXZ 00442f30 f   InputWnd.obj
 0001:00041f60       ?ExecuteReal@CInputWnd@@AAEXXZ 00442f60 f   InputWnd.obj
 0001:00042230       ?OnTimer@CInputWnd@@IAEXI@Z 00443230 f   InputWnd.obj
 0001:00042290       ?ShowAndSetFocus@CInputWnd@@QAEXXZ 00443290 f   InputWnd.obj
 0001:000422c0       ?SetFocusToInput@CInputWnd@@QAEXXZ 004432c0 f   InputWnd.obj
 0001:000422e0       ?GetInputText@CInputWnd@@QAEPAGXZ 004432e0 f   InputWnd.obj
 0001:00042460       ?GetExtraInfoText@CInputWnd@@QAEPAGXZ 00443460 f   InputWnd.obj
 0001:00042560       ?DestroyControls@CInputWnd@@AAEXXZ 00443560 f   InputWnd.obj
 0001:00042610       ?OnDestroy@CInputWnd@@IAEXXZ 00443610 f   InputWnd.obj
 0001:00042670       ?DestroyWindow@CInputWnd@@UAEHXZ 00443670 f   InputWnd.obj
 0001:00042680       ?OnCtlColor@CInputWnd@@IAEPAUHBRUSH__@@PAVCDC@@PAVCWnd@@I@Z 00443680 f   InputWnd.obj
 0001:000426e0       ?OnDrawItem@CInputWnd@@IAEXHPAUtagDRAWITEMSTRUCT@@@Z 004436e0 f   InputWnd.obj
 0001:00042cd0       ?PreTranslateMessage@CInputWnd@@UAEHPAUtagMSG@@@Z 00443cd0 f   InputWnd.obj
 0001:00042d50       ?OnEraseBkgnd@CInputWnd@@IAEHPAVCDC@@@Z 00443d50 f   InputWnd.obj
 0001:00042da0       ?OnCommand@CInputWnd@@MAEHIJ@Z 00443da0 f   InputWnd.obj
 0001:00042f10       ?WindowProc@CInputWnd@@MAEJIIJ@Z 00443f10 f   InputWnd.obj
 0001:00043010       ?OnWindowPosChanged@CInputWnd@@IAEXPAUtagWINDOWPOS@@@Z 00444010 f   InputWnd.obj
 0001:00043040       ?GetBackgroundHWND@CInputWnd@@QAEPAUHWND__@@XZ 00444040 f   InputWnd.obj
 0001:00043050       ??0?$JPtrArray@PAVSPCmdListener@@@@QAE@J@Z 00444050 f i InputWnd.obj
 0001:000430b0       ??0CInputWndBackground@@QAE@XZ 004440b0 f   InputWndBackground.obj
 0001:000430d0       ??_GCInputWndBackground@@UAEPAXI@Z 004440d0 f i InputWndBackground.obj
 0001:000430d0       ??_ECInputWndBackground@@UAEPAXI@Z 004440d0 f i InputWndBackground.obj
 0001:00043100       ??1CInputWndBackground@@UAE@XZ 00444100 f   InputWndBackground.obj
 0001:00043110       ?GetMessageMap@CInputWndBackground@@MBEPBUAFX_MSGMAP@@XZ 00444110 f   InputWndBackground.obj
 0001:00043120       ?OnEraseBkgnd@CInputWndBackground@@IAEHPAVCDC@@@Z 00444120 f   InputWndBackground.obj
 0001:00043180       ?OnLButtonDown@CInputWndBackground@@IAEXIVCPoint@@@Z 00444180 f   InputWndBackground.obj
 0001:000431c0       ?OnLButtonUp@CInputWndBackground@@IAEXIVCPoint@@@Z 004441c0 f   InputWndBackground.obj
 0001:00043340       ?OnLButtonDblClk@CInputWndBackground@@IAEXIVCPoint@@@Z 00444340 f   InputWndBackground.obj
 0001:00043390       ?OnMouseMove@CInputWndBackground@@IAEXIVCPoint@@@Z 00444390 f   InputWndBackground.obj
 0001:00043420       ?PostNcDestroy@CInputWndBackground@@MAEXXZ 00444420 f   InputWndBackground.obj
 0001:00043520       ?WindowProc@CInputWndBackground@@MAEJIIJ@Z 00444520 f   InputWndBackground.obj
 0001:00043590       ?OnDestroy@CInputWndBackground@@IAEXXZ 00444590 f   InputWndBackground.obj
 0001:000435b0       ??0CInternationalSettingDlg@@QAE@PAVCWnd@@@Z 004445b0 f   InternationalSettingDlg.obj
 0001:00043650       ??_GCStatic@@UAEPAXI@Z     00444650 f i InternationalSettingDlg.obj
 0001:00043650       ??_ECStatic@@UAEPAXI@Z     00444650 f i InternationalSettingDlg.obj
 0001:00043680       ??_ECInternationalSettingDlg@@UAEPAXI@Z 00444680 f i InternationalSettingDlg.obj
 0001:00043680       ??_GCInternationalSettingDlg@@UAEPAXI@Z 00444680 f i InternationalSettingDlg.obj
 0001:000436b0       ??1CInternationalSettingDlg@@UAE@XZ 004446b0 f i InternationalSettingDlg.obj
 0001:00043710       ?DoDataExchange@CInternationalSettingDlg@@MAEXPAVCDataExchange@@@Z 00444710 f   InternationalSettingDlg.obj
 0001:00043750       ?GetMessageMap@CInternationalSettingDlg@@MBEPBUAFX_MSGMAP@@XZ 00444750 f   InternationalSettingDlg.obj
 0001:00043760       ?OnInitDialog@CInternationalSettingDlg@@MAEHXZ 00444760 f   InternationalSettingDlg.obj
 0001:00043840       ?SelectFont@CInternationalSettingDlg@@AAEHAAVJWString@@AAHPBDH@Z 00444840 f   InternationalSettingDlg.obj
 0001:00043c70       ?DispUpdate@CInternationalSettingDlg@@AAEXAAVJWString@@AAHAAVCStatic@@H@Z 00444c70 f   InternationalSettingDlg.obj
 0001:00043e30       ?OnFontMenuChoice@CInternationalSettingDlg@@IAEXXZ 00444e30 f   InternationalSettingDlg.obj
 0001:00043e90       ?OnFontMenuDefault@CInternationalSettingDlg@@IAEXXZ 00444e90 f   InternationalSettingDlg.obj
 0001:00043ef0       ?OnFontBalloonChoice@CInternationalSettingDlg@@IAEXXZ 00444ef0 f   InternationalSettingDlg.obj
 0001:00043fd0       ?OnFontBalloonDefault@CInternationalSettingDlg@@IAEXXZ 00444fd0 f   InternationalSettingDlg.obj
 0001:000440b0       ?OnDestroy@CInternationalSettingDlg@@IAEXXZ 004450b0 f   InternationalSettingDlg.obj
 0001:000441a0       ?SetCombo@CInternationalSettingDlg@@AAEXHPBD@Z 004451a0 f   InternationalSettingDlg.obj
 0001:000441e0       ?SetPropA@CInternationalSettingDlg@@AAEXHPBD@Z 004451e0 f   InternationalSettingDlg.obj
 0001:00044230       ?OnSelchangeDefineCharset@CInternationalSettingDlg@@IAEXXZ 00445230 f   InternationalSettingDlg.obj
 0001:00044240       ?OnSelchangeReadmeCharset@CInternationalSettingDlg@@IAEXXZ 00445240 f   InternationalSettingDlg.obj
 0001:00044250       ?OnSelchangeScriptCharset@CInternationalSettingDlg@@IAEXXZ 00445250 f   InternationalSettingDlg.obj
 0001:00044260       ?OnSelchangePiroCharset@CInternationalSettingDlg@@IAEXXZ 00445260 f   InternationalSettingDlg.obj
 0001:00044270       ?OnSelchangeMakotoCharset@CInternationalSettingDlg@@IAEXXZ 00445270 f   InternationalSettingDlg.obj
 0001:00044280       ?OnSelchangeShioriCharset@CInternationalSettingDlg@@IAEXXZ 00445280 f   InternationalSettingDlg.obj
 0001:00044290       ?OnSelchangeFileCharset@CInternationalSettingDlg@@IAEXXZ 00445290 f   InternationalSettingDlg.obj
 0001:000442a0       ?CreateObject@CIPMessengerSettingDlg@@SGPAVCObject@@XZ 004452a0 f   IPMessengerSettingDlg.obj
 0001:00044300       ?GetRuntimeClass@CIPMessengerSettingDlg@@UBEPAUCRuntimeClass@@XZ 00445300 f   IPMessengerSettingDlg.obj
 0001:00044310       ??0CIPMessengerSettingDlg@@QAE@PAVCWnd@@@Z 00445310 f   IPMessengerSettingDlg.obj
 0001:00044390       ??_GCIPMessengerSettingDlg@@UAEPAXI@Z 00445390 f i IPMessengerSettingDlg.obj
 0001:00044390       ??_ECIPMessengerSettingDlg@@UAEPAXI@Z 00445390 f i IPMessengerSettingDlg.obj
 0001:000443c0       ??1CIPMessengerSettingDlg@@UAE@XZ 004453c0 f i IPMessengerSettingDlg.obj
 0001:00044420       ?DoDataExchange@CIPMessengerSettingDlg@@MAEXPAVCDataExchange@@@Z 00445420 f   IPMessengerSettingDlg.obj
 0001:00044440       ?GetMessageMap@CIPMessengerSettingDlg@@MBEPBUAFX_MSGMAP@@XZ 00445440 f   IPMessengerSettingDlg.obj
 0001:00044450       ?OnChangeIpmsgport@CIPMessengerSettingDlg@@IAEXXZ 00445450 f   IPMessengerSettingDlg.obj
 0001:00044520       ?OnIpmessenger@CIPMessengerSettingDlg@@IAEXXZ 00445520 f   IPMessengerSettingDlg.obj
 0001:000445b0       ?OnUseDialup@CIPMessengerSettingDlg@@IAEXXZ 004455b0 f   IPMessengerSettingDlg.obj
 0001:00044600       ?OnBroadcastAdd@CIPMessengerSettingDlg@@IAEXXZ 00445600 f   IPMessengerSettingDlg.obj
 0001:00044720       ?OnBroadcastDel@CIPMessengerSettingDlg@@IAEXXZ 00445720 f   IPMessengerSettingDlg.obj
 0001:00044770       ?OnBroadcastInit@CIPMessengerSettingDlg@@IAEXXZ 00445770 f   IPMessengerSettingDlg.obj
 0001:000447a0       ?UpdateBroadcastList@CIPMessengerSettingDlg@@IAEXXZ 004457a0 f   IPMessengerSettingDlg.obj
 0001:000449e0       ?OnInitDialog@CIPMessengerSettingDlg@@MAEHXZ 004459e0 f   IPMessengerSettingDlg.obj
 0001:00044b10       ?UpdateEnabled@CIPMessengerSettingDlg@@QAEXH@Z 00445b10 f   IPMessengerSettingDlg.obj
 0001:00044b50       ?GetListSel@CIPMessengerSettingDlg@@IAEJXZ 00445b50 f   IPMessengerSettingDlg.obj
 0001:00044b90       ?OnDestroy@CIPMessengerSettingDlg@@IAEXXZ 00445b90 f   IPMessengerSettingDlg.obj
 0001:00044bd0       ??0CKeroWnd@@QAE@XZ        00445bd0 f   KeroWnd.obj
 0001:00044c40       ??_ECKeroWnd@@UAEPAXI@Z    00445c40 f i KeroWnd.obj
 0001:00044c40       ??_GCKeroWnd@@UAEPAXI@Z    00445c40 f i KeroWnd.obj
 0001:00044c70       ??1CKeroWnd@@UAE@XZ        00445c70 f   KeroWnd.obj
 0001:00044cd0       ?GetMessageMap@CKeroWnd@@MBEPBUAFX_MSGMAP@@XZ 00445cd0 f   KeroWnd.obj
 0001:00044ce0       ?OnLButtonDblClk@CKeroWnd@@IAEXIVCPoint@@@Z 00445ce0 f   KeroWnd.obj
 0001:00044d20       ?OnMouseMove@CKeroWnd@@IAEXIVCPoint@@@Z 00445d20 f   KeroWnd.obj
 0001:00044d50       ?GetDefaultWndPosX@CKeroWnd@@UAEHAAJAAVJRect@@1AAVJPoint@@@Z 00445d50 f   KeroWnd.obj
 0001:00044e60       ?WindowProc@CKeroWnd@@MAEJIIJ@Z 00445e60 f   KeroWnd.obj
 0001:00044eb0       ?OnDestroy@CCharBodyWnd@@IAEXXZ 00445eb0 f   KeroWnd.obj
 0001:00044eb0       ?OnDestroy@CKeroWnd@@IAEXXZ 00445eb0 f   KeroWnd.obj
 0001:00044ed0       ?OnClose@CKeroWnd@@IAEXXZ  00445ed0 f   KeroWnd.obj
 0001:00044ed0       ?OnClose@CCharBodyWnd@@IAEXXZ 00445ed0 f   KeroWnd.obj
 0001:00044ef0       ??_ECKeroWnd@@WDM@AEPAXI@Z 00445ef0 f i KeroWnd.obj
 0001:00044f00       ??0CLog@@QAE@PAVCWnd@@@Z   00445f00 f   Log.obj
 0001:00044ff0       ??_GCLog@@UAEPAXI@Z        00445ff0 f i Log.obj
 0001:00044ff0       ??_ECLog@@UAEPAXI@Z        00445ff0 f i Log.obj
 0001:00045020       ??1CLog@@UAE@XZ            00446020 f i Log.obj
 0001:000450e0       ?DoDataExchange@CLog@@MAEXPAVCDataExchange@@@Z 004460e0 f   Log.obj
 0001:00045120       ?GetMessageMap@CLog@@MBEPBUAFX_MSGMAP@@XZ 00446120 f   Log.obj
 0001:00045130       ?WindowProc@CLog@@MAEJIIJ@Z 00446130 f   Log.obj
 0001:00045180       ?OnTimer@CLog@@IAEXI@Z     00446180 f   Log.obj
 0001:000451b0       ?OnInitDialog@CLog@@MAEHXZ 004461b0 f   Log.obj
 0001:000455b0       ?OnButtonSaveLog@CLog@@IAEXXZ 004465b0 f   Log.obj
 0001:00045a80       ?OnButtonExecute@CLog@@IAEXXZ 00446a80 f   Log.obj
 0001:00045bf0       ?UpdateList@CLog@@AAEXXZ   00446bf0 f   Log.obj
 0001:00045e20       ?OnButtonCopy@CLog@@IAEXXZ 00446e20 f   Log.obj
 0001:00045f40       ?OnButtonClear@CLog@@IAEXXZ 00446f40 f   Log.obj
 0001:00045f60       ?SelectedLineData@CLog@@AAEPAVSPLogData@@XZ 00446f60 f   Log.obj
 0001:00045fc0       ?OnDblclkLog@CLog@@IAEXPAUtagNMHDR@@PAJ@Z 00446fc0 f   Log.obj
 0001:00046060       ?OnClickLog@CLog@@IAEXPAUtagNMHDR@@PAJ@Z 00447060 f   Log.obj
 0001:00046100       ?OnDestroy@CLog@@IAEXXZ    00447100 f   Log.obj
 0001:000461a0       ?OnSize@CLog@@IAEXIHH@Z    004471a0 f   Log.obj
 0001:000461e0       ?AdjustListColumn@CLog@@IAEXXZ 004471e0 f   Log.obj
 0001:00046280       ?OnChangeLogLine@CLog@@IAEXXZ 00447280 f   Log.obj
 0001:000464a0       ?OnColumnClickList@CLog@@IAEXPAUtagNMHDR@@PAJ@Z 004474a0 f   Log.obj
 0001:000464f0       ?SortList@CLog@@AAEXI@Z    004474f0 f   Log.obj
 0001:00046560       ?OnSelChangeType@CLog@@IAEXXZ 00447560 f   Log.obj
 0001:00046640       ?SetLogManager@CLog@@QAEXPAVSPLogManagerCore@@@Z 00447640 f   Log.obj
 0001:000466c0       ?ChangeSelTypeControl@CLog@@AAEXXZ 004476c0 f   Log.obj
 0001:00046750       ?PreTranslateMessage@CLog@@UAEHPAUtagMSG@@@Z 00447750 f   Log.obj
 0001:00046790       ?ProcessShortcut@CLog@@IAEHI@Z 00447790 f   Log.obj
 0001:000467e0       ?OnMeasureItem@CLog@@IAEXHPAUtagMEASUREITEMSTRUCT@@@Z 004477e0 f   Log.obj
 0001:00046800       ?OnDrawItem@CLog@@IAEXHPAUtagDRAWITEMSTRUCT@@@Z 00447800 f   Log.obj
 0001:00046bd0       ?OnGetInfoTip@CLog@@IAEXPAUtagNMHDR@@PAJ@Z 00447bd0 f   Log.obj
 0001:00046cc0       ?MarkSort@CLog@@AAEXK@Z    00447cc0 f   Log.obj
 0001:00046d90       ?OnGetMinMaxInfo@CLog@@IAEXPAUtagMINMAXINFO@@@Z 00447d90 f   Log.obj
 0001:00046e30       ?OnContextMenu@CLog@@IAEXPAVCWnd@@VCPoint@@@Z 00447e30 f   Log.obj
 0001:00046ea0       ?ShowListContextMenu@CLog@@AAEX_N@Z 00447ea0 f   Log.obj
 0001:00046f30       ?GetSelectedIndex@CLog@@AAEJXZ 00447f30 f   Log.obj
 0001:00046f80       ?OnCommand@CLog@@MAEHIJ@Z  00447f80 f   Log.obj
 0001:00047030       ?IsValid@SPGhostSet@@QAEHXZ 00448030 f   MainFrm.obj
 0001:00047060       ??1SPGhostSet@@QAE@XZ      00448060 f   MainFrm.obj
 0001:00047100       ?CMainFrame_ZipPassword@@YAHPADIHPAX@Z 00448100 f   MainFrm.obj
 0001:00047140       ?GetRuntimeClass@CMainFrame@@UBEPAUCRuntimeClass@@XZ 00448140 f   MainFrm.obj
 0001:00047150       ?GetMessageMap@CMainFrame@@MBEPBUAFX_MSGMAP@@XZ 00448150 f   MainFrm.obj
 0001:00047160       ??0CMainFrame@@QAE@XZ      00448160 f   MainFrm.obj
 0001:000473a0       ??_GCMainFrame@@UAEPAXI@Z  004483a0 f i MainFrm.obj
 0001:000473a0       ??_ECMainFrame@@UAEPAXI@Z  004483a0 f i MainFrm.obj
 0001:000473d0       ??1CMainFrame@@UAE@XZ      004483d0 f   MainFrm.obj
 0001:000474c0       ?CreateMe@CMainFrame@@QAEHPBD0@Z 004484c0 f   MainFrm.obj
 0001:00047530       ?OnCreate@CMainFrame@@IAEHPAUtagCREATESTRUCTA@@@Z 00448530 f   MainFrm.obj
 0001:00047560       ?OnSSPSysMsgMainWndInitialize@CMainFrame@@AAEXXZ 00448560 f   MainFrm.obj
 0001:00047f50       ?OnInitAfter@CMainFrame@@IAEJIJ@Z 00448f50 f   MainFrm.obj
 0001:00048490       ?ExitProc@CMainFrame@@IAEXXZ 00449490 f   MainFrm.obj
 0001:000484c0       ?OnSSPSysMsgMainWndDestroy@CMainFrame@@AAEXXZ 004494c0 f   MainFrm.obj
 0001:00048750       ?OnDestroy@CMainFrame@@IAEXXZ 00449750 f   MainFrm.obj
 0001:00048750       ?OnDestroy@CGhostAsyncTaskWnd@@IAEXXZ 00449750 f   MainFrm.obj
 0001:00048750       ?OnDestroy@CSaveShareDlg@@IAEXXZ 00449750 f   MainFrm.obj
 0001:00048760       ?StartMainTimer@CMainFrame@@QAEXXZ 00449760 f   MainFrm.obj
 0001:00048790       ?StopMainTimer@CMainFrame@@QAEXXZ 00449790 f   MainFrm.obj
 0001:000487b0       ?SaveBootingGhostData@CMainFrame@@QAEXPAVSPGhost@@@Z 004497b0 f   MainFrm.obj
 0001:00048a20       ?OnClose@CMainFrame@@IAEXXZ 00449a20 f   MainFrm.obj
 0001:00048a30       ?QuitApplication@CMainFrame@@QAEXPBGJJ@Z 00449a30 f   MainFrm.obj
 0001:00048a70       ?GhostExitProc@CMainFrame@@QAE_NPBGJJ@Z 00449a70 f   MainFrm.obj
 0001:00048bc0       ?AddGhost@CMainFrame@@QAEPAVSPGhostSet@@PAVSPGhost@@PAPAGKK@Z 00449bc0 f   MainFrm.obj
 0001:00048d50       ?KeepMessengerBootedGhost@CMainFrame@@QAEXPAVCSakuraWnd@@@Z 00449d50 f   MainFrm.obj
 0001:00048de0       ?CreateGhostWindows@CMainFrame@@IAEHPAVSPGhostSet@@@Z 00449de0 f   MainFrm.obj
 0001:00048e60       ?FindSetFromGhost@CMainFrame@@QAEPAVSPGhostSet@@PAVSPGhost@@@Z 00449e60 f   MainFrm.obj
 0001:00048f20       ?DeleteGhost@CMainFrame@@QAEHPAVSPGhostSet@@HH@Z 00449f20 f   MainFrm.obj
 0001:00049010       ?AddOrDeleteFullSystemGhost_BootFinal@CMainFrame@@QAEXPAVSPGhostSet@@_N@Z 0044a010 f   MainFrm.obj
 0001:00049100       ?OnTimer@CMainFrame@@IAEXI@Z 0044a100 f   MainFrm.obj
 0001:00049180       ?OnTimerDevice@CMainFrame@@AAEXXZ 0044a180 f   MainFrm.obj
 0001:00049790       ??0SPShioriEvent@@QAE@XZ   0044a790 f i MainFrm.obj
 0001:000497d0       ?ResetAutoChangeCounter@CMainFrame@@QAEXXZ 0044a7d0 f   MainFrm.obj
 0001:000497f0       ?OnTimerMain@CMainFrame@@AAEXXZ 0044a7f0 f   MainFrm.obj
 0001:0004a440       ?ReadHeadlineSequential@CMainFrame@@AAEHPAVSPGhost@@@Z 0044b440 f   MainFrm.obj
 0001:0004a5a0       ?ShowCalendar@CMainFrame@@QAEXPAUHWND__@@H@Z 0044b5a0 f   MainFrm.obj
 0001:0004a710       ?AllMinimizeToggle@CMainFrame@@QAEXK@Z 0044b710 f   MainFrm.obj
 0001:0004a800       ?AllMinimizeSave@CMainFrame@@QAEXJK@Z 0044b800 f   MainFrm.obj
 0001:0004a990       ?AllRestoreSave@CMainFrame@@QAEXK@Z 0044b990 f   MainFrm.obj
 0001:0004aa40       ?ShowTaskTrayIcon@CMainFrame@@QAEXXZ 0044ba40 f   MainFrm.obj
 0001:0004ab30       ?UpdateTaskTrayIcon@CMainFrame@@QAEX_N@Z 0044bb30 f   MainFrm.obj
 0001:0004abe0       ?UpdateGhostState@CMainFrame@@IAEXJH@Z 0044bbe0 f   MainFrm.obj
 0001:0004ac90       ?InitHistoryMenu@CMainFrame@@AAEXK@Z 0044bc90 f   MainFrm.obj
 0001:0004ad30       ?InitJumpList@CMainFrame@@AAEXXZ 0044bd30 f   MainFrm.obj
 0001:0004ae50       ?InitGhostMenu@CMainFrame@@AAEXH@Z 0044be50 f   MainFrm.obj
 0001:0004af70       ?InitBalloonMenu@CMainFrame@@AAEXH@Z 0044bf70 f   MainFrm.obj
 0001:0004b030       ?InitHeadlineMenu@CMainFrame@@AAEXH@Z 0044c030 f   MainFrm.obj
 0001:0004b0f0       ?InitPluginMenu@CMainFrame@@AAEXH@Z 0044c0f0 f   MainFrm.obj
 0001:0004b1b0       ?InitPluginMenuEnable@CMainFrame@@QAEXXZ 0044c1b0 f   MainFrm.obj
 0001:0004b250       ?InitLanguageMenu@CMainFrame@@QAEXH_N@Z 0044c250 f   MainFrm.obj
 0001:0004b340       ?InitCheckMailMenu@CMainFrame@@QAEXXZ 0044c340 f   MainFrm.obj
 0001:0004b3e0       ?CMainFrame_InitCheckMailMenu@@YAXXZ 0044c3e0 f   MainFrm.obj
 0001:0004b3f0       ?InitAllGhostMenu@CMainFrame@@QAEXXZ 0044c3f0 f   MainFrm.obj
 0001:0004b4a0       ?WindowProc@CMainFrame@@MAEJIIJ@Z 0044c4a0 f   MainFrm.obj
 0001:0004ba80       ?OnPowerBroadcast@CMainFrame@@IAEJIJ@Z 0044ca80 f   MainFrm.obj
 0001:0004bbd0       ?OnPowerBroadcastDisplay@CMainFrame@@AAEX_N@Z 0044cbd0 f   MainFrm.obj
 0001:0004bc90       ?NotifyBatteryStatus@CMainFrame@@AAEHPAVSPGhost@@_N@Z 0044cc90 f   MainFrm.obj
 0001:0004c090       ?OnDeviceChangeMessage@CMainFrame@@IAEJIJ@Z 0044d090 f   MainFrm.obj
 0001:0004c650       ??1SPDeviceInfo@@QAE@XZ    0044d650 f i MainFrm.obj
 0001:0004c6c0       ?OnSysFuncStateNotify@CMainFrame@@IAEJIJ@Z 0044d6c0 f   MainFrm.obj
 0001:0004ca80       ??1SPVersionInfo@@QAE@XZ   0044da80 f i MainFrm.obj
 0001:0004ca90       ??1SPReg@@QAE@XZ           0044da90 f i MainFrm.obj
 0001:0004caa0       ?OnSSPSysMsg@CMainFrame@@IAEJIJ@Z 0044daa0 f   MainFrm.obj
 0001:0004d0b0       ?OnSSPSysMsgGhostClose@CMainFrame@@QAEXPAVSPGhost@@_N@Z 0044e0b0 f   MainFrm.obj
 0001:0004d300       ?OnSSPSysMsgGhostChange@CMainFrame@@QAEXJPAVCSakuraWnd@@K@Z 0044e300 f   MainFrm.obj
 0001:0004dcc0       ??1CMainFrameCriticalLock@@QAE@XZ 0044ecc0 f i MainFrm.obj
 0001:0004dcd0       ??0SPShioriEventResult@@QAE@ABV0@@Z 0044ecd0 f i MainFrm.obj
 0001:0004dd10       ??1CMainFrame_IsVanishFlagControl@@QAE@XZ 0044ed10 f i MainFrm.obj
 0001:0004dd20       ?OnSSPSysMsgShellChange@CMainFrame@@QAEXJPAVCSakuraWnd@@K@Z 0044ed20 f   MainFrm.obj
 0001:0004e120       ?OnCopyData@CMainFrame@@IAEHPAVCWnd@@PAUtagCOPYDATASTRUCT@@@Z 0044f120 f   MainFrm.obj
 0001:0004e1a0       ?OnCopyDataSSTP@CMainFrame@@QAEHPAUHWND__@@PAUtagCOPYDATASTRUCT@@HPAVCSakuraWnd@@@Z 0044f1a0 f   MainFrm.obj
 0001:0004e2a0       ?AssociateFile@CMainFrame@@QAEXHH@Z 0044f2a0 f   MainFrm.obj
 0001:0004f0c0       ?ShowPropertyWindow@CMainFrame@@QAEXPAUHWND__@@PAG@Z 004500c0 f   MainFrm.obj
 0001:0004f210       ?UpdateLanguageInfo@CMainFrame@@QAEXXZ 00450210 f   MainFrm.obj
 0001:0004f230       ?ShowHelp@CMainFrame@@QAEXPAUHWND__@@PAG@Z 00450230 f   MainFrm.obj
 0001:0004f2b0       ?ShowGhostTimeWindow@CMainFrame@@QAEXPAUHWND__@@H@Z 004502b0 f   MainFrm.obj
 0001:0004f380       ?ShowMessengerWindow@CMainFrame@@QAEXPAUHWND__@@@Z 00450380 f   MainFrm.obj
 0001:0004f3d0       ?ShowLogWindow@CMainFrame@@QAEXPAVSPLogManagerCore@@@Z 004503d0 f   MainFrm.obj
 0001:0004f490       ?ShowTimeMachineWindow@CMainFrame@@QAEXXZ 00450490 f   MainFrm.obj
 0001:0004f540       ?ShowDictationWindow@CMainFrame@@QAEXH@Z 00450540 f   MainFrm.obj
 0001:0004f570       ?EnableTTS@CMainFrame@@QAEXH@Z 00450570 f   MainFrm.obj
 0001:0004f610       ?ReloadTTSConfig@CMainFrame@@QAEXXZ 00450610 f   MainFrm.obj
 0001:0004f630       ?ShowExplorerWindow@CMainFrame@@QAEXPAVSPGhost@@H@Z 00450630 f   MainFrm.obj
 0001:0004f6f0       ?UpdateExplorerWindow@CMainFrame@@QAEXPAVCSakuraWnd@@H@Z 004506f0 f   MainFrm.obj
 0001:0004f730       ?SetExplorerWindowGhost@CMainFrame@@QAEXPAVSPGhost@@@Z 00450730 f   MainFrm.obj
 0001:0004f850       ?ShowTermsWindow@CMainFrame@@QAEHPAVSPShowTermsInfo@@@Z 00450850 f   MainFrm.obj
 0001:0004f940       ?ShowInfoWindow@CMainFrame@@QAEXPAVSPGhost@@HIK@Z 00450940 f   MainFrm.obj
 0001:0004fa70       ?OnSettingChange@CMainFrame@@IAEXIPBD@Z 00450a70 f   MainFrm.obj
 0001:0004fab0       ?OnFontChange@CMainFrame@@IAEXXZ 00450ab0 f   MainFrm.obj
 0001:0004fb50       ?BackFocusToGhost@CMainFrame@@QAEXXZ 00450b50 f   MainFrm.obj
 0001:0004fc60       ?OnTaskTray@CMainFrame@@IAEJIJ@Z 00450c60 f   MainFrm.obj
 0001:0004fcb0       ?OnTaskTray4@CMainFrame@@IAEJIJ@Z 00450cb0 f   MainFrm.obj
 0001:0004fd40       ?OnVirtualDesktop@CMainFrame@@IAEJIJ@Z 00450d40 f   MainFrm.obj
 0001:0004fe50       ?OnAppBarMessage@CMainFrame@@IAEJIJ@Z 00450e50 f   MainFrm.obj
 0001:0004ff40       ?OnQueryEndSession@CMainFrame@@IAEHXZ 00450f40 f   MainFrm.obj
 0001:0004ff70       ?OnEndSession@CMainFrame@@IAEXH@Z 00450f70 f   MainFrm.obj
 0001:00050000       ?WaitForApplicationQuit@CMainFrame@@AAEXXZ 00451000 f   MainFrm.obj
 0001:00050010       ?CheckDisplaySettingChange@CMainFrame@@QAEXXZ 00451010 f   MainFrm.obj
 0001:000500f0       ?Alloc@?$JArray@G@@QAE_NK@Z 004510f0 f i MainFrm.obj
 0001:000501e0       ??_GSPDeviceInfo@@QAEPAXI@Z 004511e0 f i MainFrm.obj
 0001:00050210       ??0CMenuCreator@@QAE@HPAVSPMenuItem@@PAUHMENU__@@H@Z 00451210 f   MenuCreator.obj
 0001:000504b0       ??1CMenuCreator@@QAE@XZ    004514b0 f   MenuCreator.obj
 0001:00050530       ?Add@CMenuCreator@@QAEXPAVSPProp@@IK@Z 00451530 f   MenuCreator.obj
 0001:000506b0       ??0CMessageWnd@@QAE@XZ     004516b0 f   MessageWnd.obj
 0001:00050800       ??_GCMessageWnd@@UAEPAXI@Z 00451800 f i MessageWnd.obj
 0001:00050800       ??_ECMessageWnd@@UAEPAXI@Z 00451800 f i MessageWnd.obj
 0001:00050830       ??1CMessageWnd@@UAE@XZ     00451830 f   MessageWnd.obj
 0001:000508a0       ?GetMessageMap@CMessageWnd@@MBEPBUAFX_MSGMAP@@XZ 004518a0 f   MessageWnd.obj
 0001:000508b0       ?OnPaint@CMessageWnd@@IAEXXZ 004518b0 f   MessageWnd.obj
 0001:000508f0       ?OnPrintClient@CMessageWnd@@IAEJIJ@Z 004518f0 f   MessageWnd.obj
 0001:00050910       ?ChoiceSelect@CMessageWnd@@AAEHJPAVSPBalloonString@@@Z 00451910 f   MessageWnd.obj
 0001:00050f50       ?SetBalloonUserOffset@CMessageWnd@@AAEXAAVJPoint@@H@Z 00451f50 f   MessageWnd.obj
 0001:00051050       ?OnMouseMove@CMessageWnd@@IAEXIVCPoint@@@Z 00452050 f   MessageWnd.obj
 0001:00051080       ?OnLButtonDblClk@CMessageWnd@@IAEXIVCPoint@@@Z 00452080 f   MessageWnd.obj
 0001:000510b0       ?OnLButtonUp@CMessageWnd@@IAEXIVCPoint@@@Z 004520b0 f   MessageWnd.obj
 0001:000510e0       ?OnLButtonDown@CMessageWnd@@IAEXIVCPoint@@@Z 004520e0 f   MessageWnd.obj
 0001:00051110       ?OnRButtonUp@CMessageWnd@@IAEXIVCPoint@@@Z 00452110 f   MessageWnd.obj
 0001:00051140       ?SetDragMode@CMessageWnd@@AAEX_N@Z 00452140 f   MessageWnd.obj
 0001:00051210       ?EX_OnMouseMove@CMessageWnd@@AAEXI@Z 00452210 f   MessageWnd.obj
 0001:00051330       ?UpdateSelection@CMessageWnd@@AAE_NXZ 00452330 f   MessageWnd.obj
 0001:000516b0       ?EX_OnLButtonDblClk@CMessageWnd@@AAEXI@Z 004526b0 f   MessageWnd.obj
 0001:000517c0       ?EX_OnLButtonUp@CMessageWnd@@AAEXI@Z 004527c0 f   MessageWnd.obj
 0001:00051a40       ?EX_OnLButtonDown@CMessageWnd@@AAEXI@Z 00452a40 f   MessageWnd.obj
 0001:00051b20       ?EX_OnRButtonUp@CMessageWnd@@AAEXI@Z 00452b20 f   MessageWnd.obj
 0001:00051b70       ?OnMouseWheel@CMessageWnd@@IAEHIFVCPoint@@@Z 00452b70 f   MessageWnd.obj
 0001:00051bd0       ?OnVScroll@CMessageWnd@@IAEXIIPAVCScrollBar@@@Z 00452bd0 f   MessageWnd.obj
 0001:00051c30       ?OnCreate@CMessageWnd@@IAEHPAUtagCREATESTRUCTA@@@Z 00452c30 f   MessageWnd.obj
 0001:00051cf0       ?OnGetMinMaxInfo@CMessageWnd@@IAEXPAUtagMINMAXINFO@@@Z 00452cf0 f   MessageWnd.obj
 0001:00051d40       ?OnTimer@CMessageWnd@@IAEXI@Z 00452d40 f   MessageWnd.obj
 0001:00051e20       ?BreakScript@CMessageWnd@@QAEXABVCPoint@@@Z 00452e20 f   MessageWnd.obj
 0001:00051f70       ?EX_OnKeyDown@CMessageWnd@@QAE_NIJPAUHWND__@@@Z 00452f70 f   MessageWnd.obj
 0001:000521b0       ?WindowProc@CMessageWnd@@MAEJIIJ@Z 004531b0 f   MessageWnd.obj
 0001:00052480       ?ExecMouseCommand@CMessageWnd@@AAEXIIABVCPoint@@_N@Z 00453480 f   MessageWnd.obj
 0001:00052610       ?OnDestroy@CMessageWnd@@IAEXXZ 00453610 f   MessageWnd.obj
 0001:000526a0       ?ScrollBalloonMsg@CMessageWnd@@AAEXH@Z 004536a0 f   MessageWnd.obj
 0001:00052750       ?CheckScroll@CMessageWnd@@AAEHABVCPoint@@@Z 00453750 f   MessageWnd.obj
 0001:000527c0       ?PreTranslateMessage@CMessageWnd@@UAEHPAUtagMSG@@@Z 004537c0 f   MessageWnd.obj
 0001:00052850       ?ToolTipActivate@CMessageWnd@@AAEX_N@Z 00453850 f   MessageWnd.obj
 0001:000528a0       ?OnNotify@CMessageWnd@@MAEHIJPAJ@Z 004538a0 f   MessageWnd.obj
 0001:000528f0       ?ToolTipDispInfo@CMessageWnd@@AAE_NAAUtagNMTTDISPINFOW@@@Z 004538f0 f   MessageWnd.obj
 0001:00052c40       ?ShowPopupMenu@CMessageWnd@@AAEXXZ 00453c40 f   MessageWnd.obj
 0001:00052ea0       ?OnSysCommand@CMessageWnd@@IAEXIJ@Z 00453ea0 f   MessageWnd.obj
 0001:00052f10       ?OnWindowPosChanged@CMessageWnd@@IAEXPAUtagWINDOWPOS@@@Z 00453f10 f   MessageWnd.obj
 0001:00052f40       ?Get@?$JHashData@D@@QAEPAXPBDH@Z 00453f40 f i MessageWnd.obj
 0001:00052ff0       ?Set@?$JHashData@D@@QAEXPBDPAXH@Z 00453ff0 f i MessageWnd.obj
 0001:00053150       ?GetIndex@?$JHashData@D@@AAEHPBDH@Z 00454150 f i MessageWnd.obj
 0001:000531f0       ??0CMessengerDlg@@QAE@PAVCWnd@@@Z 004541f0 f   MessengerDlg.obj
 0001:000532d0       ??_GCStatusBarCtrl@@UAEPAXI@Z 004542d0 f i MessengerDlg.obj
 0001:000532d0       ??_ECStatusBarCtrl@@UAEPAXI@Z 004542d0 f i MessengerDlg.obj
 0001:00053300       ??_GCTabCtrl@@UAEPAXI@Z    00454300 f i MessengerDlg.obj
 0001:00053300       ??_ECTabCtrl@@UAEPAXI@Z    00454300 f i MessengerDlg.obj
 0001:00053330       ??_ECMessengerDlg@@UAEPAXI@Z 00454330 f i MessengerDlg.obj
 0001:00053330       ??_GCMessengerDlg@@UAEPAXI@Z 00454330 f i MessengerDlg.obj
 0001:00053360       ??1CMessengerDlg@@UAE@XZ   00454360 f i MessengerDlg.obj
 0001:00053430       ?DoDataExchange@CMessengerDlg@@MAEXPAVCDataExchange@@@Z 00454430 f   MessengerDlg.obj
 0001:00053470       ?GetMessageMap@CMessengerDlg@@MBEPBUAFX_MSGMAP@@XZ 00454470 f   MessengerDlg.obj
 0001:00053480       ?OnInitDialog@CMessengerDlg@@MAEHXZ 00454480 f   MessengerDlg.obj
 0001:000539f0       ?OnEditCut@CMessengerDlg@@IAEXXZ 004549f0 f   MessengerDlg.obj
 0001:00053a10       ?OnEditPaste@CMessengerDlg@@IAEXXZ 00454a10 f   MessengerDlg.obj
 0001:00053a30       ?OnEditClear@CMessengerDlg@@IAEXXZ 00454a30 f   MessengerDlg.obj
 0001:00053a50       ?OnEditCopy@CMessengerDlg@@IAEXXZ 00454a50 f   MessengerDlg.obj
 0001:00053a70       ?OnClear@CMessengerDlg@@IAEXXZ 00454a70 f   MessengerDlg.obj
 0001:00053a80       ?GetEditText@CMessengerDlg@@AAEXAAVJWString@@@Z 00454a80 f   MessengerDlg.obj
 0001:00053aa0       ?OnSend@CMessengerDlg@@IAEXXZ 00454aa0 f   MessengerDlg.obj
 0001:00053d90       ?SharedLock@JLockable@@UAE_NJ@Z 00454d90 f i MessengerDlg.obj
 0001:00053da0       ?SharedUnlock@JLockable@@UAEXXZ 00454da0 f i MessengerDlg.obj
 0001:00053db0       ??0JThreadLoop@@QAE@XZ     00454db0 f i MessengerDlg.obj
 0001:00053e00       ??_EJLockable@@UAEPAXI@Z   00454e00 f i MessengerDlg.obj
 0001:00053e00       ??_GJLockable@@UAEPAXI@Z   00454e00 f i MessengerDlg.obj
 0001:00053e30       ??1JThreadLoop@@UAE@XZ     00454e30 f i MessengerDlg.obj
 0001:00053e90       ?Start@JThreadLoop@@UAEHJ@Z 00454e90 f i MessengerDlg.obj
 0001:00053eb0       ?Suspend@JThreadLoop@@UAEHXZ 00454eb0 f i MessengerDlg.obj
 0001:00053ec0       ?Resume@JThreadLoop@@UAEHXZ 00454ec0 f i MessengerDlg.obj
 0001:00053ed0       ?ForceResume@JThreadLoop@@UAEHXZ 00454ed0 f i MessengerDlg.obj
 0001:00053ee0       ?Exit@JThreadLoop@@UAEHXZ  00454ee0 f i MessengerDlg.obj
 0001:00053ef0       ?Sleep@JThreadLoop@@UAEHJ@Z 00454ef0 f i MessengerDlg.obj
 0001:00053f10       ?WaitForThreadRelease@JThreadLoop@@UAEHH@Z 00454f10 f i MessengerDlg.obj
 0001:00053f30       ?Lock@JThreadLoop@@UAE_NJ@Z 00454f30 f i MessengerDlg.obj
 0001:00053f50       ?Unlock@JThreadLoop@@UAEXXZ 00454f50 f i MessengerDlg.obj
 0001:00053f60       ??_GJThreadLoop@@UAEPAXI@Z 00454f60 f i MessengerDlg.obj
 0001:00053f60       ??_EJThreadLoop@@UAEPAXI@Z 00454f60 f i MessengerDlg.obj
 0001:00053f90       ??0SPMsgSender@@QAE@XZ     00454f90 f i MessengerDlg.obj
 0001:000540a0       ??1SPMsgSender@@UAE@XZ     004550a0 f i MessengerDlg.obj
 0001:000541d0       ??_ESPMsgSender@@UAEPAXI@Z 004551d0 f i MessengerDlg.obj
 0001:000541d0       ??_GSPMsgSender@@UAEPAXI@Z 004551d0 f i MessengerDlg.obj
 0001:00054200       ??_GSPMsgSenderIPMessenger@@UAEPAXI@Z 00455200 f i MessengerDlg.obj
 0001:00054200       ??_ESPMsgSenderIPMessenger@@UAEPAXI@Z 00455200 f i MessengerDlg.obj
 0001:00054230       ??_GSPMsgSenderSSTP@@UAEPAXI@Z 00455230 f i MessengerDlg.obj
 0001:00054230       ??_ESPMsgSenderSSTP@@UAEPAXI@Z 00455230 f i MessengerDlg.obj
 0001:00054260       ??1SPMsgSenderIPMessenger@@UAE@XZ 00455260 f i MessengerDlg.obj
 0001:000543a0       ??1SPMsgSenderSSTP@@UAE@XZ 004553a0 f i MessengerDlg.obj
 0001:000544e0       ?OnDestroy@CMessengerDlg@@IAEXXZ 004554e0 f   MessengerDlg.obj
 0001:000545e0       ?OnCommand@CMessengerDlg@@MAEHIJ@Z 004555e0 f   MessengerDlg.obj
 0001:00054630       ?SetListNum@CMessengerDlg@@AAEXK@Z 00455630 f   MessengerDlg.obj
 0001:000546b0       ?SetLogNum@CMessengerDlg@@AAEXK@Z 004556b0 f   MessengerDlg.obj
 0001:00054730       ?UpdateMsgListIfSelected@CMessengerDlg@@AAEXK@Z 00455730 f   MessengerDlg.obj
 0001:00054760       ?UpdateMsgList@CMessengerDlg@@AAEXXZ 00455760 f   MessengerDlg.obj
 0001:000549c0       ?UpdateUserList@CMessengerDlg@@AAEXXZ 004559c0 f   MessengerDlg.obj
 0001:00054c30       ?UpdateEditBytes@CMessengerDlg@@AAEXXZ 00455c30 f   MessengerDlg.obj
 0001:00054d70       ?UpdateType@CMessengerDlg@@AAEXXZ 00455d70 f   MessengerDlg.obj
 0001:00054dd0       ?GetUser@CMessengerDlg@@AAEPAVSPMessengerUser@@K@Z 00455dd0 f   MessengerDlg.obj
 0001:00054e40       ?GetSelUser@CMessengerDlg@@AAEPAVSPMessengerUser@@XZ 00455e40 f   MessengerDlg.obj
 0001:00054e50       ?ClearForm@CMessengerDlg@@QAEXXZ 00455e50 f   MessengerDlg.obj
 0001:00054e80       ?OnOK@CSSPProperty@@MAEXXZ 00455e80 f   MessengerDlg.obj
 0001:00054e80       ?OnClose2@CMessengerDlg@@IAEXXZ 00455e80 f   MessengerDlg.obj
 0001:00054e90       ?AdjustListColumn@CMessengerDlg@@AAEXXZ 00455e90 f   MessengerDlg.obj
 0001:00054f00       ?UpdateMenuState@CMessengerDlg@@AAEXPAUHMENU__@@@Z 00455f00 f   MessengerDlg.obj
 0001:00054f50       ?CMessengerDlg_UpdateUserList@@YAXXZ 00455f50 f   MessengerDlg.obj
 0001:00054f70       ?CMessengerDlg_UpdateMsgList@@YAXI@Z 00455f70 f   MessengerDlg.obj
 0001:00054fa0       ?OnMessenger@CMessengerDlg@@IAEJIJ@Z 00455fa0 f   MessengerDlg.obj
 0001:00055000       ?OnTimer@CMessengerDlg@@IAEXI@Z 00456000 f   MessengerDlg.obj
 0001:00055030       ?OnSize@CMessengerDlg@@IAEXIHH@Z 00456030 f   MessengerDlg.obj
 0001:000550a0       ?OnChangeMessage@CMessengerDlg@@IAEXXZ 004560a0 f   MessengerDlg.obj
 0001:000550b0       ?OnRclickUsertab@CMessengerDlg@@IAEXPAUtagNMHDR@@PAJ@Z 004560b0 f   MessengerDlg.obj
 0001:000551e0       ?OnSelchangeUsertab@CMessengerDlg@@IAEXPAUtagNMHDR@@PAJ@Z 004561e0 f   MessengerDlg.obj
 0001:00055230       ?OnBnClickedTest@CMessengerDlg@@QAEXXZ 00456230 f   MessengerDlg.obj
 0001:00055340       ?UserCommand@CMessengerDlg@@AAE_NIJK@Z 00456340 f   MessengerDlg.obj
 0001:000553c0       ?UserDelete@CMessengerDlg@@AAEXK@Z 004563c0 f   MessengerDlg.obj
 0001:00055430       ?UserNew@CMessengerDlg@@AAEXXZ 00456430 f   MessengerDlg.obj
 0001:00055500       ?UserProp@CMessengerDlg@@AAEXK@Z 00456500 f   MessengerDlg.obj
 0001:000555b0       ?CmdUpdateUserList@CMessengerDlg@@AAEXXZ 004565b0 f   MessengerDlg.obj
 0001:000555f0       ?UserLogDel@CMessengerDlg@@AAEXK@Z 004565f0 f   MessengerDlg.obj
 0001:00055610       ?OnGetMinMaxInfo@CMessengerDlg@@IAEXPAUtagMINMAXINFO@@@Z 00456610 f   MessengerDlg.obj
 0001:000556b0       ?CreateObject@CMessengerSettingDlg@@SGPAVCObject@@XZ 004566b0 f   MessengerSettingDlg.obj
 0001:00055710       ?GetRuntimeClass@CMessengerSettingDlg@@UBEPAUCRuntimeClass@@XZ 00456710 f   MessengerSettingDlg.obj
 0001:00055720       ??0CMessengerSettingDlg@@QAE@PAVCWnd@@@Z 00456720 f   MessengerSettingDlg.obj
 0001:00055750       ??_ECExtAppDlg@@UAEPAXI@Z  00456750 f i MessengerSettingDlg.obj
 0001:00055750       ??_ECMessengerSettingDlg@@UAEPAXI@Z 00456750 f i MessengerSettingDlg.obj
 0001:00055750       ??_GCMessengerSettingDlg@@UAEPAXI@Z 00456750 f i MessengerSettingDlg.obj
 0001:00055750       ??_GCExtAppDlg@@UAEPAXI@Z  00456750 f i MessengerSettingDlg.obj
 0001:00055780       ?GetMessageMap@CMessengerSettingDlg@@MBEPBUAFX_MSGMAP@@XZ 00456780 f   MessengerSettingDlg.obj
 0001:00055790       ?OnInitDialog@CMessengerSettingDlg@@MAEHXZ 00456790 f   MessengerSettingDlg.obj
 0001:00055890       ?OnChangeGroupname@CMessengerSettingDlg@@IAEXXZ 00456890 f   MessengerSettingDlg.obj
 0001:000559a0       ?OnChangeName@CMessengerSettingDlg@@IAEXXZ 004569a0 f   MessengerSettingDlg.obj
 0001:00055ab0       ?OnNotranslate@CMessengerSettingDlg@@IAEXXZ 00456ab0 f   MessengerSettingDlg.obj
 0001:00055ae0       ?OnAutoclear@CMessengerSettingDlg@@IAEXXZ 00456ae0 f   MessengerSettingDlg.obj
 0001:00055b10       ??0CMessengerUserDlg@@QAE@PAVCWnd@@@Z 00456b10 f   MessengerUserDlg.obj
 0001:00055b40       ??_GCMessengerUserDlg@@UAEPAXI@Z 00456b40 f i MessengerUserDlg.obj
 0001:00055b40       ??_ECMessengerUserDlg@@UAEPAXI@Z 00456b40 f i MessengerUserDlg.obj
 0001:00055b70       ?GetMessageMap@CMessengerUserDlg@@MBEPBUAFX_MSGMAP@@XZ 00456b70 f   MessengerUserDlg.obj
 0001:00055b80       ?OnOK@CMessengerUserDlg@@MAEXXZ 00456b80 f   MessengerUserDlg.obj
 0001:00055ce0       ?OnDirectip@CMessengerUserDlg@@IAEXXZ 00456ce0 f   MessengerUserDlg.obj
 0001:00055d10       ?OnCancel@CMessengerUserDlg@@MAEXXZ 00456d10 f   MessengerUserDlg.obj
 0001:00055d20       ?OnInitDialog@CMessengerUserDlg@@MAEHXZ 00456d20 f   MessengerUserDlg.obj
 0001:00055f00       ?DoModal@CModuleCharset@@MAEHXZ 00456f00 f   MessengerUserDlg.obj
 0001:00055f00       ?DoModal@CPopAccountDlg@@MAEHXZ 00456f00 f   MessengerUserDlg.obj
 0001:00055f00       ?DoModal@CMessengerUserDlg@@MAEHXZ 00456f00 f   MessengerUserDlg.obj
 0001:00055f00       ?DoModal@CFolderEditDlg@@MAEHXZ 00456f00 f   MessengerUserDlg.obj
 0001:00055f10       ?DoModalExt@CMessengerUserDlg@@QAEHPAVCWnd@@@Z 00456f10 f   MessengerUserDlg.obj
 0001:000560c0       ??0CModuleCharset@@QAE@PAVCWnd@@@Z 004570c0 f   ModuleCharset.obj
 0001:000560f0       ??_ECModuleCharset@@UAEPAXI@Z 004570f0 f i ModuleCharset.obj
 0001:000560f0       ??_GCModuleCharset@@UAEPAXI@Z 004570f0 f i ModuleCharset.obj
 0001:00056120       ?GetMessageMap@CModuleCharset@@MBEPBUAFX_MSGMAP@@XZ 00457120 f   ModuleCharset.obj
 0001:00056130       ?OnInitDialog@CModuleCharset@@MAEHXZ 00457130 f   ModuleCharset.obj
 0001:00056260       ?CModuleCharset_SetCombo@@YAXPAUHWND__@@PBD@Z 00457260 f   ModuleCharset.obj
 0001:00056380       ?CModuleCharset_GetCombo@@YAPBUtagJGX_LOCALE_TABLE@@PAUHWND__@@@Z 00457380 f   ModuleCharset.obj
 0001:000563d0       ?SetCombo@CModuleCharset@@AAEXHPBD@Z 004573d0 f   ModuleCharset.obj
 0001:00056410       ?SetPropA@CModuleCharset@@AAEXHPBD@Z 00457410 f   ModuleCharset.obj
 0001:00056470       ?OnOK@CModuleCharset@@UAEXXZ 00457470 f   ModuleCharset.obj
 0001:000564d0       ?DoModalExt@CModuleCharset@@QAEHPAVSPGhost@@PAVCWnd@@@Z 004574d0 f   ModuleCharset.obj
 0001:00056710       ??0CMyComboBoxEx@@QAE@XZ   00457710 f   MyComboBoxEx.obj
 0001:00056730       ??_ECMyComboBoxEx@@UAEPAXI@Z 00457730 f i MyComboBoxEx.obj
 0001:00056730       ??_GCMyComboBoxEx@@UAEPAXI@Z 00457730 f i MyComboBoxEx.obj
 0001:00056760       ??1CMyComboBoxEx@@UAE@XZ   00457760 f   MyComboBoxEx.obj
 0001:00056770       ?AddString@CMyComboBoxEx@@QAEHPBD@Z 00457770 f   MyComboBoxEx.obj
 0001:000567b0       ?InsertString@CMyComboBoxEx@@QAEHHPBD@Z 004577b0 f   MyComboBoxEx.obj
 0001:000567e0       ?InsertStringW@CMyComboBoxEx@@QAEHHPBG@Z 004577e0 f   MyComboBoxEx.obj
 0001:00056820       ?GetMessageMap@CMyComboBoxEx@@MBEPBUAFX_MSGMAP@@XZ 00457820 f   MyComboBoxEx.obj
 0001:00056830       ??0CNetworkDlg@@QAE@PAVCWnd@@@Z 00457830 f   NetworkDlg.obj
 0001:000568f0       ??_ECNetworkDlg@@UAEPAXI@Z 004578f0 f i NetworkDlg.obj
 0001:000568f0       ??_GCNetworkDlg@@UAEPAXI@Z 004578f0 f i NetworkDlg.obj
 0001:00056920       ??1CNetworkDlg@@UAE@XZ     00457920 f i NetworkDlg.obj
 0001:000569c0       ?DoDataExchange@CNetworkDlg@@MAEXPAVCDataExchange@@@Z 004579c0 f   NetworkDlg.obj
 0001:00056a40       ?GetMessageMap@CNetworkDlg@@MBEPBUAFX_MSGMAP@@XZ 00457a40 f   NetworkDlg.obj
 0001:00056a50       ?OnInitDialog@CNetworkDlg@@MAEHXZ 00457a50 f   NetworkDlg.obj
 0001:00056ec0       ?OnEnableproxy@CNetworkDlg@@IAEXXZ 00457ec0 f   NetworkDlg.obj
 0001:00056f30       ?SetEnable@CNetworkDlg@@AAEXXZ 00457f30 f   NetworkDlg.obj
 0001:00057050       ?OnChangeProxyaddress@CNetworkDlg@@IAEXXZ 00458050 f   NetworkDlg.obj
 0001:00057170       ?OnChangeProxyport@CNetworkDlg@@IAEXXZ 00458170 f   NetworkDlg.obj
 0001:000571d0       ?OnConnectionLimit@CNetworkDlg@@IAEXXZ 004581d0 f   NetworkDlg.obj
 0001:00057220       ?OnChangeConnectionLimitStart@CNetworkDlg@@IAEXPAUtagNMHDR@@PAJ@Z 00458220 f   NetworkDlg.obj
 0001:000572b0       ?OnChangeConnectionLimitStop@CNetworkDlg@@IAEXPAUtagNMHDR@@PAJ@Z 004582b0 f   NetworkDlg.obj
 0001:00057340       ?OnUseSystemSetting@CNetworkDlg@@IAEXXZ 00458340 f   NetworkDlg.obj
 0001:000573e0       ?SetProxyAddr@CNetworkDlg@@AAEXXZ 004583e0 f   NetworkDlg.obj
 0001:000574e0       ?OnChangeProxyUser@CNetworkDlg@@IAEXXZ 004584e0 f   NetworkDlg.obj
 0001:00057600       ?OnChangeProxyPass@CNetworkDlg@@IAEXXZ 00458600 f   NetworkDlg.obj
 0001:00057720       ?OnConnectionAsk@CNetworkDlg@@IAEXXZ 00458720 f   NetworkDlg.obj
 0001:00057770       ?OnChangeSntpDuration@CNetworkDlg@@IAEXXZ 00458770 f   NetworkDlg.obj
 0001:000577c0       ?OnSntpAutoClick@CNetworkDlg@@IAEXXZ 004587c0 f   NetworkDlg.obj
 0001:00057840       ?OnSntpCheck@CNetworkDlg@@IAEXXZ 00458840 f   NetworkDlg.obj
 0001:00057860       ?OnHttpCheck@CNetworkDlg@@IAEXXZ 00458860 f   NetworkDlg.obj
 0001:00057880       ?OnChangeSntpAddress@CNetworkDlg@@IAEXXZ 00458880 f   NetworkDlg.obj
 0001:000578d0       ?OnChangeHttpAddress@CNetworkDlg@@IAEXXZ 004588d0 f   NetworkDlg.obj
 0001:00057920       ?OnSelchangeSntpAddress@CNetworkDlg@@IAEXXZ 00458920 f   NetworkDlg.obj
 0001:000579d0       ?OnSelchangeHttpAddress@CNetworkDlg@@IAEXXZ 004589d0 f   NetworkDlg.obj
 0001:000579f0       ?OnSelChangeProxyType@CNetworkDlg@@IAEXXZ 004589f0 f   NetworkDlg.obj
 0001:00057a20       ?SetProxySettingFromCombo@CNetworkDlg@@AAEXXZ 00458a20 f   NetworkDlg.obj
 0001:00057aa0       ?OnSelchangeProtocol@CNetworkDlg@@IAEXXZ 00458aa0 f   NetworkDlg.obj
 0001:00057af0       ?OnSslVerify@CNetworkDlg@@IAEXXZ 00458af0 f   NetworkDlg.obj
 0001:00057b30       ?CreateObject@CNetworkExtDlg@@SGPAVCObject@@XZ 00458b30 f   NetworkExtDlg.obj
 0001:00057b90       ?GetRuntimeClass@CNetworkExtDlg@@UBEPAUCRuntimeClass@@XZ 00458b90 f   NetworkExtDlg.obj
 0001:00057ba0       ??0CNetworkExtDlg@@QAE@PAVCWnd@@@Z 00458ba0 f   NetworkExtDlg.obj
 0001:00057c50       ??_ECNetworkExtDlg@@UAEPAXI@Z 00458c50 f i NetworkExtDlg.obj
 0001:00057c50       ??_GCNetworkExtDlg@@UAEPAXI@Z 00458c50 f i NetworkExtDlg.obj
 0001:00057c80       ??1CNetworkExtDlg@@UAE@XZ  00458c80 f i NetworkExtDlg.obj
 0001:00057d10       ?DoDataExchange@CNetworkExtDlg@@MAEXPAVCDataExchange@@@Z 00458d10 f   NetworkExtDlg.obj
 0001:00057d60       ?GetMessageMap@CNetworkExtDlg@@MBEPBUAFX_MSGMAP@@XZ 00458d60 f   NetworkExtDlg.obj
 0001:00057d70       ?OnInitDialog@CNetworkExtDlg@@MAEHXZ 00458d70 f   NetworkExtDlg.obj
 0001:00058070       ?OnDestroy@CNetworkExtDlg@@IAEXXZ 00459070 f   NetworkExtDlg.obj
 0001:000580c0       ?OnAutoheadline@CNetworkExtDlg@@IAEXXZ 004590c0 f   NetworkExtDlg.obj
 0001:00058180       ?OnChangeHeadlineInterval@CNetworkExtDlg@@IAEXXZ 00459180 f   NetworkExtDlg.obj
 0001:000581d0       ?OnHeadlinePlay@CNetworkExtDlg@@IAEXXZ 004591d0 f   NetworkExtDlg.obj
 0001:00058360       ?OnHeadlineNone@CNetworkExtDlg@@IAEXXZ 00459360 f   NetworkExtDlg.obj
 0001:00058390       ?OnHeadlineBrowse@CNetworkExtDlg@@IAEXXZ 00459390 f   NetworkExtDlg.obj
 0001:000584c0       ?OnChangeHeadlineSoundpath@CNetworkExtDlg@@IAEXXZ 004594c0 f   NetworkExtDlg.obj
 0001:000585d0       ?OnSstpAdd@CNetworkExtDlg@@IAEXXZ 004595d0 f   NetworkExtDlg.obj
 0001:00058710       ?OnSstpDel@CNetworkExtDlg@@IAEXXZ 00459710 f   NetworkExtDlg.obj
 0001:00058770       ?OnSstpOnOff@CNetworkExtDlg@@IAEXXZ 00459770 f   NetworkExtDlg.obj
 0001:000587f0       ?OnDblclkSstpList@CNetworkExtDlg@@IAEXPAUtagNMHDR@@PAJ@Z 004597f0 f   NetworkExtDlg.obj
 0001:00058810       ?OnRclickSstpList@CNetworkExtDlg@@IAEXPAUtagNMHDR@@PAJ@Z 00459810 f   NetworkExtDlg.obj
 0001:00058980       ?InitSSTPList@CNetworkExtDlg@@AAEXXZ 00459980 f   NetworkExtDlg.obj
 0001:00058b80       ?OnSelchangeGhostBoot@CNetworkExtDlg@@IAEXXZ 00459b80 f   NetworkExtDlg.obj
 0001:00058be0       ?OnSelchangeAfterBoot@CNetworkExtDlg@@IAEXXZ 00459be0 f   NetworkExtDlg.obj
 0001:00058dc0       ?OnListInstalledToFmo@CNetworkExtDlg@@IAEXXZ 00459dc0 f   NetworkExtDlg.obj
 0001:00058e20       ?OnChangeTmpghostMax@CNetworkExtDlg@@IAEXXZ 00459e20 f   NetworkExtDlg.obj
 0001:00058e70       ?OnChangeTmpghostInterval@CNetworkExtDlg@@IAEXXZ 00459e70 f   NetworkExtDlg.obj
 0001:00058ec0       ?StateChangeSSTP@CNetworkExtDlg@@AAEXXZ 00459ec0 f   NetworkExtDlg.obj
 0001:00058f50       ?OnSstpLog@CNetworkExtDlg@@IAEXXZ 00459f50 f   NetworkExtDlg.obj
 0001:000590e0       ?OnNoBlockChoice@CNetworkExtDlg@@IAEXXZ 0045a0e0 f   NetworkExtDlg.obj
 0001:00059130       ?OnHeadlineCountManualUpdate@CNetworkExtDlg@@IAEXXZ 0045a130 f   NetworkExtDlg.obj
 0001:00059180       ?OnNoSstpTranslateEvent@CNetworkExtDlg@@IAEXXZ 0045a180 f   NetworkExtDlg.obj
 0001:000591d0       ??0CNoGhostDlg@@QAE@PAVCWnd@@@Z 0045a1d0 f   NoGhostDlg.obj
 0001:00059200       ??_GCNoGhostDlg@@UAEPAXI@Z 0045a200 f i NoGhostDlg.obj
 0001:00059200       ??_ECNoGhostDlg@@UAEPAXI@Z 0045a200 f i NoGhostDlg.obj
 0001:00059230       ?GetMessageMap@CNoGhostDlg@@MBEPBUAFX_MSGMAP@@XZ 0045a230 f   NoGhostDlg.obj
 0001:00059240       ?OnInitDialog@CNoGhostDlg@@MAEHXZ 0045a240 f   NoGhostDlg.obj
 0001:000592c0       ?OnShowWindow@CNoGhostDlg@@IAEXHI@Z 0045a2c0 f   NoGhostDlg.obj
 0001:000592e0       ?DestroyWindow@CNoGhostDlg@@UAEHXZ 0045a2e0 f   NoGhostDlg.obj
 0001:000592f0       ?OnDropFiles@CNoGhostDlg@@IAEXPAUHDROP__@@@Z 0045a2f0 f   NoGhostDlg.obj
 0001:00059510       ?UpdateNum@CNoGhostDlg@@AAE_NXZ 0045a510 f   NoGhostDlg.obj
 0001:00059580       ?DoModalExt@CNoGhostDlg@@QAEHPAVCWnd@@@Z 0045a580 f   NoGhostDlg.obj
 0001:00059740       ?OnGhostEdit@CNoGhostDlg@@IAEXXZ 0045a740 f   NoGhostDlg.obj
 0001:00059920       ?OnBalloonEdit@CNoGhostDlg@@IAEXXZ 0045a920 f   NoGhostDlg.obj
 0001:00059b00       ?WindowProc@CNoGhostDlg@@MAEJIIJ@Z 0045ab00 f   NoGhostDlg.obj
 0001:00059b60       ?Load@CPlaySSFData@@QAE_NPBG@Z 0045ab60 f   PlaySSFDlg.obj
 0001:0005a1d0       ?Play@CPlaySSFData@@QAEXXZ 0045b1d0 f   PlaySSFDlg.obj
 0001:0005a210       ?PlayProc@CPlaySSFData@@QAEXPCH@Z 0045b210 f   PlaySSFDlg.obj
 0001:0005a2e0       ?PlayProcReal@CPlaySSFData@@AAEXPCH@Z 0045b2e0 f   PlaySSFDlg.obj
 0001:0005a970       ?Cancel@CPlaySSFData@@QAEXXZ 0045b970 f   PlaySSFDlg.obj
 0001:0005a9a0       ??0CPlaySSFDlg@@QAE@PAVCWnd@@@Z 0045b9a0 f   PlaySSFDlg.obj
 0001:0005a9e0       ??_GCPlaySSFDlg@@UAEPAXI@Z 0045b9e0 f i PlaySSFDlg.obj
 0001:0005a9e0       ??_ECPlaySSFDlg@@UAEPAXI@Z 0045b9e0 f i PlaySSFDlg.obj
 0001:0005aa10       ??1CPlaySSFDlg@@UAE@XZ     0045ba10 f   PlaySSFDlg.obj
 0001:0005ab40       ?GetMessageMap@CPlaySSFDlg@@MBEPBUAFX_MSGMAP@@XZ 0045bb40 f   PlaySSFDlg.obj
 0001:0005ab50       ?OnInitDialog@CPlaySSFDlg@@MAEHXZ 0045bb50 f   PlaySSFDlg.obj
 0001:0005abc0       ?CreateMe@CPlaySSFDlg@@QAE_NXZ 0045bbc0 f   PlaySSFDlg.obj
 0001:0005ae60       ?PlaySSF@CPlaySSFDlg@@QAEXPBG@Z 0045be60 f   PlaySSFDlg.obj
 0001:0005b150       ?OnPlay@CPlaySSFDlg@@IAEXXZ 0045c150 f   PlaySSFDlg.obj
 0001:0005b170       ?OnCancel@CPlaySSFDlg@@MAEXXZ 0045c170 f   PlaySSFDlg.obj
 0001:0005b1e0       ?OnCtlColor@CPlaySSFDlg@@IAEPAUHBRUSH__@@PAVCDC@@PAVCWnd@@I@Z 0045c1e0 f   PlaySSFDlg.obj
 0001:0005b220       ?OnCreateClick@CPlaySSFDlg@@IAEXXZ 0045c220 f   PlaySSFDlg.obj
 0001:0005b260       ?OnSetCursor@CPlaySSFDlg@@IAEHPAVCWnd@@II@Z 0045c260 f   PlaySSFDlg.obj
 0001:0005b2a0       ??0?$JPtrArray@PAVSPGhost@@@@QAE@J@Z 0045c2a0 f i PlaySSFDlg.obj
 0001:0005b300       ??0?$JPtrArray@PAVCPlaySSFScript@@@@QAE@J@Z 0045c300 f i PlaySSFDlg.obj
 0001:0005b360       ?DeleteAllObject@?$JPtrArray@PAVCPlaySSFScript@@@@QAEXXZ 0045c360 f i PlaySSFDlg.obj
 0001:0005b3d0       ??_GCPlaySSFScript@@QAEPAXI@Z 0045c3d0 f i PlaySSFDlg.obj
 0001:0005b400       ??1CPlaySSFScript@@QAE@XZ  0045c400 f i PlaySSFDlg.obj
 0001:0005b450       ??0CPopAccountDlg@@QAE@PAVCWnd@@@Z 0045c450 f   PopAccountDlg.obj
 0001:0005b4c0       ??_GCPopAccountDlg@@UAEPAXI@Z 0045c4c0 f i PopAccountDlg.obj
 0001:0005b4c0       ??_ECPopAccountDlg@@UAEPAXI@Z 0045c4c0 f i PopAccountDlg.obj
 0001:0005b4f0       ??1CPopAccountDlg@@UAE@XZ  0045c4f0 f i PopAccountDlg.obj
 0001:0005b550       ?DoDataExchange@CPopAccountDlg@@MAEXPAVCDataExchange@@@Z 0045c550 f   PopAccountDlg.obj
 0001:0005b570       ?GetMessageMap@CPopAccountDlg@@MBEPBUAFX_MSGMAP@@XZ 0045c570 f   PopAccountDlg.obj
 0001:0005b580       ?OnInitDialog@CPopAccountDlg@@MAEHXZ 0045c580 f   PopAccountDlg.obj
 0001:0005b730       ?OnOK@CPopAccountDlg@@MAEXXZ 0045c730 f   PopAccountDlg.obj
 0001:0005b8d0       ?OnPopPortDefault@CPopAccountDlg@@IAEXXZ 0045c8d0 f   PopAccountDlg.obj
 0001:0005b950       ?OnPopMailerBrowse@CPopAccountDlg@@IAEXXZ 0045c950 f   PopAccountDlg.obj
 0001:0005ba00       ?CreateObject@CPopDlg@@SGPAVCObject@@XZ 0045ca00 f   PopDlg.obj
 0001:0005ba60       ?GetRuntimeClass@CPopDlg@@UBEPAUCRuntimeClass@@XZ 0045ca60 f   PopDlg.obj
 0001:0005ba70       ??0CPopDlg@@QAE@PAVCWnd@@@Z 0045ca70 f   PopDlg.obj
 0001:0005bae0       ??_ECPopDlg@@UAEPAXI@Z     0045cae0 f i PopDlg.obj
 0001:0005bae0       ??_GCPopDlg@@UAEPAXI@Z     0045cae0 f i PopDlg.obj
 0001:0005bb10       ??1CPopDlg@@UAE@XZ         0045cb10 f i PopDlg.obj
 0001:0005bb70       ?DoDataExchange@CPopDlg@@MAEXPAVCDataExchange@@@Z 0045cb70 f   PopDlg.obj
 0001:0005bb90       ?GetMessageMap@CPopDlg@@MBEPBUAFX_MSGMAP@@XZ 0045cb90 f   PopDlg.obj
 0001:0005bba0       ?GetListSel@CPopDlg@@QAEHXZ 0045cba0 f   PopDlg.obj
 0001:0005bbe0       ?OnInitDialog@CPopDlg@@MAEHXZ 0045cbe0 f   PopDlg.obj
 0001:0005be20       ?UpdateList@CPopDlg@@QAEXH@Z 0045ce20 f   PopDlg.obj
 0001:0005c070       ?UpdateButtonState@CPopDlg@@QAEXXZ 0045d070 f   PopDlg.obj
 0001:0005c210       ?OnPopAdd@CPopDlg@@IAEXXZ  0045d210 f   PopDlg.obj
 0001:0005c3c0       ??_GSPPopAccountProfile@@UAEPAXI@Z 0045d3c0 f i PopDlg.obj
 0001:0005c3c0       ??_ESPPopAccountProfile@@UAEPAXI@Z 0045d3c0 f i PopDlg.obj
 0001:0005c3f0       ??1SPPopAccountProfile@@UAE@XZ 0045d3f0 f i PopDlg.obj
 0001:0005c480       ?OnPopModify@CPopDlg@@IAEXXZ 0045d480 f   PopDlg.obj
 0001:0005c6a0       ??0JString@@QAE@ABV0@@Z    0045d6a0 f i PopDlg.obj
 0001:0005c6f0       ?OnPopCopy@CPopDlg@@IAEXXZ 0045d6f0 f   PopDlg.obj
 0001:0005c750       ?OnPopDel@CPopDlg@@IAEXXZ  0045d750 f   PopDlg.obj
 0001:0005c7b0       ?OnFolderUp@CPopDlg@@IAEXXZ 0045d7b0 f   PopDlg.obj
 0001:0005c7f0       ?OnFolderDown@CPopDlg@@IAEXXZ 0045d7f0 f   PopDlg.obj
 0001:0005c840       ?OnCheckMailHeader@CPopDlg@@IAEXXZ 0045d840 f   PopDlg.obj
 0001:0005c890       ?OnCheckNotifyOnlyNew@CPopDlg@@IAEXXZ 0045d890 f   PopDlg.obj
 0001:0005c8e0       ?OnCheckNotifyWhenNew@CPopDlg@@IAEXXZ 0045d8e0 f   PopDlg.obj
 0001:0005c930       ?OnPopPlay@CPopDlg@@IAEXXZ 0045d930 f   PopDlg.obj
 0001:0005cac0       ?OnPopNone@CPopDlg@@IAEXXZ 0045dac0 f   PopDlg.obj
 0001:0005caf0       ?OnPopBrowse@CPopDlg@@IAEXXZ 0045daf0 f   PopDlg.obj
 0001:0005cc20       ?OnChangePopSound@CPopDlg@@IAEXXZ 0045dc20 f   PopDlg.obj
 0001:0005cd30       ?OnDblclkPopList@CPopDlg@@IAEXPAUtagNMHDR@@PAJ@Z 0045dd30 f   PopDlg.obj
 0001:0005cd50       ?OnItemChangedPopList@CPopDlg@@IAEXPAUtagNMHDR@@PAJ@Z 0045dd50 f   PopDlg.obj
 0001:0005cdf0       ?OnDestroy@CPopDlg@@IAEXXZ 0045ddf0 f   PopDlg.obj
 0001:0005ce10       ?GetPreTranslateShim@@YAAAVCPreTranslateShim@@XZ 0045de10 f   PreTranslateMessageProcessor.obj
 0001:0005ce60       ??0CPreTranslateShim@@QAE@XZ 0045de60 f   PreTranslateMessageProcessor.obj
 0001:0005cf00       ??1CPreTranslateShim@@QAE@XZ 0045df00 f   PreTranslateMessageProcessor.obj
 0001:0005cf30       ?PreTranslate@CPreTranslateShim@@QAEHPAUHWND__@@AAI1AAJ@Z 0045df30 f   PreTranslateMessageProcessor.obj
 0001:0005d3f0       ?MultipleCancel@CPreTranslateShim@@QAEXPAUHWND__@@IIJ@Z 0045e3f0 f   PreTranslateMessageProcessor.obj
 0001:0005d440       ?SetMultiple@CPreTranslateShim@@QAEXPAUHWND__@@@Z 0045e440 f   PreTranslateMessageProcessor.obj
 0001:0005d570       ?ResetMultiple@CPreTranslateShim@@QAEXPAUHWND__@@@Z 0045e570 f   PreTranslateMessageProcessor.obj
 0001:0005d6d0       ??0CProgressWnd@@QAE@XZ    0045e6d0 f   ProgressWnd.obj
 0001:0005d7f0       ??_ECProgressWnd@@UAEPAXI@Z 0045e7f0 f i ProgressWnd.obj
 0001:0005d7f0       ??_GCProgressWnd@@UAEPAXI@Z 0045e7f0 f i ProgressWnd.obj
 0001:0005d820       ??1CProgressWnd@@UAE@XZ    0045e820 f   ProgressWnd.obj
 0001:0005d880       ?GetMessageMap@CProgressWnd@@MBEPBUAFX_MSGMAP@@XZ 0045e880 f   ProgressWnd.obj
 0001:0005d890       ?CreateMe@CProgressWnd@@QAEHXZ 0045e890 f   ProgressWnd.obj
 0001:0005dac0       ?OnDestroy@CProgressWnd@@IAEXXZ 0045eac0 f   ProgressWnd.obj
 0001:0005db10       ?SetMsg@CProgressWnd@@QAEXPBG@Z 0045eb10 f   ProgressWnd.obj
 0001:0005db40       ?OnPaint@CProgressWnd@@IAEXXZ 0045eb40 f   ProgressWnd.obj
 0001:0005dd10       ?OnShowWindow@CProgressWnd@@IAEXHI@Z 0045ed10 f   ProgressWnd.obj
 0001:0005dd10       ?OnShowWindow@CStatusWnd@@IAEXHI@Z 0045ed10 f   ProgressWnd.obj
 0001:0005dd70       ?GetMessageMap@CSakuraApp@@MBEPBUAFX_MSGMAP@@XZ 0045ed70 f   sakura.obj
 0001:0005dd80       ??0CSakuraApp@@QAE@XZ      0045ed80 f   sakura.obj
 0001:0005ded0       ??_ECSakuraApp@@UAEPAXI@Z  0045eed0 f i sakura.obj
 0001:0005ded0       ??_GCSakuraApp@@UAEPAXI@Z  0045eed0 f i sakura.obj
 0001:0005df00       ??_F?$JPtrArray@PAG@@QAEXXZ 0045ef00 f i sakura.obj
 0001:0005df10       ??1CSakuraApp@@UAE@XZ      0045ef10 f i sakura.obj
 0001:0005e030       ?SPSendDirectSSTP@@YAHPAUHWND__@@AAVJString@@@Z 0045f030 f   sakura.obj
 0001:0005e070       ?Player_SPSEfpieee_handler@@YAHPAU_FPIEEE_RECORD@@@Z 0045f070 f   sakura.obj
 0001:0005e080       __matherr                  0045f080 f   sakura.obj
 0001:0005e210       ?InitInstance@CSakuraApp@@UAEHXZ 0045f210 f   sakura.obj
 0001:0005f7d0       ??1SPVistaExtendFsRedirectDisable@@QAE@XZ 004607d0 f i sakura.obj
 0001:00060510       ?ExitInstance@CSakuraApp@@UAEHXZ 00461510 f   sakura.obj
 0001:00060780       ?RegisterSSPWindowClasses@CSakuraApp@@AAEXXZ 00461780 f   sakura.obj
 0001:00060930       ?IsGhostWindow@CSakuraApp@@QAE_NPAUHWND__@@@Z 00461930 f   sakura.obj
 0001:00060990       ?CallHtmlHelp@CSakuraApp@@QAE_NPBGIK@Z 00461990 f   sakura.obj
 0001:00060ab0       ?LoadSmallIcon@CSakuraApp@@QAEPAUHICON__@@I@Z 00461ab0 f   sakura.obj
 0001:00060ae0       ?PreTranslateMessage@CSakuraApp@@UAEHPAUtagMSG@@@Z 00461ae0 f   sakura.obj
 0001:00060b80       ?ParseCommandLineX@CSakuraApp@@AAEXXZ 00461b80 f   sakura.obj
 0001:000616b0       ?WinHelpA@CMainFrame@@UAEXKI@Z 004626b0 f   sakura.obj
 0001:000616b0       ?WinHelpA@CSakuraApp@@UAEXKI@Z 004626b0 f   sakura.obj
 0001:000616c0       ?CreateSakuraMutex@CSakuraApp@@SAXXZ 004626c0 f   sakura.obj
 0001:00061790       ?RegisterAllHotKey@CSakuraApp@@QAEXH@Z 00462790 f   sakura.obj
 0001:00061830       ?GetArgvTable@CSakuraApp@@QAEPBGG@Z 00462830 f   sakura.obj
 0001:00061890       ?GetArgvTableArray@CSakuraApp@@QAEPBV?$JPtrArray@PAG@@G@Z 00462890 f   sakura.obj
 0001:000618e0       ?OnIdle@CSakuraApp@@UAEHJ@Z 004628e0 f   sakura.obj
 0001:00061910       ?SPCreateFontIndirect@CFontExtend@@QAEHPBUtagLOGFONTW@@@Z 00462910 f   sakura.obj
 0001:00061950       ??1?$CWinThreadAdapter@VCWinApp@@@@UAE@XZ 00462950 f i sakura.obj
 0001:00061960       ??_G?$CWinThreadAdapter@VCWinApp@@@@UAEPAXI@Z 00462960 f i sakura.obj
 0001:00061960       ??_E?$CWinThreadAdapter@VCWinApp@@@@UAEPAXI@Z 00462960 f i sakura.obj
 0001:000619d0       ??0CSakuraDropTarget@@QAE@XZ 004629d0 f   SakuraDropTarget.obj
 0001:00061aa0       ??_GCSakuraDropTarget@@UAEPAXI@Z 00462aa0 f i SakuraDropTarget.obj
 0001:00061aa0       ??_ECSakuraDropTarget@@UAEPAXI@Z 00462aa0 f i SakuraDropTarget.obj
 0001:00061ad0       ??1CSakuraDropTarget@@UAE@XZ 00462ad0 f   SakuraDropTarget.obj
 0001:00061b40       ?DragEnter@CSakuraDropTarget@@UAGJPAUIDataObject@@KU_POINTL@@PAK@Z 00462b40 f   SakuraDropTarget.obj
 0001:00061c10       ??1COleDataObject@@QAE@XZ  00462c10 f i SakuraDropTarget.obj
 0001:00061c20       ?DragOver@CSakuraDropTarget@@UAGJKU_POINTL@@PAK@Z 00462c20 f   SakuraDropTarget.obj
 0001:00061c70       ?DragLeave@CSakuraDropTarget@@UAGJXZ 00462c70 f   SakuraDropTarget.obj
 0001:00061ca0       ?Drop@CSakuraDropTarget@@UAGJPAUIDataObject@@KU_POINTL@@PAK@Z 00462ca0 f   SakuraDropTarget.obj
 0001:00061d70       ?OnDragEnter@CSakuraDropTarget@@AAEKPAVCOleDataObject@@KU_POINTL@@@Z 00462d70 f   SakuraDropTarget.obj
 0001:00062040       ?OnDrop@CSakuraDropTarget@@AAEHPAVCOleDataObject@@KU_POINTL@@@Z 00463040 f   SakuraDropTarget.obj
 0001:00062750       ?RegisterGhost@CSakuraDropTarget@@QAEHPAVCWnd@@PAVSPGhost@@H@Z 00463750 f   SakuraDropTarget.obj
 0001:000627b0       ?Revoke@CSakuraDropTarget@@QAEXXZ 004637b0 f   SakuraDropTarget.obj
 0001:00062820       ??0CSakuraWnd@@QAE@XZ      00463820 f   SakuraWnd.obj
 0001:00062a50       ??_GCSakuraWnd@@UAEPAXI@Z  00463a50 f i SakuraWnd.obj
 0001:00062a50       ??_ECSakuraWnd@@UAEPAXI@Z  00463a50 f i SakuraWnd.obj
 0001:00062a80       ??1CSakuraWnd@@UAE@XZ      00463a80 f   SakuraWnd.obj
 0001:00062c00       ?GetMessageMap@CSakuraWnd@@MBEPBUAFX_MSGMAP@@XZ 00463c00 f   SakuraWnd.obj
 0001:00062c10       ?OnCreate@CSakuraWnd@@IAEHPAUtagCREATESTRUCTA@@@Z 00463c10 f   SakuraWnd.obj
 0001:00062d70       ?InitSharedMem@CSakuraWnd@@AAEXXZ 00463d70 f   SakuraWnd.obj
 0001:00062dc0       ?ModifyCheck@CSakuraWnd@@AAEXXZ 00463dc0 f   SakuraWnd.obj
 0001:00062e00       ?InitAtBoot@CSakuraWnd@@QAEXXZ 00463e00 f   SakuraWnd.obj
 0001:00062ef0       ?UpdateAllBindMenu@CSakuraWnd@@QAEXXZ 00463ef0 f   SakuraWnd.obj
 0001:00062f80       ?ResetTimeData@CSakuraWnd@@AAEXXZ 00463f80 f   SakuraWnd.obj
 0001:00062fe0       ?OnLButtonDblClk@CSakuraWnd@@IAEXIVCPoint@@@Z 00463fe0 f   SakuraWnd.obj
 0001:000631a0       ?OnMouseMove@CSakuraWnd@@IAEXIVCPoint@@@Z 004641a0 f   SakuraWnd.obj
 0001:000632e0       ?ModifyPopupMenu@CSakuraWnd@@UAEXXZ 004642e0 f   SakuraWnd.obj
 0001:00063bd0       ?GetEnableState@CSakuraWnd@@AAEHXZ 00464bd0 f   SakuraWnd.obj
 0001:00063c20       ?ModifyPopupMenuEnableStateSakura@CSakuraWnd@@AAEX_N@Z 00464c20 f   SakuraWnd.obj
 0001:00063f60       ?OnMenuExit@CSakuraWnd@@AAEXJJ@Z 00464f60 f   SakuraWnd.obj
 0001:00063fd0       ?OnMenuExitReal@CSakuraWnd@@AAEXJJ@Z 00464fd0 f   SakuraWnd.obj
 0001:00063ff0       ?OnMenuClose@CSakuraWnd@@AAEXJJ@Z 00464ff0 f   SakuraWnd.obj
 0001:000640a0       ?CloseGhostProc@CSakuraWnd@@QAEXPBG_NJJ@Z 004650a0 f   SakuraWnd.obj
 0001:00064390       ?OnCommand@CSakuraWnd@@MAEHIJ@Z 00465390 f   SakuraWnd.obj
 0001:00064920       ?OnLoadBalloon@CSakuraWnd@@QAEXXZ 00465920 f   SakuraWnd.obj
 0001:00064a40       ?OnChangeMessage@CSakuraWnd@@QAEJIJ@Z 00465a40 f   SakuraWnd.obj
 0001:000656f0       ?GetDefaultWndPosX@CSakuraWnd@@UAEHAAJAAVJRect@@1AAVJPoint@@@Z 004666f0 f   SakuraWnd.obj
 0001:00065730       ?TimerExec@CSakuraWnd@@QAEHK@Z 00466730 f   SakuraWnd.obj
 0001:00065eb0       ?UpdateAllWndPos@CSakuraWnd@@QAEXI@Z 00466eb0 f   SakuraWnd.obj
 0001:000660d0       ?GetAllCharWndCode@CSakuraWnd@@QAEXAAV?$JPtrArray@PAVCCharWndCode@@@@@Z 004670d0 f   SakuraWnd.obj
 0001:00066320       ?UpdateWndRecommendation@CSakuraWnd@@UAEXXZ 00467320 f   SakuraWnd.obj
 0001:000665e0       ?UpdateGhostState@CSakuraWnd@@QAEXJH@Z 004675e0 f   SakuraWnd.obj
 0001:00066690       ?InitShellMenu@CSakuraWnd@@QAEXH@Z 00467690 f   SakuraWnd.obj
 0001:000667c0       ?OnMenuSetup@CSakuraWnd@@IAEXXZ 004677c0 f   SakuraWnd.obj
 0001:000667e0       ?ToggleTopMost@CSakuraWnd@@QAEXH@Z 004677e0 f   SakuraWnd.obj
 0001:00066810       ?OnMenuUpdate@CSakuraWnd@@IAEXXZ 00467810 f   SakuraWnd.obj
 0001:00066840       ?OnMenuVersion@CSakuraWnd@@IAEXXZ 00467840 f   SakuraWnd.obj
 0001:00066900       ?OnMenuMinimize@CSakuraWnd@@IAEXXZ 00467900 f   SakuraWnd.obj
 0001:00066970       ?ToggleMinimizeFromMenu@CSakuraWnd@@AAEXXZ 00467970 f   SakuraWnd.obj
 0001:000669a0       ?ToggleMinimize@CSakuraWnd@@QAEXHK@Z 004679a0 f   SakuraWnd.obj
 0001:00066bd0       ?RestoreAll@CSakuraWnd@@QAEXXZ 00467bd0 f   SakuraWnd.obj
 0001:00066c00       ?MinimizeAll@CSakuraWnd@@QAEXXZ 00467c00 f   SakuraWnd.obj
 0001:00066c60       ?WindowProc@CSakuraWnd@@MAEJIIJ@Z 00467c60 f   SakuraWnd.obj
 0001:00066d20       ?OnShowReadme@CSakuraWnd@@IAEJIJ@Z 00467d20 f   SakuraWnd.obj
 0001:00066d70       ?OnTaskTray@CSakuraWnd@@IAEJIJ@Z 00467d70 f   SakuraWnd.obj
 0001:00066dc0       ?OnTaskTray4@CSakuraWnd@@IAEJIJ@Z 00467dc0 f   SakuraWnd.obj
 0001:00066f80       ?TrayIconTimerProcBalloon@CSakuraWnd@@AAEXI@Z 00467f80 f   SakuraWnd.obj
 0001:00067150       ?OnCWVirtualDesktopNotifyOverride@CSakuraWnd@@MAEHIJAAJ@Z 00468150 f   SakuraWnd.obj
 0001:000672b0       ?OnSakuraAPI@CSakuraWnd@@IAEJIJ@Z 004682b0 f   SakuraWnd.obj
 0001:00067bb0       ?OnSSPSysMsg@CSakuraWnd@@IAEJIJ@Z 00468bb0 f   SakuraWnd.obj
 0001:000687e0       ?CreateInputBox@CSakuraWnd@@AAEHPAVSPInputWndDispInfo@@@Z 004697e0 f   SakuraWnd.obj
 0001:00068a70       ?CloseInputBox@CSakuraWnd@@AAEHPAVSPInputWndDispInfo@@@Z 00469a70 f   SakuraWnd.obj
 0001:00068b50       ?InitHistoryMenu@CSakuraWnd@@QAEXK@Z 00469b50 f   SakuraWnd.obj
 0001:00069060       ?InitGhostMenu@CSakuraWnd@@QAEXH@Z 0046a060 f   SakuraWnd.obj
 0001:000692b0       ?InitBalloonMenu@CSakuraWnd@@QAEXH@Z 0046a2b0 f   SakuraWnd.obj
 0001:00069610       ?InitHeadlineMenu@CSakuraWnd@@QAEXH@Z 0046a610 f   SakuraWnd.obj
 0001:00069760       ?InitHeadlineMenuCheck@CSakuraWnd@@QAEXH@Z 0046a760 f   SakuraWnd.obj
 0001:000697d0       ?InitPluginMenu@CSakuraWnd@@QAEXH@Z 0046a7d0 f   SakuraWnd.obj
 0001:000698f0       ?InitPluginMenuEnable@CSakuraWnd@@QAEXXZ 0046a8f0 f   SakuraWnd.obj
 0001:00069990       ?InitLanguageMenu@CSakuraWnd@@QAEXH@Z 0046a990 f   SakuraWnd.obj
 0001:00069bb0       ?InitCheckMailMenu@CSakuraWnd@@QAEXXZ 0046abb0 f   SakuraWnd.obj
 0001:00069d00       ?InitScalingMenu@CSakuraWnd@@QAEXXZ 0046ad00 f   SakuraWnd.obj
 0001:00069e60       ?InitScalingBalloonMenu@CSakuraWnd@@QAEXXZ 0046ae60 f   SakuraWnd.obj
 0001:0006a020       ?UpdateScalingMenuCheck@CSakuraWnd@@AAEXXZ 0046b020 f   SakuraWnd.obj
 0001:0006a0a0       ?UpdateScalingBalloonMenuCheck@CSakuraWnd@@AAEXXZ 0046b0a0 f   SakuraWnd.obj
 0001:0006a170       ?OnMenuScript@CSakuraWnd@@IAEXXZ 0046b170 f   SakuraWnd.obj
 0001:0006a190       ?OnMenuResetpos@CSakuraWnd@@IAEXXZ 0046b190 f   SakuraWnd.obj
 0001:0006a350       ?OnMenuResetBalloon@CSakuraWnd@@IAEXXZ 0046b350 f   SakuraWnd.obj
 0001:0006a360       ?OnMenuGhostinfo@CSakuraWnd@@IAEXXZ 0046b360 f   SakuraWnd.obj
 0001:0006a380       ?OnMenuGhostTerms@CSakuraWnd@@IAEXXZ 0046b380 f   SakuraWnd.obj
 0001:0006a4e0       ?OnCopyData@CSakuraWnd@@IAEHPAVCWnd@@PAUtagCOPYDATASTRUCT@@@Z 0046b4e0 f   SakuraWnd.obj
 0001:0006a510       ?OnMenuCalendar@CSakuraWnd@@IAEXXZ 0046b510 f   SakuraWnd.obj
 0001:0006a530       ?CCalendarWnd_UpdateSkinMenu@@YAXXZ 0046b530 f   SakuraWnd.obj
 0001:0006a560       ?CCalendarWnd_UpdateSensorMenu@@YAXXZ 0046b560 f   SakuraWnd.obj
 0001:0006a590       ?OnMenuGhosttime@CSakuraWnd@@IAEXXZ 0046b590 f   SakuraWnd.obj
 0001:0006a5b0       ?OnMenuIm@CSakuraWnd@@IAEXXZ 0046b5b0 f   SakuraWnd.obj
 0001:0006a5c0       ?OnMenuCompatibleMode@CSakuraWnd@@IAEXXZ 0046b5c0 f   SakuraWnd.obj
 0001:0006a600       ?OnMenuTalkshiori@CSakuraWnd@@IAEXXZ 0046b600 f   SakuraWnd.obj
 0001:0006a650       ?OnMenuUninstall@CSakuraWnd@@IAEXXZ 0046b650 f   SakuraWnd.obj
 0001:0006a6a0       ?CreateGhostWindows@CSakuraWnd@@QAEHPAVSPGhostSet@@@Z 0046b6a0 f   SakuraWnd.obj
 0001:0006ac20       ?CreateCharacter@CSakuraWnd@@QAEHHH@Z 0046bc20 f   SakuraWnd.obj
 0001:0006ae10       ?OnDestroy@CSakuraWnd@@IAEXXZ 0046be10 f   SakuraWnd.obj
 0001:0006b090       ?SaveWndPos@CSakuraWnd@@QAEXXZ 0046c090 f   SakuraWnd.obj
 0001:0006b150       ?OnMenuLeavepassive@CSakuraWnd@@IAEXXZ 0046c150 f   SakuraWnd.obj
 0001:0006b180       ?OnMenuHelp@CSakuraWnd@@IAEXXZ 0046c180 f   SakuraWnd.obj
 0001:0006b1a0       ?OnMenuPopAllcheck@CSakuraWnd@@IAEXXZ 0046c1a0 f   SakuraWnd.obj
 0001:0006b1d0       ?GetAllCharWindow@CSakuraWnd@@QAEXAAV?$JArray@PAX@@@Z 0046c1d0 f   SakuraWnd.obj
 0001:0006b300       ?GetAllInputWindow@CSakuraWnd@@QAEXAAV?$JArray@PAX@@@Z 0046c300 f   SakuraWnd.obj
 0001:0006b520       ?GetAllUtilityWindow@CSakuraWnd@@QAEXAAV?$JArray@PAX@@@Z 0046c520 f   SakuraWnd.obj
 0001:0006b6a0       ?SetAllUtilAndInputWindowPos@CSakuraWnd@@AAEXPAUHWND__@@K@Z 0046c6a0 f   SakuraWnd.obj
 0001:0006b780       ?ActivateAllWindow@CSakuraWnd@@QAEXH@Z 0046c780 f   SakuraWnd.obj
 0001:0006b7e0       ?OnClose@CSakuraWnd@@IAEXXZ 0046c7e0 f   SakuraWnd.obj
 0001:0006b800       ?LoadTrayIcon@CSakuraWnd@@AAEXPAVSPNotifyIconInfo@@_N@Z 0046c800 f   SakuraWnd.obj
 0001:0006bd70       ?TrayIconTimerProcAnime@CSakuraWnd@@AAEXXZ 0046cd70 f   SakuraWnd.obj
 0001:0006bd80       ?ReloadTrayIcon@CSakuraWnd@@AAEXPAVSPNotifyIconInfo@@@Z 0046cd80 f   SakuraWnd.obj
 0001:0006bdb0       ?DestroyTrayIcon@CSakuraWnd@@AAEXXZ 0046cdb0 f   SakuraWnd.obj
 0001:0006bde0       ?ShowTrayIcon@CSakuraWnd@@QAEXH@Z 0046cde0 f   SakuraWnd.obj
 0001:0006be10       ?UpdateTrayIcon@CSakuraWnd@@QAEX_N@Z 0046ce10 f   SakuraWnd.obj
 0001:0006be30       ?OnMenuCloseBalloon@CSakuraWnd@@IAEXXZ 0046ce30 f   SakuraWnd.obj
 0001:0006be40       ?OnMenuExplorer@CSakuraWnd@@IAEXXZ 0046ce40 f   SakuraWnd.obj
 0001:0006be60       ?OnMenuSntp@CSakuraWnd@@IAEXXZ 0046ce60 f   SakuraWnd.obj
 0001:0006bea0       ?OnMenuScriptLog@CSakuraWnd@@IAEXXZ 0046cea0 f   SakuraWnd.obj
 0001:0006bed0       ?OnMenuReloadGhost@CSakuraWnd@@IAEXXZ 0046ced0 f   SakuraWnd.obj
 0001:0006bef0       ?InitMenu@CSakuraWnd@@QAEXXZ 0046cef0 f   SakuraWnd.obj
 0001:0006bf80       ?GetCharWnd@CSakuraWnd@@QAEPAVCCharWndCode@@K@Z 0046cf80 f   SakuraWnd.obj
 0001:0006bfe0       ?AllMenuUpdate@CSakuraWnd@@QAEXXZ 0046cfe0 f   SakuraWnd.obj
 0001:0006c0d0       ?OnMenuPurgeGhostCache@CSakuraWnd@@IAEXXZ 0046d0d0 f   SakuraWnd.obj
 0001:0006c110       ?OnMenuSurfaceTest@CSakuraWnd@@IAEXXZ 0046d110 f   SakuraWnd.obj
 0001:0006c200       ?OnMenuBindExplorer@CSakuraWnd@@IAEXXZ 0046d200 f   SakuraWnd.obj
 0001:0006c2d0       ?OnMenuSendShioriRequest@CSakuraWnd@@IAEXXZ 0046d2d0 f   SakuraWnd.obj
 0001:0006c3b0       ?OnMenuDeveloper@CSakuraWnd@@IAEXXZ 0046d3b0 f   SakuraWnd.obj
 0001:0006c490       ?OnShowDevSerikoTree@CSakuraWnd@@QAEXXZ 0046d490 f   SakuraWnd.obj
 0001:0006c570       ?OnMenuAddressBar@CSakuraWnd@@IAEXXZ 0046d570 f   SakuraWnd.obj
 0001:0006c590       ?OnMenuUpdateFmo@CSakuraWnd@@IAEXXZ 0046d590 f   SakuraWnd.obj
 0001:0006c5b0       ?OnMenuReloadInfo@CSakuraWnd@@IAEXXZ 0046d5b0 f   SakuraWnd.obj
 0001:0006c5d0       ?OnMenuLangReset@CSakuraWnd@@IAEXXZ 0046d5d0 f   SakuraWnd.obj
 0001:0006c5f0       ?OnMenuCharset@CSakuraWnd@@IAEXXZ 0046d5f0 f   SakuraWnd.obj
 0001:0006c660       ?OnMenuKeepTempGhost@CSakuraWnd@@IAEXXZ 0046d660 f   SakuraWnd.obj
 0001:0006c6d0       ?OnMenuSystemInfo@CSakuraWnd@@IAEXXZ 0046d6d0 f   SakuraWnd.obj
 0001:0006c8c0       ?HandleDrop@CSakuraWnd@@AAEHPAVSPMultiFile@@@Z 0046d8c0 f   SakuraWnd.obj
 0001:0006ca80       ?HandleDropFile@CSakuraWnd@@AAEHPAVSPMultiFile@@@Z 0046da80 f   SakuraWnd.obj
 0001:0006ce70       ?HandleDropDirectory@CSakuraWnd@@AAEHPAVSPMultiFile@@@Z 0046de70 f   SakuraWnd.obj
 0001:0006d3b0       ??1?$JPtrArray@PAVSPGhost@@@@QAE@XZ 0046e3b0 f i SakuraWnd.obj
 0001:0006d3b0       ??1?$JPtrArray@PAVSPAnimeSurfaceElement@@@@QAE@XZ 0046e3b0 f i SakuraWnd.obj
 0001:0006d3b0       ??1?$JPtrArray@PAVSPScriptQueueData@@@@QAE@XZ 0046e3b0 f i SakuraWnd.obj
 0001:0006d3b0       ??1?$JPtrArray@PAX@@QAE@XZ 0046e3b0 f i SakuraWnd.obj
 0001:0006d3b0       ??1?$JPtrArray@PAVSPBalloonImage@@@@QAE@XZ 0046e3b0 f i SakuraWnd.obj
 0001:0006d3b0       ??1?$JPtrArray@PAVSPDataPathListData@@@@QAE@XZ 0046e3b0 f i SakuraWnd.obj
 0001:0006d3b0       ??1?$JPtrArray@PAVSPGhostDlgInfo@@@@QAE@XZ 0046e3b0 f i SakuraWnd.obj
 0001:0006d3b0       ??1?$JArray@UtagCTW_GHOSTTIMEDATA@@@@QAE@XZ 0046e3b0 f i SakuraWnd.obj
 0001:0006d3b0       ?Release@?$JArray@UtagSPSurfaceRgnCache@@@@QAEXXZ 0046e3b0 f i SakuraWnd.obj
 0001:0006d3b0       ??1?$JPtrArray@PAVSPGhostProp@@@@QAE@XZ 0046e3b0 f i SakuraWnd.obj
 0001:0006d3b0       ??1?$JPtrArray@PAVSPCookieClient@@@@QAE@XZ 0046e3b0 f i SakuraWnd.obj
 0001:0006d3b0       ??1?$JArray@VCSurfaceTestBaseList@@@@QAE@XZ 0046e3b0 f i SakuraWnd.obj
 0001:0006d3b0       ??1?$JPtrArray@PAVSPLanguageProp@@@@QAE@XZ 0046e3b0 f i SakuraWnd.obj
 0001:0006d3b0       ??1?$JPtrArray@PAVSPGhostRaiseBlock@@@@QAE@XZ 0046e3b0 f i SakuraWnd.obj
 0001:0006d3b0       ??1?$JPtrArray@PAVSPBalloonWnd@@@@QAE@XZ 0046e3b0 f i SakuraWnd.obj
 0001:0006d3b0       ??1?$JPtrArray@PAVCGhostATSoundDesc@@@@QAE@XZ 0046e3b0 f i SakuraWnd.obj
 0001:0006d3b0       ?Release@?$JArray@K@@QAEXXZ 0046e3b0 f i SakuraWnd.obj
 0001:0006d3b0       ??1?$JPtrArray@PAVJGIFImage@@@@QAE@XZ 0046e3b0 f i SakuraWnd.obj
 0001:0006d3b0       ??1?$JPtrArray@PAVSPGhostRaiseTimerBlock@@@@QAE@XZ 0046e3b0 f i SakuraWnd.obj
 0001:0006d3b0       ??1?$JPtrArray@PAVSPRecommendProp@@@@QAE@XZ 0046e3b0 f i SakuraWnd.obj
 0001:0006d3b0       ?Release@?$JArray@VSPSerikoRange@@@@QAEXXZ 0046e3b0 f i SakuraWnd.obj
 0001:0006d3b0       ??1?$JPtrArray@PAVSPCmdNotifier@@@@QAE@XZ 0046e3b0 f i SakuraWnd.obj
 0001:0006d3b0       ??1?$JPtrArray@PAVSPCollisionProp@@@@QAE@XZ 0046e3b0 f i SakuraWnd.obj
 0001:0006d3b0       ??1?$JArray@J@@QAE@XZ      0046e3b0 f i SakuraWnd.obj
 0001:0006d3b0       ??1?$JPtrArray@PAVSPDlgTemplateItem@@@@QAE@XZ 0046e3b0 f i SakuraWnd.obj
 0001:0006d3b0       ??1?$JPtrArray@PAVSPVanishData@@@@QAE@XZ 0046e3b0 f i SakuraWnd.obj
 0001:0006d3b0       ??1JGXCodepageTable@@QAE@XZ 0046e3b0 f i SakuraWnd.obj
 0001:0006d3b0       ?Release@?$JArray@UtagSPControlAdjusterData@@@@QAEXXZ 0046e3b0 f i SakuraWnd.obj
 0001:0006d3b0       ??1?$JPtrArray@PAVSPCookieEntry@@@@QAE@XZ 0046e3b0 f i SakuraWnd.obj
 0001:0006d3b0       ?Release@?$JArray@PAVSPProp@@@@QAEXXZ 0046e3b0 f i SakuraWnd.obj
 0001:0006d3b0       ??1?$JPtrArray@PAVCPlaySSFScript@@@@QAE@XZ 0046e3b0 f i SakuraWnd.obj
 0001:0006d3b0       ??1?$JPtrArray@PAVSPSerikoTaskBase@@@@QAE@XZ 0046e3b0 f i SakuraWnd.obj
 0001:0006d3b0       ??1?$JArray@VCCharWndCodeManagerData@@@@QAE@XZ 0046e3b0 f i SakuraWnd.obj
 0001:0006d3b0       ??1?$JArray@U_TASKDIALOG_BUTTON@@@@QAE@XZ 0046e3b0 f i SakuraWnd.obj
 0001:0006d3b0       ??1?$JPtrArray@PAVSPLogData@@@@QAE@XZ 0046e3b0 f i SakuraWnd.obj
 0001:0006d3b0       ??1?$JPtrArray@PAVCSSPPropertyData@@@@QAE@XZ 0046e3b0 f i SakuraWnd.obj
 0001:0006d3b0       ??1?$JArray@UtagSPSurfaceRgnCache@@@@QAE@XZ 0046e3b0 f i SakuraWnd.obj
 0001:0006d3b0       ??1?$JPtrArray@PAVSPMessengerLogData@@@@QAE@XZ 0046e3b0 f i SakuraWnd.obj
 0001:0006d3b0       ??1?$JPtrArray@PAVSPOtherGhostProp@@@@QAE@XZ 0046e3b0 f i SakuraWnd.obj
 0001:0006d3b0       ??1?$JArray@VSPSerikoRange@@@@QAE@XZ 0046e3b0 f i SakuraWnd.obj
 0001:0006d3b0       ??1?$JArray@E@@QAE@XZ      0046e3b0 f i SakuraWnd.obj
 0001:0006d3b0       ??1?$JPtrArray@PAVSPPopAccount@@@@QAE@XZ 0046e3b0 f i SakuraWnd.obj
 0001:0006d3b0       ??1?$JArray@UtagSPControlAdjusterData@@@@QAE@XZ 0046e3b0 f i SakuraWnd.obj
 0001:0006d3b0       ??1?$JPtrArray@PAVSPAnimeScript@@@@QAE@XZ 0046e3b0 f i SakuraWnd.obj
 0001:0006d3b0       ?Release@?$JArray@VSPBindMenuItemInfo@@@@QAEXXZ 0046e3b0 f i SakuraWnd.obj
 0001:0006d3b0       ??1?$JPtrArray@PAVSPHeadline@@@@QAE@XZ 0046e3b0 f i SakuraWnd.obj
 0001:0006d3b0       ??1?$JPtrArray@PAVSPTimingEntry@@@@QAE@XZ 0046e3b0 f i SakuraWnd.obj
 0001:0006d3b0       ?Release@?$JArray@VSPGhostBindBlockEntry@@@@QAEXXZ 0046e3b0 f i SakuraWnd.obj
 0001:0006d3b0       ??1?$JPtrArray@PAVSPDeviceInfo@@@@QAE@XZ 0046e3b0 f i SakuraWnd.obj
 0001:0006d3b0       ??1?$JPtrArray@PAVSPMenuItem@@@@QAE@XZ 0046e3b0 f i SakuraWnd.obj
 0001:0006d3b0       ??1?$JPtrArray@PAVSPSysFunc_AddFontResourceInfo@@@@QAE@XZ 0046e3b0 f i SakuraWnd.obj
 0001:0006d3b0       ??1?$JPtrArray@PAVCCharWndCode@@@@QAE@XZ 0046e3b0 f i SakuraWnd.obj
 0001:0006d3b0       ??1?$JPtrArray@PAVSPBindMenuGroupItemInfo@@@@QAE@XZ 0046e3b0 f i SakuraWnd.obj
 0001:0006d3b0       ??1?$JArray@C@@QAE@XZ      0046e3b0 f i SakuraWnd.obj
 0001:0006d3b0       ??1?$JArray@V?$SPSparsePtrArrayDefPair@PAVSPBalloonDescHolder@@@@@@QAE@XZ 0046e3b0 f i SakuraWnd.obj
 0001:0006d3b0       ??1?$JPtrArray@PAVSPOtherFINEServerProp@@@@QAE@XZ 0046e3b0 f i SakuraWnd.obj
 0001:0006d3b0       ??1?$JArray@U_tagTT_TABLE_DIRECTORY@@@@QAE@XZ 0046e3b0 f i SakuraWnd.obj
 0001:0006d3b0       ?Release@?$JArray@C@@QAEXXZ 0046e3b0 f i SakuraWnd.obj
 0001:0006d3b0       ??1?$JPtrArray@PAU_TREEITEM@@@@QAE@XZ 0046e3b0 f i SakuraWnd.obj
 0001:0006d3b0       ?Release@?$JArray@VJRect@@@@QAEXXZ 0046e3b0 f i SakuraWnd.obj
 0001:0006d3b0       ??1?$JPtrArray@PAUHICON__@@@@QAE@XZ 0046e3b0 f i SakuraWnd.obj
 0001:0006d3b0       ??1?$JPtrArray@PAVSPScriptEntry@@@@QAE@XZ 0046e3b0 f i SakuraWnd.obj
 0001:0006d3b0       ??1?$JPtrArray@PAVSPSTMThreadDesc@@@@QAE@XZ 0046e3b0 f i SakuraWnd.obj
 0001:0006d3b0       ??1?$JPtrArray@PAVSPScriptCategory@@@@QAE@XZ 0046e3b0 f i SakuraWnd.obj
 0001:0006d3b0       ??1?$JArray@VSPBindMenuItemInfo@@@@QAE@XZ 0046e3b0 f i SakuraWnd.obj
 0001:0006d3b0       ??1?$JPtrArray@PAVSPHeadlineRSSElement@@@@QAE@XZ 0046e3b0 f i SakuraWnd.obj
 0001:0006d3b0       ??1?$JPtrArray@PAVSPCalendarImage@@@@QAE@XZ 0046e3b0 f i SakuraWnd.obj
 0001:0006d3b0       ?Release@?$JArray@V?$SPSparsePtrArrayDefPair@PAVSPAnimeBase@@@@@@QAEXXZ 0046e3b0 f i SakuraWnd.obj
 0001:0006d3b0       ??1?$JPtrArray@PAVSPSurfaceTestData@@@@QAE@XZ 0046e3b0 f i SakuraWnd.obj
 0001:0006d3b0       ??1?$JPtrArray@PAVSPUpdateEntry@@@@QAE@XZ 0046e3b0 f i SakuraWnd.obj
 0001:0006d3b0       ??1?$JPtrArray@PAV?$JPtrArray@PAVSPRecommendProp@@@@@@QAE@XZ 0046e3b0 f i SakuraWnd.obj
 0001:0006d3b0       ??1?$JArray@UtagSPSysFuncThreadInfo@@@@QAE@XZ 0046e3b0 f i SakuraWnd.obj
 0001:0006d3b0       ??1?$JArray@D@@QAE@XZ      0046e3b0 f i SakuraWnd.obj
 0001:0006d3b0       ??1?$JArray@H@@QAE@XZ      0046e3b0 f i SakuraWnd.obj
 0001:0006d3b0       ??1?$JArray@V?$SPSparsePtrArrayDefPair@PAVSPAnimeBase@@@@@@QAE@XZ 0046e3b0 f i SakuraWnd.obj
 0001:0006d3b0       ??1?$JArray@UtagPOINT@@@@QAE@XZ 0046e3b0 f i SakuraWnd.obj
 0001:0006d3b0       ??1?$JPtrArray@PAVSPMultiFileEntry@@@@QAE@XZ 0046e3b0 f i SakuraWnd.obj
 0001:0006d3b0       ??1?$JPtrArray@PAVSPMessengerUser@@@@QAE@XZ 0046e3b0 f i SakuraWnd.obj
 0001:0006d3b0       ??1?$JPtrArray@PAVSPBindProp@@@@QAE@XZ 0046e3b0 f i SakuraWnd.obj
 0001:0006d3b0       ??1?$JPtrArray@PAVSPGhostMoveManagerInfo@@@@QAE@XZ 0046e3b0 f i SakuraWnd.obj
 0001:0006d3b0       ??1?$JPtrArray@PAVJSurface@@@@QAE@XZ 0046e3b0 f i SakuraWnd.obj
 0001:0006d3b0       ??1?$JArray@VJRect@@@@QAE@XZ 0046e3b0 f i SakuraWnd.obj
 0001:0006d3b0       ??1?$JPtrArray@PAVSPGhostLoaderInfo@@@@QAE@XZ 0046e3b0 f i SakuraWnd.obj
 0001:0006d3b0       ??1?$JArray@VSPSerikoAnimationPlayPat@@@@QAE@XZ 0046e3b0 f i SakuraWnd.obj
 0001:0006d3b0       ??1?$JPtrArray@PAVCCharBodyWnd@@@@QAE@XZ 0046e3b0 f i SakuraWnd.obj
 0001:0006d3b0       ??1?$JPtrArray@PBG@@QAE@XZ 0046e3b0 f i SakuraWnd.obj
 0001:0006d3b0       ?Release@?$JArray@D@@QAEXXZ 0046e3b0 f i SakuraWnd.obj
 0001:0006d3b0       ??1?$JPtrArray@PAVSPCompatibleWordEntry@@@@QAE@XZ 0046e3b0 f i SakuraWnd.obj
 0001:0006d3b0       ??1?$JPtrArray@PAVSPBalloonFontProp@@@@QAE@XZ 0046e3b0 f i SakuraWnd.obj
 0001:0006d3b0       ??1?$JPtrArray@PAVSPCmdListener@@@@QAE@XZ 0046e3b0 f i SakuraWnd.obj
 0001:0006d3b0       ??1?$JPtrArray@PAVSPInitOnce@@@@QAE@XZ 0046e3b0 f i SakuraWnd.obj
 0001:0006d3b0       ??1?$JPtrArray@PAVJWString@@@@QAE@XZ 0046e3b0 f i SakuraWnd.obj
 0001:0006d3b0       ??1?$JPtrArray@PAUHMENU__@@@@QAE@XZ 0046e3b0 f i SakuraWnd.obj
 0001:0006d3b0       ??1?$JArray@G@@QAE@XZ      0046e3b0 f i SakuraWnd.obj
 0001:0006d3b0       ??1?$JPtrArray@PAVSPUsageStatisticsEntry@@@@QAE@XZ 0046e3b0 f i SakuraWnd.obj
 0001:0006d3b0       ??1?$JPtrArray@PAVCWnd@@@@QAE@XZ 0046e3b0 f i SakuraWnd.obj
 0001:0006d3b0       ?Release@?$JArray@J@@QAEXXZ 0046e3b0 f i SakuraWnd.obj
 0001:0006d3b0       ??1?$JPtrArray@PAVSPFolderListData@@@@QAE@XZ 0046e3b0 f i SakuraWnd.obj
 0001:0006d3b0       ??1?$JArray@VJSockAddr@@@@QAE@XZ 0046e3b0 f i SakuraWnd.obj
 0001:0006d3b0       ??1?$JPtrArray@PAUIBaseFilter@@@@QAE@XZ 0046e3b0 f i SakuraWnd.obj
 0001:0006d3b0       ??1?$JArray@PAX@@QAE@XZ    0046e3b0 f i SakuraWnd.obj
 0001:0006d3b0       ??1?$JPtrArray@PAVSPBindEntry@@@@QAE@XZ 0046e3b0 f i SakuraWnd.obj
 0001:0006d3b0       ?Release@?$JArray@VJPoint@@@@QAEXXZ 0046e3b0 f i SakuraWnd.obj
 0001:0006d3b0       ??1?$JPtrArray@PAE@@QAE@XZ 0046e3b0 f i SakuraWnd.obj
 0001:0006d3b0       ??1?$JPtrArray@PAVSPSerikoCursorEntry@@@@QAE@XZ 0046e3b0 f i SakuraWnd.obj
 0001:0006d3b0       ??1?$JPtrArray@PAVSPURLTranslateData@@@@QAE@XZ 0046e3b0 f i SakuraWnd.obj
 0001:0006d3b0       ??1?$JPtrArray@PBVXMLNode@tinyxml2@@@@QAE@XZ 0046e3b0 f i SakuraWnd.obj
 0001:0006d3b0       ?Release@?$JArray@PAX@@QAEXXZ 0046e3b0 f i SakuraWnd.obj
 0001:0006d3b0       ??1?$JPtrArray@PAG@@QAE@XZ 0046e3b0 f i SakuraWnd.obj
 0001:0006d3b0       ?Release@?$JArray@UtagPOINT@@@@QAEXXZ 0046e3b0 f i SakuraWnd.obj
 0001:0006d3b0       ??1?$JPtrArray@PAUHWND__@@@@QAE@XZ 0046e3b0 f i SakuraWnd.obj
 0001:0006d3b0       ??1?$JArray@N@@QAE@XZ      0046e3b0 f i SakuraWnd.obj
 0001:0006d3b0       ??1?$JPtrArray@PAVSPSSTPData@@@@QAE@XZ 0046e3b0 f i SakuraWnd.obj
 0001:0006d3b0       ??1?$JPtrArray@PAVCGhostAIGraphInfo@@@@QAE@XZ 0046e3b0 f i SakuraWnd.obj
 0001:0006d3b0       ??1?$JArray@VSPMonitorInfo@@@@QAE@XZ 0046e3b0 f i SakuraWnd.obj
 0001:0006d3b0       ??1?$JPtrArray@PAVSPTimeClientData@@@@QAE@XZ 0046e3b0 f i SakuraWnd.obj
 0001:0006d3b0       ??1?$JPtrArray@PAVSPSurfaceTable@@@@QAE@XZ 0046e3b0 f i SakuraWnd.obj
 0001:0006d3b0       ??1?$JPtrArray@PAVSPLSPString@@@@QAE@XZ 0046e3b0 f i SakuraWnd.obj
 0001:0006d3b0       ??1?$JPtrArray@PAVSPScheduleEntry@@@@QAE@XZ 0046e3b0 f i SakuraWnd.obj
 0001:0006d3b0       ??1?$JPtrArray@PAVSPBalloonProp@@@@QAE@XZ 0046e3b0 f i SakuraWnd.obj
 0001:0006d3b0       ??1?$JPtrArray@PAVSPBalloonDesc@@@@QAE@XZ 0046e3b0 f i SakuraWnd.obj
 0001:0006d3b0       ??1?$JPtrArray@PAVSPMenuTemplateItem@@@@QAE@XZ 0046e3b0 f i SakuraWnd.obj
 0001:0006d3b0       ??1?$JPtrArray@PAVSPCalendarIconEntry@@@@QAE@XZ 0046e3b0 f i SakuraWnd.obj
 0001:0006d3b0       ??1?$JPtrArray@PAVJSocketManagerSessionCache@@@@QAE@XZ 0046e3b0 f i SakuraWnd.obj
 0001:0006d3b0       ??1?$JPtrArray@PAVJString@@@@QAE@XZ 0046e3b0 f i SakuraWnd.obj
 0001:0006d3b0       ??1?$JArray@UtagSPMenuHackData@@@@QAE@XZ 0046e3b0 f i SakuraWnd.obj
 0001:0006d3b0       ??1SPSimpleEncode@@QAE@XZ  0046e3b0 f i SakuraWnd.obj
 0001:0006d3b0       ??1?$JArray@VJPoint@@@@QAE@XZ 0046e3b0 f i SakuraWnd.obj
 0001:0006d3b0       ??1?$JPtrArray@PAVCInputWnd@@@@QAE@XZ 0046e3b0 f i SakuraWnd.obj
 0001:0006d3b0       ??1?$JPtrArray@PAVSPPlugin@@@@QAE@XZ 0046e3b0 f i SakuraWnd.obj
 0001:0006d3b0       ??1?$JPtrArray@PAVSPSensorAPIData@@@@QAE@XZ 0046e3b0 f i SakuraWnd.obj
 0001:0006d3b0       ??1?$JPtrArray@PAVSPSerikoToolTipsEntry@@@@QAE@XZ 0046e3b0 f i SakuraWnd.obj
 0001:0006d3b0       ??1?$JPtrArray@PAVSPSerikoAnimation@@@@QAE@XZ 0046e3b0 f i SakuraWnd.obj
 0001:0006d3b0       ??1?$JArray@K@@QAE@XZ      0046e3b0 f i SakuraWnd.obj
 0001:0006d3b0       ??1?$JArray@VSPSerikoAnimationQueue@@@@QAE@XZ 0046e3b0 f i SakuraWnd.obj
 0001:0006d3b0       ?Release@?$JArray@G@@QAEXXZ 0046e3b0 f i SakuraWnd.obj
 0001:0006d3b0       ??1?$JPtrArray@PAD@@QAE@XZ 0046e3b0 f i SakuraWnd.obj
 0001:0006d3b0       ??1?$JPtrArray@PAVSPCalendarSkinProp@@@@QAE@XZ 0046e3b0 f i SakuraWnd.obj
 0001:0006d3b0       ??1?$JPtrArray@PAVSPProp@@@@QAE@XZ 0046e3b0 f i SakuraWnd.obj
 0001:0006d3b0       ??1?$JPtrArray@PAVSPScript@@@@QAE@XZ 0046e3b0 f i SakuraWnd.obj
 0001:0006d3b0       ??1?$JPtrArray@PAVSPScheduleSensorProp@@@@QAE@XZ 0046e3b0 f i SakuraWnd.obj
 0001:0006d3b0       ?Release@?$JArray@VSPMonitorInfo@@@@QAEXXZ 0046e3b0 f i SakuraWnd.obj
 0001:0006d3b0       ??1?$JPtrArray@PAVSPSysFuncEventCall@@@@QAE@XZ 0046e3b0 f i SakuraWnd.obj
 0001:0006d3b0       ??1?$JArray@VCExplorerDialogData@@@@QAE@XZ 0046e3b0 f i SakuraWnd.obj
 0001:0006d3b0       ??1?$JPtrArray@PAVSPShellProp@@@@QAE@XZ 0046e3b0 f i SakuraWnd.obj
 0001:0006d3b0       ??1?$JPtrArray@PAVSPPopMessage@@@@QAE@XZ 0046e3b0 f i SakuraWnd.obj
 0001:0006d3b0       ??1?$JPtrArray@PAV?$JArray@J@@@@QAE@XZ 0046e3b0 f i SakuraWnd.obj
 0001:0006d3b0       ?Release@?$JArray@VSPSerikoAnimationQueue@@@@QAEXXZ 0046e3b0 f i SakuraWnd.obj
 0001:0006d3b0       ?Release@?$JArray@VSPSerikoAnimationPlayPat@@@@QAEXXZ 0046e3b0 f i SakuraWnd.obj
 0001:0006d3b0       ??1?$JPtrArray@PAVSPBindGroup@@@@QAE@XZ 0046e3b0 f i SakuraWnd.obj
 0001:0006d3b0       ??1?$JPtrArray@PAVSPSongEntry@@@@QAE@XZ 0046e3b0 f i SakuraWnd.obj
 0001:0006d3b0       ??1?$JPtrArray@PAVSPSurface@@@@QAE@XZ 0046e3b0 f i SakuraWnd.obj
 0001:0006d3b0       ??1?$JPtrArray@PAVCThumbnailWnd@@@@QAE@XZ 0046e3b0 f i SakuraWnd.obj
 0001:0006d3b0       ??1?$JPtrArray@PAVSPAnimePat@@@@QAE@XZ 0046e3b0 f i SakuraWnd.obj
 0001:0006d3b0       ??1?$JPtrArray@PAVSPBalloonString@@@@QAE@XZ 0046e3b0 f i SakuraWnd.obj
 0001:0006d3b0       ??1?$JPtrArray@PBD@@QAE@XZ 0046e3b0 f i SakuraWnd.obj
 0001:0006d3b0       ??1?$JPtrArray@PAVSPSSTPServerSocket@@@@QAE@XZ 0046e3b0 f i SakuraWnd.obj
 0001:0006d3b0       ?Release@?$JArray@H@@QAEXXZ 0046e3b0 f i SakuraWnd.obj
 0001:0006d3b0       ??1?$JPtrArray@PAVSPSpeechImplData@@@@QAE@XZ 0046e3b0 f i SakuraWnd.obj
 0001:0006d640       ??_GSPPluginEvent@@UAEPAXI@Z 0046e640 f i SakuraWnd.obj
 0001:0006d640       ??_ESPPluginEvent@@UAEPAXI@Z 0046e640 f i SakuraWnd.obj
 0001:0006d670       ?OnMenuScalingFree@CSakuraWnd@@IAEXXZ 0046e670 f   SakuraWnd.obj
 0001:0006d6f0       ?OnMenuBalloonScalingFree@CSakuraWnd@@IAEXXZ 0046e6f0 f   SakuraWnd.obj
 0001:0006d770       ?SetScaling@CSakuraWnd@@QAEXJJ@Z 0046e770 f   SakuraWnd.obj
 0001:0006d840       ?SetScalingBalloon@CSakuraWnd@@QAEXJJ@Z 0046e840 f   SakuraWnd.obj
 0001:0006d910       ?OnMenuProxy@CSakuraWnd@@IAEXXZ 0046e910 f   SakuraWnd.obj
 0001:0006d9a0       ?OnMenuUpdateCheck@CSakuraWnd@@IAEXXZ 0046e9a0 f   SakuraWnd.obj
 0001:0006d9b0       ?PreTranslateMessage@CSakuraWnd@@UAEHPAUtagMSG@@@Z 0046e9b0 f   SakuraWnd.obj
 0001:0006d9e0       ?OnMenuOpenFile@CSakuraWnd@@IAEXXZ 0046e9e0 f   SakuraWnd.obj
 0001:0006db10       ?OnMenuOpenDir@CSakuraWnd@@IAEXXZ 0046eb10 f   SakuraWnd.obj
 0001:0006dca0       ?OnMenuSetupGhost@CSakuraWnd@@IAEXXZ 0046eca0 f   SakuraWnd.obj
 0001:0006dd70       ?OnMenuAIGraph@CSakuraWnd@@IAEXXZ 0046ed70 f   SakuraWnd.obj
 0001:0006de30       ?OnMenuDictation@CSakuraWnd@@IAEXXZ 0046ee30 f   SakuraWnd.obj
 0001:0006de40       ?OnMenuTTS@CSakuraWnd@@IAEXXZ 0046ee40 f   SakuraWnd.obj
 0001:0006de50       ??0?$JPtrArray@PAVSPMenuTemplateItem@@@@QAE@J@Z 0046ee50 f i SakuraWnd.obj
 0001:0006deb0       ?SetNum@?$JArray@PAX@@QAEXK@Z 0046eeb0 f i SakuraWnd.obj
 0001:0006deb0       ?SetNum@?$JArray@K@@QAEXK@Z 0046eeb0 f i SakuraWnd.obj
 0001:0006deb0       ?SetNum@?$JArray@H@@QAEXK@Z 0046eeb0 f i SakuraWnd.obj
 0001:0006deb0       ?SetNum@?$JArray@J@@QAEXK@Z 0046eeb0 f i SakuraWnd.obj
 0001:0006deb0       ?SetNum@?$JArray@PAVSPProp@@@@QAEXK@Z 0046eeb0 f i SakuraWnd.obj
 0001:0006df00       ??_ECSakuraWnd@@WDM@AEPAXI@Z 0046ef00 f i SakuraWnd.obj
 0001:0006df10       ??0CSaveShareDlg@@QAE@PAVCWnd@@@Z 0046ef10 f   SaveShare.obj
 0001:0006df40       ??_ECSaveShareDlg@@UAEPAXI@Z 0046ef40 f i SaveShare.obj
 0001:0006df40       ??_GCSaveShareDlg@@UAEPAXI@Z 0046ef40 f i SaveShare.obj
 0001:0006df70       ?GetMessageMap@CSaveShareDlg@@MBEPBUAFX_MSGMAP@@XZ 0046ef70 f   SaveShare.obj
 0001:0006df80       ?OnInitDialog@CSaveShareDlg@@MAEHXZ 0046ef80 f   SaveShare.obj
 0001:0006dfd0       ?UpdateInterface@CSaveShareDlg@@AAEXXZ 0046efd0 f   SaveShare.obj
 0001:0006e1f0       ?OnSaveShareType@CSaveShareDlg@@IAEHI@Z 0046f1f0 f   SaveShare.obj
 0001:0006e260       ?OnSaveShareBrowse@CSaveShareDlg@@IAEXXZ 0046f260 f   SaveShare.obj
 0001:0006e3e0       ?OnSaveShareEnable@CSaveShareDlg@@IAEXXZ 0046f3e0 f   SaveShare.obj
 0001:0006e420       ?OnChangeSaveSharePath@CSaveShareDlg@@IAEXXZ 0046f420 f   SaveShare.obj
 0001:0006e520       ??0CScalingDlg@@QAE@PAVCWnd@@@Z 0046f520 f   ScalingDlg.obj
 0001:0006e610       ??_ECScalingDlg@@UAEPAXI@Z 0046f610 f i ScalingDlg.obj
 0001:0006e610       ??_GCScalingDlg@@UAEPAXI@Z 0046f610 f i ScalingDlg.obj
 0001:0006e640       ?GetMessageMap@CScalingDlg@@MBEPBUAFX_MSGMAP@@XZ 0046f640 f   ScalingDlg.obj
 0001:0006e650       ?DoModalExt@CScalingDlg@@QAEHPAVCWnd@@PAVCSakuraWnd@@H@Z 0046f650 f   ScalingDlg.obj
 0001:0006e8b0       ?ModifyTemplate@CScalingDlg@@UAEXPAVSPDlgTemplate@@@Z 0046f8b0 f   ScalingDlg.obj
 0001:0006e980       ?OnInitDialog@CScalingDlg@@MAEHXZ 0046f980 f   ScalingDlg.obj
 0001:0006ea60       ?OnOK@CScalingDlg@@MAEXXZ  0046fa60 f   ScalingDlg.obj
 0001:0006ec30       ?OnCancel@CScalingDlg@@MAEXXZ 0046fc30 f   ScalingDlg.obj
 0001:0006ec40       ?OnXY@CScalingDlg@@IAEXXZ  0046fc40 f   ScalingDlg.obj
 0001:0006ec70       ??0CScheduleDlg@@QAE@PAVCWnd@@@Z 0046fc70 f   ScheduleDlg.obj
 0001:0006edd0       ??_ECScheduleDlg@@UAEPAXI@Z 0046fdd0 f i ScheduleDlg.obj
 0001:0006edd0       ??_GCScheduleDlg@@UAEPAXI@Z 0046fdd0 f i ScheduleDlg.obj
 0001:0006ee00       ??1CScheduleDlg@@UAE@XZ    0046fe00 f i ScheduleDlg.obj
 0001:0006eed0       ?DoDataExchange@CScheduleDlg@@MAEXPAVCDataExchange@@@Z 0046fed0 f   ScheduleDlg.obj
 0001:0006ef50       ?GetMessageMap@CScheduleDlg@@MBEPBUAFX_MSGMAP@@XZ 0046ff50 f   ScheduleDlg.obj
 0001:0006ef60       ?UpdateButtonState@CScheduleDlg@@IAEXH@Z 0046ff60 f   ScheduleDlg.obj
 0001:0006f120       ?SetUpdated@CScheduleDlg@@AAEX_N@Z 00470120 f   ScheduleDlg.obj
 0001:0006f180       ?OnScheduleDelete@CScheduleDlg@@IAEXXZ 00470180 f   ScheduleDlg.obj
 0001:0006f280       ?OnDatetimechangeScheduleEndtime@CScheduleDlg@@IAEXPAUtagNMHDR@@PAJ@Z 00470280 f   ScheduleDlg.obj
 0001:0006f330       ?OnScheduleNew@CScheduleDlg@@IAEXXZ 00470330 f   ScheduleDlg.obj
 0001:0006f3a0       ?OnScheduleTimeEnable@CScheduleDlg@@IAEXXZ 004703a0 f   ScheduleDlg.obj
 0001:0006f410       ?OnScheduleTimeEndEnable@CScheduleDlg@@IAEXXZ 00470410 f   ScheduleDlg.obj
 0001:0006f440       ?OnDatetimechangeScheduleTime@CScheduleDlg@@IAEXPAUtagNMHDR@@PAJ@Z 00470440 f   ScheduleDlg.obj
 0001:0006f4c0       ?OnSelchangeScheduleType@CScheduleDlg@@IAEXXZ 004704c0 f   ScheduleDlg.obj
 0001:0006f550       ?OnInitDialog@CScheduleDlg@@MAEHXZ 00470550 f   ScheduleDlg.obj
 0001:0006fa40       ?UpdateList@CScheduleDlg@@IAEXXZ 00470a40 f   ScheduleDlg.obj
 0001:0006fc00       ?InitControls@CScheduleDlg@@IAEXXZ 00470c00 f   ScheduleDlg.obj
 0001:0006ffa0       ?ClearControls@CScheduleDlg@@IAEXXZ 00470fa0 f   ScheduleDlg.obj
 0001:000700f0       ?OnScheduleUpdate@CScheduleDlg@@IAEXXZ 004710f0 f   ScheduleDlg.obj
 0001:00070570       ?OnSelchangeScheduleList@CScheduleDlg@@IAEXPAUtagNMHDR@@PAJ@Z 00471570 f   ScheduleDlg.obj
 0001:00070610       ?OnSoundBrowse@CScheduleDlg@@IAEXXZ 00471610 f   ScheduleDlg.obj
 0001:00070740       ?OnSchedulepost@CScheduleDlg@@IAEXXZ 00471740 f   ScheduleDlg.obj
 0001:000707a0       ?OnDestroy@CScheduleDlg@@IAEXXZ 004717a0 f   ScheduleDlg.obj
 0001:000707f0       ?OnCommand@CScheduleDlg@@MAEHIJ@Z 004717f0 f   ScheduleDlg.obj
 0001:00070820       ?OnRepFromToday@CScheduleDlg@@IAEXXZ 00471820 f   ScheduleDlg.obj
 0001:00070930       ?OnCtlColor@CScheduleDlg@@IAEPAUHBRUSH__@@PAVCDC@@PAVCWnd@@I@Z 00471930 f   ScheduleDlg.obj
 0001:00070970       ?OnChangeRadioButton@CScheduleDlg@@IAEXXZ 00471970 f   ScheduleDlg.obj
 0001:00070970       ?OnChangeEditBox@CScheduleDlg@@IAEXXZ 00471970 f   ScheduleDlg.obj
 0001:00070990       ??0CSendShioriRequest@@QAE@PAVCWnd@@@Z 00471990 f   SendShioriRequest.obj
 0001:000709e0       ??_GCSendShioriRequest@@UAEPAXI@Z 004719e0 f i SendShioriRequest.obj
 0001:000709e0       ??_ECSendShioriRequest@@UAEPAXI@Z 004719e0 f i SendShioriRequest.obj
 0001:00070a10       ??1CSendShioriRequest@@UAE@XZ 00471a10 f i SendShioriRequest.obj
 0001:00070a90       ?CreateMe@CSendShioriRequest@@QAEXPAVCWnd@@PAVCSakuraWnd@@@Z 00471a90 f   SendShioriRequest.obj
 0001:00070ab0       ?GetMessageMap@CSendShioriRequest@@MBEPBUAFX_MSGMAP@@XZ 00471ab0 f   SendShioriRequest.obj
 0001:00070ac0       ?OnSend@CSendShioriRequest@@IAEXXZ 00471ac0 f   SendShioriRequest.obj
 0001:00070c60       ?OnCloseButton@CSendShioriRequest@@IAEXXZ 00471c60 f   SendShioriRequest.obj
 0001:00070c60       ?OnClose@CSendShioriRequest@@IAEXXZ 00471c60 f   SendShioriRequest.obj
 0001:00070c80       ?OnInitDialog@CSendShioriRequest@@MAEHXZ 00471c80 f   SendShioriRequest.obj
 0001:00070da0       ?OnDestroy@CSendShioriRequest@@IAEXXZ 00471da0 f   SendShioriRequest.obj
 0001:00070e00       ?OnGetMinMaxInfo@CSendShioriRequest@@IAEXPAUtagMINMAXINFO@@@Z 00471e00 f   SendShioriRequest.obj
 0001:00070ea0       ?OnSize@CSendShioriRequest@@IAEXIHH@Z 00471ea0 f   SendShioriRequest.obj
 0001:00070ec0       ?OnSelchangeShioriCharset@CSendShioriRequest@@IAEXXZ 00471ec0 f   SendShioriRequest.obj
 0001:00070f50       ?CreateObject@CSetupDefDlg@@SGPAVCObject@@XZ 00471f50 f   SetupDefDlg.obj
 0001:00070fb0       ?GetRuntimeClass@CSetupDefDlg@@UBEPAUCRuntimeClass@@XZ 00471fb0 f   SetupDefDlg.obj
 0001:00070fc0       ??0CSetupDefDlg@@QAE@PAVCWnd@@@Z 00471fc0 f   SetupDefDlg.obj
 0001:00071040       ??_GCSetupDefDlg@@UAEPAXI@Z 00472040 f i SetupDefDlg.obj
 0001:00071040       ??_ECSetupDefDlg@@UAEPAXI@Z 00472040 f i SetupDefDlg.obj
 0001:00071070       ??1CSetupDefDlg@@UAE@XZ    00472070 f i SetupDefDlg.obj
 0001:000710d0       ?DoDataExchange@CSetupDefDlg@@MAEXPAVCDataExchange@@@Z 004720d0 f   SetupDefDlg.obj
 0001:000710f0       ?GetMessageMap@CSetupDefDlg@@MBEPBUAFX_MSGMAP@@XZ 004720f0 f   SetupDefDlg.obj
 0001:00071100       ?OnInitDialog@CSetupDefDlg@@MAEHXZ 00472100 f   SetupDefDlg.obj
 0001:000713e0       ?OnDestroy@CSetupDefDlg@@IAEXXZ 004723e0 f   SetupDefDlg.obj
 0001:000714f0       ?OnAssociatefile@CSetupDefDlg@@IAEXXZ 004724f0 f   SetupDefDlg.obj
 0001:00071570       ?OnIgnoreUninstallHide@CSetupDefDlg@@IAEXXZ 00472570 f   SetupDefDlg.obj
 0001:000715c0       ?OnDevFuncEnable@CSetupDefDlg@@IAEXXZ 004725c0 f   SetupDefDlg.obj
 0001:00071810       ?OnShowIconAlways@CSetupDefDlg@@IAEXXZ 00472810 f   SetupDefDlg.obj
 0001:00071860       ?OnChangeFirstname@CSetupDefDlg@@IAEXXZ 00472860 f   SetupDefDlg.obj
 0001:00071940       ?OnChangeCallname@CSetupDefDlg@@IAEXXZ 00472940 f   SetupDefDlg.obj
 0001:00071a20       ?OnChangeBirthday@CSetupDefDlg@@IAEXPAUtagNMHDR@@PAJ@Z 00472a20 f   SetupDefDlg.obj
 0001:00071ad0       ?OnSexChoice@CSetupDefDlg@@IAEXXZ 00472ad0 f   SetupDefDlg.obj
 0001:00071b30       ?OnStrictWait@CSetupDefDlg@@IAEXXZ 00472b30 f   SetupDefDlg.obj
 0001:00071b80       ?OnPriorityDown@CSetupDefDlg@@IAEXXZ 00472b80 f   SetupDefDlg.obj
 0001:00071c50       ?OnInstallReadme@CSetupDefDlg@@IAEXXZ 00472c50 f   SetupDefDlg.obj
 0001:00071c80       ?OnSelfUpdateAuto@CSetupDefDlg@@IAEXXZ 00472c80 f   SetupDefDlg.obj
 0001:00071ce0       ?OnRegisterHotkey@CSetupDefDlg@@IAEXXZ 00472ce0 f   SetupDefDlg.obj
 0001:00071d20       ?OnShowStatus@CSetupDefDlg@@IAEXXZ 00472d20 f   SetupDefDlg.obj
 0001:00071d70       ?OnTabChoice@CSetupDefDlg@@IAEXXZ 00472d70 f   SetupDefDlg.obj
 0001:00071dc0       ?OnSensorChoice@CSetupDefDlg@@IAEXXZ 00472dc0 f   SetupDefDlg.obj
 0001:00071e10       ?OnVirusCheck@CSetupDefDlg@@IAEXXZ 00472e10 f   SetupDefDlg.obj
 0001:00071eb0       ??0CSimpleMenu@@QAE@XZ     00472eb0 f   SimpleMenu.obj
 0001:00071ef0       ?Release@CSimpleMenu@@QAEXXZ 00472ef0 f   SimpleMenu.obj
 0001:00071f10       ?LoadID@CSimpleMenu@@QAEPAUHMENU__@@K@Z 00472f10 f   SimpleMenu.obj
 0001:00072090       ?CreatePopup@CSimpleMenu@@QAEPAUHMENU__@@XZ 00473090 f   SimpleMenu.obj
 0001:000720b0       ?BeforeTrackPopup@CSimpleMenu@@QBEXPAUHWND__@@@Z 004730b0 f   SimpleMenu.obj
 0001:00072150       ?TrackPopup@CSimpleMenu@@QBEHIHHPAUHWND__@@@Z 00473150 f   SimpleMenu.obj
 0001:000721b0       ?AttachSub@CSimpleMenu@@QAEPAUHMENU__@@H@Z 004731b0 f   SimpleMenu.obj
 0001:000721e0       ?GetSub@CSimpleMenu@@QBEPAUHMENU__@@H@Z 004731e0 f   SimpleMenu.obj
 0001:00072200       ?GetSubFromRoot@CSimpleMenu@@QBEPAUHMENU__@@H@Z 00473200 f   SimpleMenu.obj
 0001:00072220       ?Attach@CSimpleMenu@@QAEXPAUHMENU__@@@Z 00473220 f   SimpleMenu.obj
 0001:00072240       ?Detach@CSimpleMenu@@QAEXXZ 00473240 f   SimpleMenu.obj
 0001:00072250       ??0CSSPProperty@@QAE@PAVCWnd@@@Z 00473250 f   SSPProperty.obj
 0001:00072710       ??_GCSSPProperty@@UAEPAXI@Z 00473710 f i SSPProperty.obj
 0001:00072710       ??_ECSSPProperty@@UAEPAXI@Z 00473710 f i SSPProperty.obj
 0001:00072740       ??1CSSPProperty@@UAE@XZ    00473740 f   SSPProperty.obj
 0001:00072860       ??1CSSPPropertyData@@QAE@XZ 00473860 f i SSPProperty.obj
 0001:00072960       ?DoDataExchange@CSSPProperty@@MAEXPAVCDataExchange@@@Z 00473960 f   SSPProperty.obj
 0001:000729a0       ?GetMessageMap@CSSPProperty@@MBEPBUAFX_MSGMAP@@XZ 004739a0 f   SSPProperty.obj
 0001:000729b0       ?ModifyTemplate@CSSPProperty@@EAEXPAVSPDlgTemplate@@@Z 004739b0 f   SSPProperty.obj
 0001:00072ac0       ?OnInitDialog@CSSPProperty@@MAEHXZ 00473ac0 f   SSPProperty.obj
 0001:00072c50       ?OnDestroy@CSSPProperty@@IAEXXZ 00473c50 f   SSPProperty.obj
 0001:00072cc0       ?OnHelp@CSSPProperty@@IAEXXZ 00473cc0 f   SSPProperty.obj
 0001:00072ce0       ?HelpFileExec@CSSPProperty@@QAEXXZ 00473ce0 f   SSPProperty.obj
 0001:00072d30       ?HelpFileExecType@CSSPProperty@@QAEXPBG@Z 00473d30 f   SSPProperty.obj
 0001:00072d90       ?OnItemChangedSheets@CSSPProperty@@IAEXPAUtagNMHDR@@PAJ@Z 00473d90 f   SSPProperty.obj
 0001:00072e00       ?AddPageData@CSSPProperty@@AAEXPAVCDialogCustom@@IPBG1@Z 00473e00 f   SSPProperty.obj
 0001:00073040       ?InitPropertyPages@CSSPProperty@@AAEXXZ 00474040 f   SSPProperty.obj
 0001:000730b0       ?LoadTemplate@CSSPPropertyData@@QAEXHH@Z 004740b0 f i SSPProperty.obj
 0001:000731b0       ?UpdatePagesList@CSSPProperty@@AAEXXZ 004741b0 f   SSPProperty.obj
 0001:00073310       ?ReleasePropertyPages@CSSPProperty@@AAEXXZ 00474310 f   SSPProperty.obj
 0001:00073390       ?SelectPageFromType@CSSPProperty@@QAEXPBG@Z 00474390 f   SSPProperty.obj
 0001:000733d0       ?GetPageFromType@CSSPProperty@@AAEJPBG@Z 004743d0 f   SSPProperty.obj
 0001:00073430       ?SelectPage@CSSPProperty@@AAEXI_N@Z 00474430 f   SSPProperty.obj
 0001:000735c0       ?OnSize@CSSPProperty@@IAEXIHH@Z 004745c0 f   SSPProperty.obj
 0001:000735e0       ?OnClose@CScheduleDlg@@IAEXXZ 004745e0 f   SSPProperty.obj
 0001:000735e0       ?OnClose@CMessengerDlg@@IAEXXZ 004745e0 f   SSPProperty.obj
 0001:000735e0       ?OnCancel@CMessengerDlg@@MAEXXZ 004745e0 f   SSPProperty.obj
 0001:000735e0       ?OnClose@CGhostAIGraph@@IAEXXZ 004745e0 f   SSPProperty.obj
 0001:000735e0       ?OnClose@CSSPProperty@@IAEXXZ 004745e0 f   SSPProperty.obj
 0001:000735e0       ?OnClose@CGhostTimeWnd@@IAEXXZ 004745e0 f   SSPProperty.obj
 0001:000735e0       ?OnCancel@CScheduleDlg@@MAEXXZ 004745e0 f   SSPProperty.obj
 0001:000735e0       ?OnClose@CLog@@IAEXXZ      004745e0 f   SSPProperty.obj
 0001:000735e0       ?OnCancel@CSSPProperty@@MAEXXZ 004745e0 f   SSPProperty.obj
 0001:000735e0       ?OnCancel@CLog@@MAEXXZ     004745e0 f   SSPProperty.obj
 0001:000735e0       ?OnOkbutton@CScheduleDlg@@IAEXXZ 004745e0 f   SSPProperty.obj
 0001:000735f0       ?OnCtlColor@CSSPProperty@@IAEPAUHBRUSH__@@PAVCDC@@PAVCWnd@@I@Z 004745f0 f   SSPProperty.obj
 0001:00073650       ?GetDlgCtrlText@CSSPProperty@@AAEPAGPBGH@Z 00474650 f   SSPProperty.obj
 0001:00074e30       ?OnHelpInfo@CSSPProperty@@IAEHPAUtagHELPINFO@@@Z 00475e30 f   SSPProperty.obj
 0001:00075000       ?WindowProc@CSSPProperty@@MAEJIIJ@Z 00476000 f   SSPProperty.obj
 0001:00075080       ??0CStatusWnd@@QAE@XZ      00476080 f   StatusWnd.obj
 0001:000750b0       ??_ECStatusWnd@@UAEPAXI@Z  004760b0 f i StatusWnd.obj
 0001:000750b0       ??_GCStatusWnd@@UAEPAXI@Z  004760b0 f i StatusWnd.obj
 0001:000750e0       ??1CStatusWnd@@UAE@XZ      004760e0 f   StatusWnd.obj
 0001:000750f0       ?GetMessageMap@CStatusWnd@@MBEPBUAFX_MSGMAP@@XZ 004760f0 f   StatusWnd.obj
 0001:00075100       ?CreateMe@CStatusWnd@@QAEHXZ 00476100 f   StatusWnd.obj
 0001:000751f0       ?OnDestroy@CStatusWnd@@IAEXXZ 004761f0 f   StatusWnd.obj
 0001:00075260       ?OnPaint@CStatusWnd@@IAEXXZ 00476260 f   StatusWnd.obj
 0001:00075280       ?WindowProc@CStatusWnd@@MAEJIIJ@Z 00476280 f   StatusWnd.obj
 0001:000752c0       ?Update@CStatusWnd@@QAEX_N@Z 004762c0 f   StatusWnd.obj
 0001:00075350       ?DrawWindow@CStatusWnd@@QAEXPAVJSurface@@@Z 00476350 f   StatusWnd.obj
 0001:000755e0       ?SetPos@CStatusWnd@@QAEXXZ 004765e0 f   StatusWnd.obj
 0001:00075670       ?Show@CStatusWnd@@QAEXXZ   00476670 f   StatusWnd.obj
 0001:00075710       ?OnTimer@CStatusWnd@@IAEXI@Z 00476710 f   StatusWnd.obj
 0001:00075820       ?WinExFlag@@YAKK@Z         00476820 f   StdAfx.obj
 0001:00075860       ??0CStdInput@@QAE@PAVCWnd@@@Z 00476860 f   StdInput.obj
 0001:00075990       ??_GCStdInput@@UAEPAXI@Z   00476990 f i StdInput.obj
 0001:00075990       ??_ECStdInput@@UAEPAXI@Z   00476990 f i StdInput.obj
 0001:000759c0       ?DoModalExt@CStdInput@@QAEHPAUHWND__@@@Z 004769c0 f   StdInput.obj
 0001:000759e0       ?DoModalExt@CStdInput@@QAEHPAVCWnd@@@Z 004769e0 f   StdInput.obj
 0001:000759f0       ?ModifyTemplate@CStdInput@@UAEXPAVSPDlgTemplate@@@Z 004769f0 f   StdInput.obj
 0001:00075a30       ?GetMessageMap@CStdInput@@MBEPBUAFX_MSGMAP@@XZ 00476a30 f   StdInput.obj
 0001:00075a40       ?OnOK@CStdInput@@MAEXXZ    00476a40 f   StdInput.obj
 0001:00075a70       ?OnCancel@CStdInput@@MAEXXZ 00476a70 f   StdInput.obj
 0001:00075a90       ?OnInitDialog@CStdInput@@MAEHXZ 00476a90 f   StdInput.obj
 0001:00075b20       ?SetMessage@CStdInput@@QAEXPBGH0_N@Z 00476b20 f   StdInput.obj
 0001:00075b60       ?SetMessage@CStdInput@@QAEXPBG00_N@Z 00476b60 f   StdInput.obj
 0001:00075bd0       ?GetText@CStdInput@@QAEPBGXZ 00476bd0 f   StdInput.obj
 0001:00075be0       ?GetNum@CStdInput@@QAEHXZ  00476be0 f   StdInput.obj
 0001:00075c60       ?GetSubWindowList@@YAAAVCSubWindowList@@XZ 00476c60 f   SubWindowList.obj
 0001:00075cb0       ??0CSubWindowList@@QAE@XZ  00476cb0 f   SubWindowList.obj
 0001:00075d10       ??_ECSubWindowList@@UAEPAXI@Z 00476d10 f i SubWindowList.obj
 0001:00075d10       ??_GCSubWindowList@@UAEPAXI@Z 00476d10 f i SubWindowList.obj
 0001:00075d40       ??1CSubWindowList@@UAE@XZ  00476d40 f   SubWindowList.obj
 0001:00075dc0       ?AddWindow@CSubWindowList@@QAEXPAVCWnd@@K@Z 00476dc0 f   SubWindowList.obj
 0001:00075ef0       ?DeleteWindow@CSubWindowList@@QAEXPAVCWnd@@@Z 00476ef0 f   SubWindowList.obj
 0001:00076040       ?CheckWindowIsInWorkrect@CSubWindowList@@QAEXXZ 00477040 f   SubWindowList.obj
 0001:00076180       ?ActivateWindow@CSubWindowList@@QAEXKPAUHWND__@@0@Z 00477180 f   SubWindowList.obj
 0001:00076200       ??0CSurfaceTest@@QAE@PAVCWnd@@@Z 00477200 f   SurfaceTest.obj
 0001:00076360       ??_GCListBox@@UAEPAXI@Z    00477360 f i SurfaceTest.obj
 0001:00076360       ??_ECListBox@@UAEPAXI@Z    00477360 f i SurfaceTest.obj
 0001:00076390       ??_ECSurfaceTest@@UAEPAXI@Z 00477390 f i SurfaceTest.obj
 0001:00076390       ??_GCSurfaceTest@@UAEPAXI@Z 00477390 f i SurfaceTest.obj
 0001:000763c0       ??1CSurfaceTest@@UAE@XZ    004773c0 f i SurfaceTest.obj
 0001:000764e0       ?DoDataExchange@CSurfaceTest@@MAEXPAVCDataExchange@@@Z 004774e0 f   SurfaceTest.obj
 0001:00076540       ?GetMessageMap@CSurfaceTest@@MBEPBUAFX_MSGMAP@@XZ 00477540 f   SurfaceTest.obj
 0001:00076550       ?OnSelchangeSurface@CSurfaceTest@@IAEXXZ 00477550 f   SurfaceTest.obj
 0001:00076580       ?OnInitDialog@CSurfaceTest@@MAEHXZ 00477580 f   SurfaceTest.obj
 0001:000769b0       ?SetGhost@CSurfaceTest@@QAEXPAVSPGhost@@@Z 004779b0 f   SurfaceTest.obj
 0001:000769c0       ?OnDestroy@CSurfaceTest@@IAEXXZ 004779c0 f   SurfaceTest.obj
 0001:00076aa0       ??1SPSurfaceTestManager@@QAE@XZ 00477aa0 f i SurfaceTest.obj
 0001:00076b00       ?OnClose@CSurfaceTest@@IAEXXZ 00477b00 f   SurfaceTest.obj
 0001:00076b00       ?OnCancel@CSurfaceTest@@MAEXXZ 00477b00 f   SurfaceTest.obj
 0001:00076b30       ?OnSelchangeChar@CSurfaceTest@@IAEXXZ 00477b30 f   SurfaceTest.obj
 0001:00076b40       ?OnSelchangeAnimID@CSurfaceTest@@IAEXXZ 00477b40 f   SurfaceTest.obj
 0001:00076b70       ?OnSurfacetestExec@CSurfaceTest@@IAEXXZ 00477b70 f   SurfaceTest.obj
 0001:00076b80       ?SelChange@CSurfaceTest@@IAEX_N@Z 00477b80 f   SurfaceTest.obj
 0001:000770a0       ?ListSerikoID@CSurfaceTest@@IAEX_N@Z 004780a0 f   SurfaceTest.obj
 0001:00077c80       ??1CSurfaceTestNameCache@@QAE@XZ 00478c80 f i SurfaceTest.obj
 0001:00077cd0       ?ListAnimID@CSurfaceTest@@IAEXXZ 00478cd0 f   SurfaceTest.obj
 0001:000784a0       ?OnSize@CSurfaceTest@@IAEXIHH@Z 004794a0 f   SurfaceTest.obj
 0001:000784e0       ?OnScript@CSurfaceTest@@IAEXXZ 004794e0 f   SurfaceTest.obj
 0001:00078530       ?OnCopy@CSurfaceTest@@IAEXXZ 00479530 f   SurfaceTest.obj
 0001:00078570       ?OnSort@CSurfaceTest@@IAEXXZ 00479570 f   SurfaceTest.obj
 0001:000785c0       ?OnGetMinMaxInfo@CSurfaceTest@@IAEXPAUtagMINMAXINFO@@@Z 004795c0 f   SurfaceTest.obj
 0001:00078660       ?WindowProc@CSurfaceTest@@MAEJIIJ@Z 00479660 f   SurfaceTest.obj
 0001:000787d0       ?OnSurfaceTestMenu@CSurfaceTest@@IAEXXZ 004797d0 f   SurfaceTest.obj
 0001:00078a80       ?MultipleChange@CSurfaceTest@@IAEX_N@Z 00479a80 f   SurfaceTest.obj
 0001:00078bd0       ?OnNotifyFormat@CMessageWnd@@IAEJIJ@Z 00479bd0 f   SurfaceTest.obj
 0001:00078bd0       ?OnNotifyFormat@CLog@@AAEJIJ@Z 00479bd0 f   SurfaceTest.obj
 0001:00078bd0       ?OnNotifyFormat@CSurfaceTest@@IAEJIJ@Z 00479bd0 f   SurfaceTest.obj
 0001:00078bd0       ?OnNotifyFormat@CFolderEditDlg@@IAEJIJ@Z 00479bd0 f   SurfaceTest.obj
 0001:00078be0       ??0?$JPtrArray@PAVSPSurfaceTestData@@@@QAE@J@Z 00479be0 f i SurfaceTest.obj
 0001:00078c40       ?Find@?$SPSparsePtrArrayDef@PAVSPAnimeBase@@@@QAEJK@Z 00479c40 f i SurfaceTest.obj
 0001:00078c40       ?Find@?$SPSparsePtrArrayDef@PAVSPSerikoTask@@@@QAEJK@Z 00479c40 f i SurfaceTest.obj
 0001:00078c40       ?Find@?$SPSparsePtrArrayDef@PAVSPBalloonDescHolder@@@@QAEJK@Z 00479c40 f i SurfaceTest.obj
 0001:00078c70       ?sort_heap@std@@YAXPAVCSurfaceTestBaseList@@0U?$JArray_PredConverterRev@VCSurfaceTestBaseList@@P6AHABV1@0PAX@Z@@@Z 00479c70 f i SurfaceTest.obj
 0001:00078da0       ?make_heap@std@@YAXPAVCSurfaceTestBaseList@@0U?$JArray_PredConverter@VCSurfaceTestBaseList@@P6AHABV1@0PAX@Z@@@Z 00479da0 f i SurfaceTest.obj
 0001:00078ed0       ?sort_heap@std@@YAXPAVCSurfaceTestBaseList@@0U?$JArray_PredConverter@VCSurfaceTestBaseList@@P6AHABV1@0PAX@Z@@@Z 00479ed0 f i SurfaceTest.obj
 0001:00079000       ?_Make_heap@std@@YAXPAVCSurfaceTestBaseList@@0U?$JArray_PredConverterRev@VCSurfaceTestBaseList@@P6AHABV1@0PAX@Z@@PAH0@Z 0047a000 f i SurfaceTest.obj
 0001:00079120       ?CreateObject@CTalkDlg@@SGPAVCObject@@XZ 0047a120 f   TalkDlg.obj
 0001:00079180       ?GetRuntimeClass@CTalkDlg@@UBEPAUCRuntimeClass@@XZ 0047a180 f   TalkDlg.obj
 0001:00079190       ??0CTalkDlg@@QAE@PAVCWnd@@@Z 0047a190 f   TalkDlg.obj
 0001:00079280       ??_GCTalkDlg@@UAEPAXI@Z    0047a280 f i TalkDlg.obj
 0001:00079280       ??_ECTalkDlg@@UAEPAXI@Z    0047a280 f i TalkDlg.obj
 0001:000792b0       ??1CTalkDlg@@UAE@XZ        0047a2b0 f i TalkDlg.obj
 0001:00079360       ?DoDataExchange@CTalkDlg@@MAEXPAVCDataExchange@@@Z 0047a360 f   TalkDlg.obj
 0001:000793f0       ?GetMessageMap@CTalkDlg@@MBEPBUAFX_MSGMAP@@XZ 0047a3f0 f   TalkDlg.obj
 0001:00079400       ?OnInitDialog@CTalkDlg@@MAEHXZ 0047a400 f   TalkDlg.obj
 0001:00079800       ?InitTimeoutSlider@CTalkDlg@@AAEXAAVCSliderCtrl@@H@Z 0047a800 f   TalkDlg.obj
 0001:00079860       ?ReinitSlider@CTalkDlg@@AAEXAAVCSliderCtrl@@@Z 0047a860 f   TalkDlg.obj
 0001:00079900       ?OnHScroll@CTalkDlg@@IAEXIIPAVCScrollBar@@@Z 0047a900 f   TalkDlg.obj
 0001:00079a80       ?OnTalkNews@CTalkDlg@@IAEXXZ 0047aa80 f   TalkDlg.obj
 0001:00079ad0       ?OnChangeLeftdcSetting@CTalkDlg@@IAEXXZ 0047aad0 f   TalkDlg.obj
 0001:00079b10       ?OnChangeRightSetting@CTalkDlg@@IAEXXZ 0047ab10 f   TalkDlg.obj
 0001:00079b50       ?OnNoWaitHeadline@CTalkDlg@@IAEXXZ 0047ab50 f   TalkDlg.obj
 0001:00079ba0       ?OnShowBalloonOnline@CTalkDlg@@IAEXXZ 0047aba0 f   TalkDlg.obj
 0001:00079bf0       ?OnMouseOverNoTimeout@CTalkDlg@@IAEXXZ 0047abf0 f   TalkDlg.obj
 0001:00079c40       ?OnSelchangeSpeedupKey@CTalkDlg@@IAEXXZ 0047ac40 f   TalkDlg.obj
 0001:00079c80       ?OnSpeedup@CTalkDlg@@IAEXXZ 0047ac80 f   TalkDlg.obj
 0001:00079cf0       ?OnTalkPlay@CTalkDlg@@IAEXXZ 0047acf0 f   TalkDlg.obj
 0001:00079e80       ?OnTalkNone@CTalkDlg@@IAEXXZ 0047ae80 f   TalkDlg.obj
 0001:00079eb0       ?OnTalkBrowse@CTalkDlg@@IAEXXZ 0047aeb0 f   TalkDlg.obj
 0001:00079fe0       ?OnChangeTalkSoundpath@CTalkDlg@@IAEXXZ 0047afe0 f   TalkDlg.obj
 0001:0007a0f0       ?OnHeadlineNoTimeout@CTalkDlg@@IAEXXZ 0047b0f0 f   TalkDlg.obj
 0001:0007a120       ??0CThumbnailWnd@@QAE@XZ   0047b120 f   ThumbnailWnd.obj
 0001:0007a1f0       ??_GCThumbnailWnd@@UAEPAXI@Z 0047b1f0 f i ThumbnailWnd.obj
 0001:0007a1f0       ??_ECThumbnailWnd@@UAEPAXI@Z 0047b1f0 f i ThumbnailWnd.obj
 0001:0007a220       ??1CThumbnailWnd@@UAE@XZ   0047b220 f   ThumbnailWnd.obj
 0001:0007a290       ?GetMessageMap@CThumbnailWnd@@MBEPBUAFX_MSGMAP@@XZ 0047b290 f   ThumbnailWnd.obj
 0001:0007a2a0       ?OnPaint@CThumbnailWnd@@IAEXXZ 0047b2a0 f   ThumbnailWnd.obj
 0001:0007a340       ?CreateMe@CThumbnailWnd@@QAE_NPAVCHelperMainWnd@@PBG_N@Z 0047b340 f   ThumbnailWnd.obj
 0001:0007a880       ?PostNcDestroy@CThumbnailWnd@@MAEXXZ 0047b880 f   ThumbnailWnd.obj
 0001:0007a950       ??0CThumbnailWndLoader@@QAE@XZ 0047b950 f   ThumbnailWnd.obj
 0001:0007abb0       ??_GCThumbnailWndLoader@@UAEPAXI@Z 0047bbb0 f i ThumbnailWnd.obj
 0001:0007abb0       ??_ECThumbnailWndLoader@@UAEPAXI@Z 0047bbb0 f i ThumbnailWnd.obj
 0001:0007abe0       ??1CThumbnailWndLoader@@UAE@XZ 0047bbe0 f i ThumbnailWnd.obj
 0001:0007ae10       ?Loop@CThumbnailWndLoader@@UAEHXZ 0047be10 f   ThumbnailWnd.obj
 0001:0007b020       ?Exit@CThumbnailWndLoader@@UAEHXZ 0047c020 f   ThumbnailWnd.obj
 0001:0007b070       ?LoadThumbnail@CThumbnailWndLoader@@QAEXPAUHWND__@@PAVJWString@@@Z 0047c070 f   ThumbnailWnd.obj
 0001:0007b0c0       ?GetCacheName@CThumbnailWndLoader@@SAXPBGAAVJWString@@@Z 0047c0c0 f   ThumbnailWnd.obj
 0001:0007b0e0       ?Delete@?$SPCacheObj@VJWString@@VJCriticalSection@@VJLock@@@@QAEXPAVJWString@@@Z 0047c0e0 f i ThumbnailWnd.obj
 0001:0007b1e0       ??0CTimeMachinePalette@@QAE@PAVCWnd@@@Z 0047c1e0 f   TimeMachinePalette.obj
 0001:0007b270       ??_ECTimeMachinePalette@@UAEPAXI@Z 0047c270 f i TimeMachinePalette.obj
 0001:0007b270       ??_GCTimeMachinePalette@@UAEPAXI@Z 0047c270 f i TimeMachinePalette.obj
 0001:0007b2a0       ??1CTimeMachinePalette@@UAE@XZ 0047c2a0 f i TimeMachinePalette.obj
 0001:0007b300       ?DoDataExchange@CTimeMachinePalette@@MAEXPAVCDataExchange@@@Z 0047c300 f   TimeMachinePalette.obj
 0001:0007b340       ?GetMessageMap@CTimeMachinePalette@@MBEPBUAFX_MSGMAP@@XZ 0047c340 f   TimeMachinePalette.obj
 0001:0007b350       ?OnTimeMachineReset@CTimeMachinePalette@@IAEXXZ 0047c350 f   TimeMachinePalette.obj
 0001:0007b3c0       ?OnTimeMachineApply@CTimeMachinePalette@@IAEXXZ 0047c3c0 f   TimeMachinePalette.obj
 0001:0007b4e0       ?OnInitDialog@CTimeMachinePalette@@MAEHXZ 0047c4e0 f   TimeMachinePalette.obj
 0001:0007b580       ?OnTimer@CTimeMachinePalette@@IAEXI@Z 0047c580 f   TimeMachinePalette.obj
 0001:0007b5b0       ?OnCancel@CTimeMachinePalette@@MAEXXZ 0047c5b0 f   TimeMachinePalette.obj
 0001:0007b5e0       ?OnDestroy@CTimeMachinePalette@@IAEXXZ 0047c5e0 f   TimeMachinePalette.obj
 0001:0007b620       ?UpdateTime@CTimeMachinePalette@@AAEXXZ 0047c620 f   TimeMachinePalette.obj
 0001:0007b780       ?UpdateButtonState@CTimeMachinePalette@@AAEXXZ 0047c780 f   TimeMachinePalette.obj
 0001:0007b7b0       ??0CToolTipCustom@@QAE@XZ  0047c7b0 f   ToolTipCustom.obj
 0001:0007b8e0       ??_ECToolTipCustom@@UAEPAXI@Z 0047c8e0 f i ToolTipCustom.obj
 0001:0007b8e0       ??_GCToolTipCustom@@UAEPAXI@Z 0047c8e0 f i ToolTipCustom.obj
 0001:0007b910       ??1CToolTipCustom@@UAE@XZ  0047c910 f   ToolTipCustom.obj
 0001:0007b970       ?Create@CToolTipCustom@@QAEXPAUHWND__@@K@Z 0047c970 f   ToolTipCustom.obj
 0001:0007ba40       ?Release@CToolTipCustom@@QAEXXZ 0047ca40 f   ToolTipCustom.obj
 0001:0007ba70       ?InitTOOLINFOA@CToolTipCustom@@AAEXAAUtagTOOLINFOA@@@Z 0047ca70 f   ToolTipCustom.obj
 0001:0007baf0       ?InitTOOLINFOW@CToolTipCustom@@AAEXAAUtagTOOLINFOW@@@Z 0047caf0 f   ToolTipCustom.obj
 0001:0007bb70       ?Activate@CToolTipCustom@@QAEX_N0@Z 0047cb70 f   ToolTipCustom.obj
 0001:0007bce0       ?TrackSetPos@CToolTipCustom@@QAEXXZ 0047cce0 f   ToolTipCustom.obj
 0001:0007bd40       ?TrackSetText@CToolTipCustom@@QAEXPBG@Z 0047cd40 f   ToolTipCustom.obj
 0001:0007be10       _png_sig_cmp               0047ce10 f   png.obj
 0001:0007be90       _png_zalloc                0047ce90 f   png.obj
 0001:0007bee0       _png_zfree                 0047cee0 f   png.obj
 0001:0007bf00       _png_reset_crc             0047cf00 f   png.obj
 0001:0007bf20       _png_calculate_crc         0047cf20 f   png.obj
 0001:0007bf90       _png_user_version_check    0047cf90 f   png.obj
 0001:0007c060       _png_create_png_struct     0047d060 f   png.obj
 0001:0007c180       _png_create_info_struct    0047d180 f   png.obj
 0001:0007c1b0       _png_destroy_info_struct   0047d1b0 f   png.obj
 0001:0007c200       _png_free_data             0047d200 f   png.obj
 0001:0007c360       _png_get_io_ptr            0047d360 f   png.obj
 0001:0007c380       _png_init_io               0047d380 f   png.obj
 0001:0007c3a0       _png_get_libpng_ver        0047d3a0 f   png.obj
 0001:0007c3c0       _png_get_header_ver        0047d3c0 f   png.obj
 0001:0007c3d0       _png_handle_as_unknown     0047d3d0 f   png.obj
 0001:0007c430       _png_chunk_unknown_handling 0047d430 f   png.obj
 0001:0007c470       _png_zstream_error         0047d470 f   png.obj
 0001:0007c540       _png_check_IHDR            0047d540 f   png.obj
 0001:0007c700       _png_set_option            0047d700 f   png.obj
 0001:0007c760       _png_error                 0047d760 f   pngerror.obj
 0001:0007c790       _png_safecat               0047d790 f   pngerror.obj
 0001:0007c7d0       _png_warning               0047d7d0 f   pngerror.obj
 0001:0007c820       _png_benign_error          0047d820 f   pngerror.obj
 0001:0007c890       _png_app_warning           0047d890 f   pngerror.obj
 0001:0007c8c0       _png_app_error             0047d8c0 f   pngerror.obj
 0001:0007c8f0       _png_chunk_error           0047d8f0 f   pngerror.obj
 0001:0007c9e0       _png_chunk_warning         0047d9e0 f   pngerror.obj
 0001:0007ca30       _png_chunk_benign_error    0047da30 f   pngerror.obj
 0001:0007ca60       _png_chunk_report          0047da60 f   pngerror.obj
 0001:0007cac0       _png_set_longjmp_fn        0047dac0 f   pngerror.obj
 0001:0007cb50       _png_free_jmpbuf           0047db50 f   pngerror.obj
 0001:0007cc10       _png_longjmp               0047dc10 f   pngerror.obj
 0001:0007cc70       _png_set_error_fn          0047dc70 f   pngerror.obj
 0001:0007cc90       _png_get_error_ptr         0047dc90 f   pngerror.obj
 0001:0007ccb0       _png_get_valid             0047dcb0 f   pngget.obj
 0001:0007ccd0       _png_get_IHDR              0047dcd0 f   pngget.obj
 0001:0007cd90       _png_get_PLTE              0047dd90 f   pngget.obj
 0001:0007cdd0       _png_get_tRNS              0047ddd0 f   pngget.obj
 0001:0007ce50       _png_destroy_png_struct    0047de50 f   pngmem.obj
 0001:0007cea0       _png_calloc                0047dea0 f   pngmem.obj
 0001:0007cee0       _png_malloc_base           0047dee0 f   pngmem.obj
 0001:0007cf50       _png_realloc_array         0047df50 f   pngmem.obj
 0001:0007d000       _png_malloc                0047e000 f   pngmem.obj
 0001:0007d040       _png_malloc_warn           0047e040 f   pngmem.obj
 0001:0007d070       _png_free                  0047e070 f   pngmem.obj
 0001:0007d0a0       _png_free_default          0047e0a0 f   pngmem.obj
 0001:0007d0c0       _png_set_mem_fn            0047e0c0 f   pngmem.obj
 0001:0007d0f0       _png_create_read_struct    0047e0f0 f   pngread.obj
 0001:0007d120       _png_create_read_struct_2  0047e120 f   pngread.obj
 0001:0007d180       _png_read_info             0047e180 f   pngread.obj
 0001:0007d360       _png_read_update_info      0047e360 f   pngread.obj
 0001:0007d3a0       _png_start_read_image      0047e3a0 f   pngread.obj
 0001:0007d3d0       _png_read_row              0047e3d0 f   pngread.obj
 0001:0007d6e0       _png_read_image            0047e6e0 f   pngread.obj
 0001:0007d780       _png_read_end              0047e780 f   pngread.obj
 0001:0007d930       _png_destroy_read_struct   0047e930 f   pngread.obj
 0001:0007da70       _png_read_data             0047ea70 f   pngrio.obj
 0001:0007daa0       _png_default_read_data     0047eaa0 f   pngrio.obj
 0001:0007dae0       _png_set_read_fn           0047eae0 f   pngrio.obj
 0001:0007db30       _png_set_crc_action        0047eb30 f   pngrtran.obj
 0001:0007dc40       _png_set_strip_16          0047ec40 f   pngrtran.obj
 0001:0007dc70       _png_set_strip_alpha       0047ec70 f   pngrtran.obj
 0001:0007dc90       _png_set_expand_gray_1_2_4_to_8 0047ec90 f   pngrtran.obj
 0001:0007dcc0       _png_set_tRNS_to_alpha     0047ecc0 f   pngrtran.obj
 0001:0007dce0       _png_init_read_transformations 0047ece0 f   pngrtran.obj
 0001:0007dde0       _png_read_transform_info   0047ede0 f   pngrtran.obj
 0001:0007df40       _png_do_read_transformations 0047ef40 f   pngrtran.obj
 0001:0007ed20       _png_get_uint_31           0047fd20 f   pngrutil.obj
 0001:0007ed70       _png_read_sig              0047fd70 f   pngrutil.obj
 0001:0007ee10       _png_read_chunk_header     0047fe10 f   pngrutil.obj
 0001:0007eeb0       _png_crc_read              0047feb0 f   pngrutil.obj
 0001:0007eee0       _png_crc_finish            0047fee0 f   pngrutil.obj
 0001:0007ef80       _png_crc_error             0047ff80 f   pngrutil.obj
 0001:0007f020       _png_zlib_inflate          00480020 f   pngrutil.obj
 0001:0007f070       _png_handle_IHDR           00480070 f   pngrutil.obj
 0001:0007f1e0       _png_handle_PLTE           004801e0 f   pngrutil.obj
 0001:0007f390       _png_handle_IEND           00480390 f   pngrutil.obj
 0001:0007f3e0       _png_handle_tRNS           004803e0 f   pngrutil.obj
 0001:0007f620       _png_handle_acTL           00480620 f   pngrutil.obj
 0001:0007f700       _png_handle_fcTL           00480700 f   pngrutil.obj
 0001:0007f870       _png_have_info             00480870 f   pngrutil.obj
 0001:0007f8b0       _png_handle_fdAT           004808b0 f   pngrutil.obj
 0001:0007f8e0       _png_ensure_sequence_number 004808e0 f   pngrutil.obj
 0001:0007f940       _png_handle_unknown        00480940 f   pngrutil.obj
 0001:0007fbb0       _png_check_chunk_name      00480bb0 f   pngrutil.obj
 0001:0007fc00       _png_check_chunk_length    00480c00 f   pngrutil.obj
 0001:0007fcd0       _png_combine_row           00480cd0 f   pngrutil.obj
 0001:000801c0       _png_do_read_interlace     004811c0 f   pngrutil.obj
 0001:000804f0       _png_read_filter_row       004814f0 f   pngrutil.obj
 0001:000807c0       _png_read_IDAT_data        004817c0 f   pngrutil.obj
 0001:00080ab0       _png_read_finish_IDAT      00481ab0 f   pngrutil.obj
 0001:00080b10       _png_read_finish_row       00481b10 f   pngrutil.obj
 0001:00080c20       _png_read_start_row        00481c20 f   pngrutil.obj
 0001:00080ff0       _png_read_reinit           00481ff0 f   pngrutil.obj
 0001:00081090       _png_set_IHDR              00482090 f   pngset.obj
 0001:00081170       _png_set_PLTE              00482170 f   pngset.obj
 0001:00081260       _png_set_tRNS              00482260 f   pngset.obj
 0001:00081390       _png_set_acTL              00482390 f   pngset.obj
 0001:00081430       _png_set_next_frame_fcTL   00482430 f   pngset.obj
 0001:00081500       _png_ensure_fcTL_is_valid  00482500 f   pngset.obj
 0001:000815f0       _png_set_unknown_chunks    004825f0 f   pngset.obj
 0001:000817b0       _png_set_keep_unknown_chunks 004827b0 f   pngset.obj
 0001:000819e0       _png_set_benign_errors     004829e0 f   pngset.obj
 0001:00081a10       _png_set_bgr               00482a10 f   pngtrans.obj
 0001:00081a20       _png_set_packing           00482a20 f   pngtrans.obj
 0001:00081a50       _png_set_interlace_handling 00482a50 f   pngtrans.obj
 0001:00081a80       _png_set_filler            00482a80 f   pngtrans.obj
 0001:00081b20       _png_do_strip_channel      00482b20 f   pngtrans.obj
 0001:00081c80       _png_do_bgr                00482c80 f   pngtrans.obj
 0001:00081d50       _png_do_check_palette_indexes 00482d50 f   pngtrans.obj
 0001:00081f00       _png_write_data            00482f00 f   pngwio.obj
 0001:00081f30       _png_default_write_data    00482f30 f   pngwio.obj
 0001:00081f70       _png_flush                 00482f70 f   pngwio.obj
 0001:00081f90       _png_default_flush         00482f90 f   pngwio.obj
 0001:00081fb0       _png_set_write_fn          00482fb0 f   pngwio.obj
 0001:00082010       _png_write_info_before_PLTE 00483010 f   pngwrite.obj
 0001:00082090       _png_write_info            00483090 f   pngwrite.obj
 0001:000820f0       _png_write_end             004830f0 f   pngwrite.obj
 0001:00082170       _png_create_write_struct   00483170 f   pngwrite.obj
 0001:000821a0       _png_create_write_struct_2 004831a0 f   pngwrite.obj
 0001:00082220       _png_write_image           00483220 f   pngwrite.obj
 0001:00082260       _png_write_row             00483260 f   pngwrite.obj
 0001:000823b0       _png_write_flush           004833b0 f   pngwrite.obj
 0001:000823f0       _png_destroy_write_struct  004833f0 f   pngwrite.obj
 0001:000824c0       _png_do_write_transformations 004834c0 f   pngwtran.obj
 0001:000825a0       _png_save_uint_32          004835a0 f   pngwutil.obj
 0001:000825d0       _png_write_sig             004835d0 f   pngwutil.obj
 0001:000826b0       _png_write_chunk_data      004836b0 f   pngwutil.obj
 0001:000826f0       _png_write_chunk_end       004836f0 f   pngwutil.obj
 0001:00082780       _png_free_buffer_list      00483780 f   pngwutil.obj
 0001:000827b0       _png_write_IHDR            004837b0 f   pngwutil.obj
 0001:00082a20       _png_write_PLTE            00483a20 f   pngwutil.obj
 0001:00082ae0       _png_compress_IDAT         00483ae0 f   pngwutil.obj
 0001:000830f0       _png_write_IEND            004840f0 f   pngwutil.obj
 0001:00083120       _png_write_acTL            00484120 f   pngwutil.obj
 0001:00083170       _png_write_fdAT            00484170 f   pngwutil.obj
 0001:000831d0       _png_write_start_row       004841d0 f   pngwutil.obj
 0001:00083300       _png_write_finish_row      00484300 f   pngwutil.obj
 0001:00083330       _png_write_find_filter     00484330 f   pngwutil.obj
 0001:00083b80       _adler32_z                 00484b80 f   adler32.obj
 0001:00083e00       _adler32                   00484e00 f   adler32.obj
 0001:00083e20       _get_crc_table             00484e20 f   crc32.obj
 0001:00083e30       _crc32_z                   00484e30 f   crc32.obj
 0001:000841a0       _crc32                     004851a0 f   crc32.obj
 0001:000841c0       _deflateInit_              004851c0 f   deflate.obj
 0001:000841f0       _deflateInit2_             004851f0 f   deflate.obj
 0001:000844e0       _deflateResetKeep          004854e0 f   deflate.obj
 0001:00084570       _deflateReset              00485570 f   deflate.obj
 0001:000845f0       _deflate                   004855f0 f   deflate.obj
 0001:000850d0       _deflateEnd                004860d0 f   deflate.obj
 0001:00086800       _inflate_fast              00487800 f   inffast.obj
 0001:00086c80       _inflateResetKeep          00487c80 f   inflate.obj
 0001:00086d60       _inflateReset              00487d60 f   inflate.obj
 0001:00086da0       _inflateReset2             00487da0 f   inflate.obj
 0001:00086e50       _inflateInit2_             00487e50 f   inflate.obj
 0001:00086f20       _inflateInit_              00487f20 f   inflate.obj
 0001:00086f40       _inflate                   00487f40 f   inflate.obj
 0001:00088890       _inflateEnd                00489890 f   inflate.obj
 0001:000888e0       _inflateValidate           004898e0 f   inflate.obj
 0001:00088930       _inflate_table             00489930 f   inftrees.obj
 0001:00088d20       __tr_init                  00489d20 f   trees.obj
 0001:00088e10       __tr_stored_block          00489e10 f   trees.obj
 0001:00088f20       __tr_flush_bits            00489f20 f   trees.obj
 0001:00088f40       __tr_align                 00489f40 f   trees.obj
 0001:00089080       __tr_flush_block           0048a080 f   trees.obj
 0001:0008a7d0       _zlibVersion               0048b7d0 f   zutil.obj
 0001:0008a7e0       _zError                    0048b7e0 f   zutil.obj
 0001:0008a800       _zcalloc                   0048b800 f   zutil.obj
 0001:0008a820       ??0JCriticalSection@@QAE@XZ 0048b820 f   j_criticalsection.obj
 0001:0008a940       ??_GJCriticalSection@@UAEPAXI@Z 0048b940 f i j_criticalsection.obj
 0001:0008a940       ??_EJCriticalSection@@UAEPAXI@Z 0048b940 f i j_criticalsection.obj
 0001:0008a970       ??1JCriticalSection@@UAE@XZ 0048b970 f   j_criticalsection.obj
 0001:0008a990       ?Lock@JCriticalSection@@UAE_NJ@Z 0048b990 f   j_criticalsection.obj
 0001:0008a9a0       ?Unlock@JCriticalSection@@UAEXXZ 0048b9a0 f   j_criticalsection.obj
 0001:0008a9b0       ??0JDC@@QAE@XZ             0048b9b0 f   j_dc.obj
 0001:0008a9d0       ??_EJDC@@UAEPAXI@Z         0048b9d0 f i j_dc.obj
 0001:0008a9d0       ??_GJDC@@UAEPAXI@Z         0048b9d0 f i j_dc.obj
 0001:0008aa00       ??0JDC@@QAE@PAUHWND__@@@Z  0048ba00 f   j_dc.obj
 0001:0008aa30       ?Init@JDC@@AAEXXZ          0048ba30 f   j_dc.obj
 0001:0008aa40       ??1JDC@@UAE@XZ             0048ba40 f   j_dc.obj
 0001:0008aa60       ?CreateMemoryDC@JDC@@QAEPAUHDC__@@XZ 0048ba60 f   j_dc.obj
 0001:0008aac0       ?ReleaseDC@JDC@@QAEXXZ     0048bac0 f   j_dc.obj
 0001:0008ab40       ?SelectBitmap@JDC@@QAEPAUHBITMAP__@@PAU2@@Z 0048bb40 f   j_dc.obj
 0001:0008ab80       ?Read@JBITMAPINFOHEADER@@QAEHAAVJStream@@@Z 0048bb80 f   j_dib.obj
 0001:0008ad40       ??1JDib@@UAE@XZ            0048bd40 f   j_dib.obj
 0001:0008ad90       ??_EJDib@@UAEPAXI@Z        0048bd90 f i j_dib.obj
 0001:0008ad90       ??_GJDib@@UAEPAXI@Z        0048bd90 f i j_dib.obj
 0001:0008adc0       ?SetFlag@JDib@@QAEXI@Z     0048bdc0 f   j_dib.obj
 0001:0008ade0       ?Create@JDib@@QAEHKK@Z     0048bde0 f   j_dib.obj
 0001:0008af60       ?Release@JDib@@QAEXXZ      0048bf60 f   j_dib.obj
 0001:0008afd0       ?Open@JDib@@QAEHAAVJStream@@@Z 0048bfd0 f   j_dib.obj
 0001:0008b3d0       ?Save@JDib@@QAEHPBDK@Z     0048c3d0 f   j_dib.obj
 0001:0008b490       ?Save@JDib@@QAEHAAVJStream@@K@Z 0048c490 f   j_dib.obj
 0001:0008b6e0       ?SetPalette@JDib@@QAEXAAVJPalette@@@Z 0048c6e0 f   j_dib.obj
 0001:0008b730       ?GetPalette@JDib@@QAEXAAVJPalette@@@Z 0048c730 f   j_dib.obj
 0001:0008b750       ?To8bpp@JDib@@IAEHPAUtagBITMAPINFOHEADER@@PAUtagRGBQUAD@@PAX@Z 0048c750 f   j_dib.obj
 0001:0008b960       ?To32bpp@JDib@@IAEHPAUtagBITMAPINFOHEADER@@PAUtagRGBQUAD@@PAX@Z 0048c960 f   j_dib.obj
 0001:0008bc20       ?ComputeCenter@JDibVect@@QAEXXZ 0048cc20 f   j_dib.obj
 0001:0008bce0       ?Quantize@JDibVect@@QAEHXZ 0048cce0 f   j_dib.obj
 0001:0008c040       ??0JDibDecPal@@QAE@XZ      0048d040 f i j_dib.obj
 0001:0008c060       ??_EJDibDecPal@@UAEPAXI@Z  0048d060 f i j_dib.obj
 0001:0008c060       ??_GJDibDecPal@@UAEPAXI@Z  0048d060 f i j_dib.obj
 0001:0008c090       ??1JDibDecPal@@UAE@XZ      0048d090 f i j_dib.obj
 0001:0008c0a0       ??_GJList@@UAEPAXI@Z       0048d0a0 f i j_dib.obj
 0001:0008c0a0       ??_EJList@@UAEPAXI@Z       0048d0a0 f i j_dib.obj
 0001:0008c0d0       ?JDibCreateHistgram@@YAPAVJDibVect@@PAUtagBITMAPINFOHEADER@@PAE@Z 0048d0d0 f   j_dib.obj
 0001:0008c280       ?JDibVectQuantize@@YAHPAVJDibVect@@J@Z 0048d280 f   j_dib.obj
 0001:0008c2d0       ?JDibVectQGetDeepest@@YAHPAVJDibVect@@PAPAV1@PAJ@Z 0048d2d0 f   j_dib.obj
 0001:0008c330       ?JDibVectQCreatePalette@@YAHPAVJDibVect@@PAUtagRGBQUAD@@PAE@Z 0048d330 f   j_dib.obj
 0001:0008c460       ?DecreaseTo8@JDib@@QAEHPAUtagBITMAPINFOHEADER@@PAEHH@Z 0048d460 f   j_dib.obj
 0001:0008cb50       ??1JDibVect@@QAE@XZ        0048db50 f i j_dib.obj
 0001:0008cbd0       ?Create@JDIBSurface@@UAEHJJJ@Z 0048dbd0 f   j_dibsurf.obj
 0001:0008cd00       ?Update@JDIBSurface@@UAEXXZ 0048dd00 f   j_dibsurf.obj
 0001:0008cd50       ?SetPixel@JDIBSurface@@UAEXJJEEE@Z 0048dd50 f   j_dibsurf.obj
 0001:0008cd90       ?GetPixel@JDIBSurface@@UAEXJJAAE00@Z 0048dd90 f   j_dibsurf.obj
 0001:0008cdd0       ?InternalLoad@JDynLoad@@AAE_NXZ 0048ddd0 f   j_dynload.obj
 0001:0008ce90       ?InternalUnload@JDynLoad@@AAEXXZ 0048de90 f   j_dynload.obj
 0001:0008ceb0       ?GetProc@JDynLoad@@UAEPAXPBD@Z 0048deb0 f   j_dynload.obj
 0001:0008cee0       ?SetModuleName@JDynLoad@@UAEXPBD@Z 0048dee0 f   j_dynload.obj
 0001:0008cf00       ?SetModuleName@JDynLoadSystem@@UAEXPBD@Z 0048df00 f   j_dynload.obj
 0001:0008cf20       ?Create@JGIFImage@@QAEHJJ@Z 0048df20 f   j_gif.obj
 0001:0008cf60       ?Release@JGIFImage@@QAEXXZ 0048df60 f   j_gif.obj
 0001:0008cf80       ?ReadPalette@JGIFImage@@IAEHAAVJStream@@H@Z 0048df80 f   j_gif.obj
 0001:0008d010       ?ReadData@JGIFImage@@QAEHAAVJStream@@@Z 0048e010 f   j_gif.obj
 0001:0008d140       ?ReadPalette@JGIF@@IAEHAAVJStream@@H@Z 0048e140 f   j_gif.obj
 0001:0008d1d0       ?Release@JGIF@@QAEHXZ      0048e1d0 f   j_gif.obj
 0001:0008d240       ??1JGIFImage@@QAE@XZ       0048e240 f i j_gif.obj
 0001:0008d250       ?Read@JGIF@@QAEHAAVJStream@@@Z 0048e250 f   j_gif.obj
 0001:0008d690       ?GetImageAsJSurface@JGIF@@QAEPAVJSurface@@H@Z 0048e690 f   j_gif.obj
 0001:0008d740       ?GetVer@JLibJPEG@@SAPBDXZ  0048e740 f   j_libjpeg.obj
 0001:0008d780       ?ErrorFunc@JLibJPEG@@QAEXPBD@Z 0048e780 f   j_libjpeg.obj
 0001:0008d840       ?Read@JLibJPEG@@QAEPAVJSurface@@PBG@Z 0048e840 f   j_libjpeg.obj
 0001:0008d860       ?ReadFromBuffer@JLibJPEG@@QAEPAVJSurface@@PADKPBG@Z 0048e860 f   j_libjpeg.obj
 0001:0008d890       ?Read@JLibJPEG@@AAEPAVJSurface@@PBGPADK@Z 0048e890 f   j_libjpeg.obj
 0001:0008dd60       ?JLibMAG_Read@@YAPAVJSurface@@PBG_N@Z 0048ed60 f   j_libmag.obj
 0001:0008dfc0       ?JLibPI_Read@@YAPAVJSurface@@PBG_N@Z 0048efc0 f   j_libpi.obj
 0001:0008e250       ??0JLibPNG@@QAE@_N@Z       0048f250 f   j_libpng.obj
 0001:0008e370       ?Release@JLibPNG@@QAEXXZ   0048f370 f   j_libpng.obj
 0001:0008e4a0       ?GetVer@JLibPNG@@SAPBDXZ   0048f4a0 f   j_libpng.obj
 0001:0008e4d0       ?Read@JLibPNG@@QAEPAVJSurface@@PBGH@Z 0048f4d0 f   j_libpng.obj
 0001:0008e5e0       ?ErrorFunc@JLibPNG@@QAEXPBD@Z 0048f5e0 f   j_libpng.obj
 0001:0008e6a0       ?WarnFunc@JLibPNG@@QAEXPBD@Z 0048f6a0 f   j_libpng.obj
 0001:0008e770       ?ReadFromBuffer@JLibPNG@@QAEPAVJSurface@@PADKPBGH_N@Z 0048f770 f   j_libpng.obj
 0001:0008eb30       ?RealRead@JLibPNG@@AAEPAVJSurface@@HPAUpng_struct_def@@PAUpng_info_def@@_N@Z 0048fb30 f   j_libpng.obj
 0001:0008f310       ?GetCSFlag@JLibPNG@@QAEIXZ 00490310 f   j_libpng.obj
 0001:0008f320       ?SaveToFile@JLibPNG@@QAEHPBGPAVJSurface@@H@Z 00490320 f   j_libpng.obj
 0001:0008f450       ?RealSave@JLibPNG@@AAEHPAVJSurface@@HPAUpng_struct_def@@PAUpng_info_def@@@Z 00490450 f   j_libpng.obj
 0001:0008f560       ?AddNode@JList@@QAEXPAV1@@Z 00490560 f   j_list.obj
 0001:0008f580       ?DeleteNode@JList@@QAEXXZ  00490580 f   j_list.obj
 0001:0008f5a0       ?DeleteAllNode@JList@@QAEXXZ 004905a0 f   j_list.obj
 0001:0008f5d0       ?Read@JLZWDecoder@@QAEKAAVJStream@@PAEH@Z 004905d0 f   j_lzw.obj
 0001:0008f7d0       ?Seek@JMappedStream@@UAEHJH@Z 004907d0 f   j_mapstream.obj
 0001:0008f820       ?Read@JMappedStream@@UAEKPAXK@Z 00490820 f   j_mapstream.obj
 0001:0008f870       ?Open@JMappedStream@@QAEHKPAD@Z 00490870 f   j_mapstream.obj
 0001:0008f8f0       ?Open@JMappedStream@@UAEHPBDH@Z 004908f0 f   j_mapstream.obj
 0001:0008f970       ?Open@JMappedStream@@UAEHPBGH@Z 00490970 f   j_mapstream.obj
 0001:0008fad0       ?Close@JMappedStream@@UAEXXZ 00490ad0 f   j_mapstream.obj
 0001:0008fb30       ?InitData@JMappedStream@@AAEXXZ 00490b30 f   j_mapstream.obj
 0001:0008fb50       ?GetJMemoryManager@@YAAAVJMemoryManager@@XZ 00490b50 f   j_mem.obj
 0001:0008fba0       ??0JMemoryManager@@QAE@XZ  00490ba0 f   j_mem.obj
 0001:0008fc20       ?Malloc@JMemoryManager@@QAEPADK@Z 00490c20 f   j_mem.obj
 0001:0008fc70       ?Free@JMemoryManager@@QAEXPAX@Z 00490c70 f   j_mem.obj
 0001:0008fca0       ?Realloc@JMemoryManager@@QAEPADPAXK@Z 00490ca0 f   j_mem.obj
 0001:0008fd30       ?Size@JMemoryManager@@QAEKPAX@Z 00490d30 f   j_mem.obj
 0001:0008fd60       ?Read@JMemStream@@UAEKPAXK@Z 00490d60 f   j_memstrm.obj
 0001:0008fda0       ?Write@JMemStream@@UAEKPBXK@Z 00490da0 f   j_memstrm.obj
 0001:0008fde0       ?Seek@JMemStream@@UAEHJH@Z 00490de0 f   j_memstrm.obj
 0001:0008fe40       ?Create@JMutex@@QAEHPBDH@Z 00490e40 f   j_mutex.obj
 0001:0008fe70       ?Release@JMutex@@QAEXXZ    00490e70 f   j_mutex.obj
 0001:0008fe90       ?Lock@JMutex@@UAE_NJ@Z     00490e90 f   j_mutex.obj
 0001:0008fed0       ?Unlock@JMutex@@UAEXXZ     00490ed0 f   j_mutex.obj
 0001:0008fee0       ?JGXCreateSurfaceObject@@YAPAVJSurfaceObject@@XZ 00490ee0 f   j_objman.obj
 0001:0008ff20       ?Clear@JSurfaceObject@@UAEHJJJJ@Z 00490f20 f i j_objman.obj
 0001:0008ff20       ?Proc8@SPVE_DesktopNotification@@UAGJPAUIVirtualDesktop@@HH@Z 00490f20 f i j_objman.obj
 0001:0008ff30       ?Load@JDIBSurface@@UAEHAAVJStream@@@Z 00490f30 f i j_objman.obj
 0001:0008ff50       ?Save@JDIBSurface@@UAEHAAVJStream@@K@Z 00490f50 f i j_objman.obj
 0001:0008ff80       ?Save@JDIBSurface@@UAEHPBDK@Z 00490f80 f i j_objman.obj
 0001:0008ffb0       ?SetFlag@JDIBSurface@@UAEXI@Z 00490fb0 f i j_objman.obj
 0001:0008ffe0       ?GetFlag@JDIBSurface@@UAEIXZ 00490fe0 f i j_objman.obj
 0001:0008fff0       ?Lock@JDIBSurface@@UAEPAEXZ 00490ff0 f i j_objman.obj
 0001:00090000       ?Pitch@JDIBSurface@@UAEJXZ 00491000 f i j_objman.obj
 0001:00090030       ?Pixel@JDIBSurface@@UAEJXZ 00491030 f i j_objman.obj
 0001:00090050       ?Width@JDIBSurface@@UAEJXZ 00491050 f i j_objman.obj
 0001:00090070       ?Height@JDIBSurface@@UAEJXZ 00491070 f i j_objman.obj
 0001:00090090       ?SetPalette@JDIBSurface@@UAEHAAVJPalette@@@Z 00491090 f i j_objman.obj
 0001:000900c0       ?GetPalette@JDIBSurface@@UAEHAAVJPalette@@@Z 004910c0 f i j_objman.obj
 0001:000900e0       ?GetPalette@JDIBSurface@@UAEPAUtagRGBQUAD@@XZ 004910e0 f i j_objman.obj
 0001:000900f0       ?IsCreated@JDIBSurface@@UAE_NXZ 004910f0 f i j_objman.obj
 0001:00090100       ?Handle@JDIBSurface@@UAEPAXXZ 00491100 f i j_objman.obj
 0001:00090110       ?HandleBitmap@JDIBSurface@@UAEPAXXZ 00491110 f i j_objman.obj
 0001:00090120       ?Bitmap@JDIBSurface@@UAEPAXXZ 00491120 f i j_objman.obj
 0001:00090130       ?BitmapBits@JDIBSurface@@UAEPAEXZ 00491130 f i j_objman.obj
 0001:00090140       ??_GJDIBSurface@@UAEPAXI@Z 00491140 f i j_objman.obj
 0001:00090140       ??_EJDIBSurface@@UAEPAXI@Z 00491140 f i j_objman.obj
 0001:00090170       ??1JDIBSurface@@UAE@XZ     00491170 f i j_objman.obj
 0001:000901c0       ??1JSurfaceObject@@UAE@XZ  004911c0 f i j_objman.obj
 0001:000901d0       ?InitInstance@JThreadLoop@@UAEHXZ 004911d0 f i j_objman.obj
 0001:000901d0       ?Unload@SPSaori@@UAEHXZ    004911d0 f i j_objman.obj
 0001:000901d0       ?Unlock@JStreamObject@@UAEHXZ 004911d0 f i j_objman.obj
 0001:000901d0       ?Lock@JStreamObject@@UAEHXZ 004911d0 f i j_objman.obj
 0001:000901d0       ?IsExecutable@SPLogManagerScript@@UAEHXZ 004911d0 f i j_objman.obj
 0001:000901d0       ?Pixel@JSurfaceObject@@UAEJXZ 004911d0 f i j_objman.obj
 0001:000901e0       ??_EJSurfaceObject@@UAEPAXI@Z 004911e0 f i j_objman.obj
 0001:000901e0       ??_GJSurfaceObject@@UAEPAXI@Z 004911e0 f i j_objman.obj
 0001:00090210       ?JGXCreateCompatibleSurface@@YAPAVJSurface@@PAV1@@Z 00491210 f   j_objman.obj
 0001:00090240       ?JGXCreateSurface@@YAPAVJSurface@@I_N@Z 00491240 f   j_objman.obj
 0001:00090380       ?Load@JSurface@@UAEHAAVJStream@@@Z 00491380 f i j_objman.obj
 0001:000903c0       ?Save@JSurface@@UAEHAAVJStream@@K@Z 004913c0 f i j_objman.obj
 0001:000903f0       ?Save@JSurface@@UAEHPBDK@Z 004913f0 f i j_objman.obj
 0001:00090420       ?GetRowTable@JSurface@@UAEPAPAEXZ 00491420 f i j_objman.obj
 0001:00090430       ?SetPixel@JSurface@@UAEXJJEEE@Z 00491430 f i j_objman.obj
 0001:00090460       ?GetPixel@JSurface@@UAEXJJAAE00@Z 00491460 f i j_objman.obj
 0001:00090490       ?GetPixelAlpha@JSurface@@UAEEJJ@Z 00491490 f i j_objman.obj
 0001:000904a0       ?IsExecutable@SPLogManagerStatus@@UAEHXZ 004914a0 f i j_objman.obj
 0001:000904a0       ?HandleBitmap@JSurfaceObject@@UAEPAXXZ 004914a0 f i j_objman.obj
 0001:000904a0       ?IsExecutable@SPLogManagerError@@UAEHXZ 004914a0 f i j_objman.obj
 0001:000904a0       ?ToElement@XMLNode@tinyxml2@@UAEPAVXMLElement@2@XZ 004914a0 f i j_objman.obj
 0001:000904a0       ?DetachStream@JMappedStream@@EAEPAVJStreamObject@@XZ 004914a0 f i j_objman.obj
 0001:000904a0       ?Pitch@JSurfaceObject@@UAEJXZ 004914a0 f i j_objman.obj
 0001:000904a0       ?ToText@XMLNode@tinyxml2@@UBEPBVXMLText@2@XZ 004914a0 f i j_objman.obj
 0001:000904a0       ?IsExecutable@SPLogManagerUpdate@@UAEHXZ 004914a0 f i j_objman.obj
 0001:000904a0       ?ToDeclaration@XMLNode@tinyxml2@@UBEPBVXMLDeclaration@2@XZ 004914a0 f i j_objman.obj
 0001:000904a0       ?ToDocument@XMLNode@tinyxml2@@UBEPBVXMLDocument@2@XZ 004914a0 f i j_objman.obj
 0001:000904a0       ?GetIconID@SPLogData@@UAEHXZ 004914a0 f i j_objman.obj
 0001:000904a0       ?ToDocument@XMLNode@tinyxml2@@UAEPAVXMLDocument@2@XZ 004914a0 f i j_objman.obj
 0001:000904a0       ?ToUnknown@XMLNode@tinyxml2@@UAEPAVXMLUnknown@2@XZ 004914a0 f i j_objman.obj
 0001:000904a0       ?GetPalette@JSurfaceObject@@UAEPAUtagRGBQUAD@@XZ 004914a0 f i j_objman.obj
 0001:000904a0       ?Handle@JSurfaceObject@@UAEPAXXZ 004914a0 f i j_objman.obj
 0001:000904a0       ?ToText@XMLNode@tinyxml2@@UAEPAVXMLText@2@XZ 004914a0 f i j_objman.obj
 0001:000904a0       ?IsExecutable@SPLogManagerNetwork@@UAEHXZ 004914a0 f i j_objman.obj
 0001:000904a0       ?ToDeclaration@XMLNode@tinyxml2@@UAEPAVXMLDeclaration@2@XZ 004914a0 f i j_objman.obj
 0001:000904a0       ?ToElement@XMLNode@tinyxml2@@UBEPBVXMLElement@2@XZ 004914a0 f i j_objman.obj
 0001:000904a0       ?Bitmap@JSurfaceObject@@UAEPAXXZ 004914a0 f i j_objman.obj
 0001:000904a0       ?ToComment@XMLNode@tinyxml2@@UAEPAVXMLComment@2@XZ 004914a0 f i j_objman.obj
 0001:000904a0       ?GetTrailerHeader@SPStreamFilter@@UAEPADXZ 004914a0 f i j_objman.obj
 0001:000904a0       ?BitmapBits@JSurfaceObject@@UAEPAEXZ 004914a0 f i j_objman.obj
 0001:000904a0       ?ToUnknown@XMLNode@tinyxml2@@UBEPBVXMLUnknown@2@XZ 004914a0 f i j_objman.obj
 0001:000904a0       ?AlphaPlaneGet@JSurface@@UAEPAEXZ 004914a0 f i j_objman.obj
 0001:000904a0       ?ToComment@XMLNode@tinyxml2@@UBEPBVXMLComment@2@XZ 004914a0 f i j_objman.obj
 0001:000904b0       ??1SPInstallEvent@@QAE@XZ  004914b0 f i j_objman.obj
 0001:000904b0       ?Flush@JMemStream@@UAEXXZ  004914b0 f i j_objman.obj
 0001:000904b0       ??1JExtent@@QAE@XZ         004914b0 f i j_objman.obj
 0001:000904b0       ??1SPCreateSurfaceResult@@QAE@XZ 004914b0 f i j_objman.obj
 0001:000904b0       ?ConvertPreMultipliedAlphaToNormal@JSurface@@UAEXXZ 004914b0 f i j_objman.obj
 0001:000904b0       ??1JLZWDecoder@@QAE@XZ     004914b0 f i j_objman.obj
 0001:000904b0       ?Unlock@JDummyLockSection@@UAEXXZ 004914b0 f i j_objman.obj
 0001:000904b0       ??1SPBalloonImage@@QAE@XZ  004914b0 f i j_objman.obj
 0001:000904b0       ??1CCharWndCodeManagerData@@QAE@XZ 004914b0 f i j_objman.obj
 0001:000904b0       ??1SPMonitorInfo@@QAE@XZ   004914b0 f i j_objman.obj
 0001:000904b0       ?Unlock@JSurfaceObject@@UAEXXZ 004914b0 f i j_objman.obj
 0001:000904b0       ?Activated@SPCmdNotifier@@UAEXXZ 004914b0 f i j_objman.obj
 0001:000904b0       ??1CNoTrackObject@@UAE@XZ  004914b0 f i j_objman.obj
 0001:000904b0       ?Eof@JMemStream@@UAEXXZ    004914b0 f i j_objman.obj
 0001:000904b0       ??1JRect@@QAE@XZ           004914b0 f i j_objman.obj
 0001:000904b0       ?AlphaPlaneInvert@JSurface@@UAEXXZ 004914b0 f i j_objman.obj
 0001:000904b0       ?Unlock@JThread@@UAEXXZ    004914b0 f i j_objman.obj
 0001:000904b0       ??1JDummyLock@@QAE@XZ      004914b0 f i j_objman.obj
 0001:000904b0       ??1CObject@@UAE@XZ         004914b0 f i j_objman.obj
 0001:000904b0       ??1SPGhostBoolResult@@QAE@XZ 004914b0 f i j_objman.obj
 0001:000904b0       ?Update@JSurfaceObject@@UAEXXZ 004914b0 f i j_objman.obj
 0001:000904b0       ??1SPVE_HStringReference@@QAE@XZ 004914b0 f i j_objman.obj
 0001:000904b0       ?Deactivated@SPCmdNotifier@@UAEXXZ 004914b0 f i j_objman.obj
 0001:000904b0       ?dummy@?4??SafeGet@?$JArray@VCExplorerDialogData@@@@QAEAAVCExplorerDialogData@@K@Z@$AV2@A 004914b0 f i j_objman.obj
 0001:000904b0       ??1JPalette@@QAE@XZ        004914b0 f i j_objman.obj
 0001:000904b0       ??1CMouseHitMap@@QAE@XZ    004914b0 f i j_objman.obj
 0001:000904c0       ?SetModuleName@JDynLoadStub@@UAEXPBD@Z 004914c0 f i j_objman.obj
 0001:000904c0       ?AttachStream@JMappedStream@@EAEXPAVJStreamObject@@@Z 004914c0 f i j_objman.obj
 0001:000904c0       ?ReceiveNotification@CGhostATSoundImpl@@UAEXPAUHWND__@@@Z 004914c0 f i j_objman.obj
 0001:000904c0       ?Serialize@CObject@@UAEXAAVCArchive@@@Z 004914c0 f i j_objman.obj
 0001:000904c0       ?ModifyTemplate@CDialogCustom@@UAEXPAVSPDlgTemplate@@@Z 004914c0 f i j_objman.obj
 0001:000904c0       ?ShowWindow@CGhostATSoundImpl@@UAEX_N@Z 004914c0 f i j_objman.obj
 0001:000904c0       ?Load@JDynLoadStub@@UAEXPBD@Z 004914c0 f i j_objman.obj
 0001:000904c0       ?ExitInstance@JThreadLoop@@UAEXH@Z 004914c0 f i j_objman.obj
 0001:000904c0       ?DoDataExchange@CWnd@@MAEXPAVCDataExchange@@@Z 004914c0 f i j_objman.obj
 0001:000904c0       ?AlphaPlaneFill@JSurface@@UAEXE@Z 004914c0 f i j_objman.obj
 0001:000904d0       ?AlphaPlaneSet@JSurface@@UAEXPBEE_N@Z 004914d0 f i j_objman.obj
 0001:000904d0       ?SetPixelIndex@JSurface@@UAEXJJK@Z 004914d0 f i j_objman.obj
 0001:000904d0       ?SetPixelAlpha@JSurface@@UAEXJJE@Z 004914d0 f i j_objman.obj
 0001:000904e0       ?GetPixelIndex@JSurface@@UAEKJJ@Z 004914e0 f i j_objman.obj
 0001:000904e0       ?Logoff@SPSensLogon@@UAGJPAG@Z 004914e0 f i j_objman.obj
 0001:000904e0       ?Save@JSurfaceObject@@UAEHAAVJStream@@K@Z 004914e0 f i j_objman.obj
 0001:000904e0       ?Logon@SPSensLogon@@UAGJPAG@Z 004914e0 f i j_objman.obj
 0001:000904e0       ?Write@JMappedStream@@EAEKPBXK@Z 004914e0 f i j_objman.obj
 0001:000904e0       ?StartShell@SPSensLogon@@UAGJPAG@Z 004914e0 f i j_objman.obj
 0001:000904e0       ?Compare@JList@@UAEHPAV1@H@Z 004914e0 f i j_objman.obj
 0001:000904e0       ?Proc7@SPVE_DesktopNotification@@UAGJH@Z 004914e0 f i j_objman.obj
 0001:000904e0       ?GetIntensity@JSurface@@UAEJJJ@Z 004914e0 f i j_objman.obj
 0001:000904e0       ?Save@JSurfaceObject@@UAEHPBDK@Z 004914e0 f i j_objman.obj
 0001:000904f0       ?SetPalette@JSurface@@UAEHAAVJPalette@@@Z 004914f0 f i j_objman.obj
 0001:00090510       ?GetPalette@JSurface@@UAEHAAVJPalette@@@Z 00491510 f i j_objman.obj
 0001:00090530       ?Unlock@JSurface@@UAEXXZ   00491530 f i j_objman.obj
 0001:00090540       ?GetAddress@JSurface@@UAEPAEJJ@Z 00491540 f i j_objman.obj
 0001:00090540       ?Lock@JSurface@@UAEPAEJJ@Z 00491540 f i j_objman.obj
 0001:00090560       ?AlphaFill@JSurface@@UAEHJJJJE@Z 00491560 f i j_objman.obj
 0001:00090560       ?ColorFill@JSurface@@UAEHJJJJK@Z 00491560 f i j_objman.obj
 0001:00090560       ?ColorFill@JSurfaceObject@@UAEHJJJJK@Z 00491560 f i j_objman.obj
 0001:00090570       ?CopyXOR@JSurface@@UAEHJJJJPAV1@JJ@Z 00491570 f i j_objman.obj
 0001:00090570       ?CopyNOR@JSurface@@UAEHJJJJPAV1@JJ@Z 00491570 f i j_objman.obj
 0001:00090570       ?CopyAND@JSurface@@UAEHJJJJPAV1@JJ@Z 00491570 f i j_objman.obj
 0001:00090570       ?CopyAlpha@JSurfaceObject@@UAEHJJJJPAV1@JJ@Z 00491570 f i j_objman.obj
 0001:00090570       ?CopyFrom@JSurface@@UAEHJJJJPAV1@JJ@Z 00491570 f i j_objman.obj
 0001:00090570       ?BlendFill@JSurface@@UAEHJJJJKPAV1@E@Z 00491570 f i j_objman.obj
 0001:00090570       ?CopyAlpha@JSurface@@UAEHJJJJPAV1@JJ@Z 00491570 f i j_objman.obj
 0001:00090570       ?CopyNAND@JSurface@@UAEHJJJJPAV1@JJ@Z 00491570 f i j_objman.obj
 0001:00090570       ?Copy@JSurfaceObject@@UAEHJJJJPAV1@JJ@Z 00491570 f i j_objman.obj
 0001:00090570       ?CopyOR@JSurface@@UAEHJJJJPAV1@JJ@Z 00491570 f i j_objman.obj
 0001:00090570       ?CopyKey@JSurface@@UAEHJJJJPAV1@JJ@Z 00491570 f i j_objman.obj
 0001:00090570       ?CopyNOT@JSurface@@UAEHJJJJPAV1@JJ@Z 00491570 f i j_objman.obj
 0001:00090580       ?ColorFillAlpha@JSurface@@UAEHJJJJKE@Z 00491580 f i j_objman.obj
 0001:00090580       ?ColorFillAlpha@JSurfaceObject@@UAEHJJJJKE@Z 00491580 f i j_objman.obj
 0001:00090590       ?StretchCopy@JSurface@@UAEHJJJJPAV1@JJJJ@Z 00491590 f i j_objman.obj
 0001:000905a0       ?ZoomCopy@JSurface@@UAEHJJJJPAV1@JJJJJJ@Z 004915a0 f i j_objman.obj
 0001:000905a0       ?StretchCopyEx@JSurface@@UAEHJJJJPAV1@JJJJPAJ1@Z 004915a0 f i j_objman.obj
 0001:000905b0       ?BlendDissolve@JSurface@@UAEHJJJJPAV1@JJ0@Z 004915b0 f i j_objman.obj
 0001:000905b0       ?BlendDarken@JSurface@@UAEHJJJJPAV1@JJ0@Z 004915b0 f i j_objman.obj
 0001:000905b0       ?BlendColor@JSurface@@UAEHJJJJPAV1@JJ0@Z 004915b0 f i j_objman.obj
 0001:000905b0       ?BlendNormal@JSurface@@UAEHJJJJPAV1@JJ0@Z 004915b0 f i j_objman.obj
 0001:000905b0       ?BlendDifference@JSurface@@UAEHJJJJPAV1@JJ0@Z 004915b0 f i j_objman.obj
 0001:000905b0       ?BlendHue@JSurface@@UAEHJJJJPAV1@JJ0@Z 004915b0 f i j_objman.obj
 0001:000905b0       ?BlendLuminosity@JSurface@@UAEHJJJJPAV1@JJ0@Z 004915b0 f i j_objman.obj
 0001:000905b0       ?BlendMultiply@JSurface@@UAEHJJJJPAV1@JJ0@Z 004915b0 f i j_objman.obj
 0001:000905b0       ?BlendSoftLight@JSurface@@UAEHJJJJPAV1@JJ0@Z 004915b0 f i j_objman.obj
 0001:000905b0       ?BlendScreen@JSurface@@UAEHJJJJPAV1@JJ0@Z 004915b0 f i j_objman.obj
 0001:000905b0       ?BlendLighten@JSurface@@UAEHJJJJPAV1@JJ0@Z 004915b0 f i j_objman.obj
 0001:000905b0       ?BlendOverlay@JSurface@@UAEHJJJJPAV1@JJ0@Z 004915b0 f i j_objman.obj
 0001:000905b0       ?BlendSaturation@JSurface@@UAEHJJJJPAV1@JJ0@Z 004915b0 f i j_objman.obj
 0001:000905b0       ?BlendHardLight@JSurface@@UAEHJJJJPAV1@JJ0@Z 004915b0 f i j_objman.obj
 0001:000905b0       ?BlendSubtract@JSurface@@UAEHJJJJPAV1@JJ0@Z 004915b0 f i j_objman.obj
 0001:000905c0       ??_EJSurface@@UAEPAXI@Z    004915c0 f i j_objman.obj
 0001:000905c0       ??_GJSurface@@UAEPAXI@Z    004915c0 f i j_objman.obj
 0001:000905f0       ??1JSurface@@UAE@XZ        004915f0 f i j_objman.obj
 0001:00090640       ?SetPixelIndex@JSurface8@@UAEXJJK@Z 00491640 f i j_objman.obj
 0001:00090660       ?GetPixelIndex@JSurface8@@UAEKJJ@Z 00491660 f i j_objman.obj
 0001:00090680       ??_GJSurface8@@UAEPAXI@Z   00491680 f i j_objman.obj
 0001:00090680       ??_EJSurface8@@UAEPAXI@Z   00491680 f i j_objman.obj
 0001:000906b0       ??1JSurface8@@UAE@XZ       004916b0 f i j_objman.obj
 0001:00090700       ?Release@JSurface32@@UAEXXZ 00491700 f i j_objman.obj
 0001:00090730       ?GetIntensity@JSurface32@@UAEJJJ@Z 00491730 f i j_objman.obj
 0001:00090770       ?SetPixelAlpha@JSurface32@@UAEXJJE@Z 00491770 f i j_objman.obj
 0001:00090790       ?GetPixelAlpha@JSurface32@@UAEEJJ@Z 00491790 f i j_objman.obj
 0001:000907b0       ?SetPixelIndex@JSurface32@@UAEXJJK@Z 004917b0 f i j_objman.obj
 0001:00090830       ??_GJSurface32@@UAEPAXI@Z  00491830 f i j_objman.obj
 0001:00090830       ??_EJSurface32@@UAEPAXI@Z  00491830 f i j_objman.obj
 0001:00090860       ??1JSurface32@@UAE@XZ      00491860 f i j_objman.obj
 0001:000908e0       ?JGXCreateThread@@YAPAVJThread@@XZ 004918e0 f   j_objman.obj
 0001:00090940       ?SetGrayscalePalette@JPalette@@QAEXXZ 00491940 f   j_pal.obj
 0001:00090960       ?Find@JPalette@@QAEHUtagRGBQUAD@@@Z 00491960 f   j_pal.obj
 0001:00090990       ?SetDefaultPalette@JPalette@@QAEXXZ 00491990 f   j_pal.obj
 0001:00090a30       ?Copy@JPalette@@QAEXPAUtagRGBQUAD@@HHH@Z 00491a30 f   j_pal.obj
 0001:00090a90       ?Clear@JPalette@@QAEXK@Z   00491a90 f   j_pal.obj
 0001:00090ad0       ?Set@JPackedPalette@@QAEXAAVJPalette@@@Z 00491ad0 f   j_pal.obj
 0001:00090b10       ?Set@JPackedPalette@@QAEXAAV1@@Z 00491b10 f   j_pal.obj
 0001:00090b30       ?Find@JPackedPalette@@QAEHK@Z 00491b30 f   j_pal.obj
 0001:00090b60       ?Distance@JPoint@@QAENABUtagPOINT@@KK@Z 00491b60 f   j_point.obj
 0001:00090bb0       ?Degree@JPoint@@QAENABUtagPOINT@@@Z 00491bb0 f   j_point.obj
 0001:00090c50       ?DegreeToDirection8@JPoint@@SA?AW4JPointDirection@@N@Z 00491c50 f   j_point.obj
 0001:00090d50       ?PointToTextW@JPoint@@QBEPBGXZ 00491d50 f   j_point.obj
 0001:00090e40       _tinymt32_init_by_array    00491e40 f   j_prng.obj
 0001:000910a0       _genrand_ulong             004920a0 f   j_prng.obj
 0001:00091270       _genrand_nativeint         00492270 f   j_prng.obj
 0001:00091320       _genrand                   00492320 f   j_prng.obj
 0001:00091340       ??4JExtent@@QAEAAV0@ABVJRect@@@Z 00492340 f   j_rect.obj
 0001:00091370       ?IsIntersect@JRect@@QBE_NABUtagRECT@@@Z 00492370 f   j_rect.obj
 0001:000913b0       ?ExpandToIntersect@JRect@@QAEXABUtagRECT@@@Z 004923b0 f   j_rect.obj
 0001:000913f0       ?IsInRect@JRect@@QBE_NABUtagRECT@@@Z 004923f0 f   j_rect.obj
 0001:00091430       ?LimitRect@JRect@@QAEXJJ@Z 00492430 f   j_rect.obj
 0001:00091470       ?MultiplyRectH@JRect@@QAEXN@Z 00492470 f   j_rect.obj
 0001:000914c0       ?MultiplyRectV@JRect@@QAEXN@Z 004924c0 f   j_rect.obj
 0001:00091510       ?TextToRect@JRect@@QAE_NPBG@Z 00492510 f   j_rect.obj
 0001:000915f0       ?RectToTextA@JRect@@QBEPBDXZ 004925f0 f   j_rect.obj
 0001:00091620       ?RectToTextW@JRect@@QBEPBGXZ 00492620 f   j_rect.obj
 0001:00091650       ?Center@JRect@@QBE?AVJPoint@@XZ 00492650 f   j_rect.obj
 0001:00091680       ?Distance@JRect@@QBENABV1@KKPAW4JPointDirection@@@Z 00492680 f   j_rect.obj
 0001:00091820       ?Distance@JRect@@QBENABUtagPOINT@@KK@Z 00492820 f   j_rect.obj
 0001:00091910       ?IsEmpty@JRect@@QBE_NXZ    00492910 f   j_rect.obj
 0001:00091930       ??_4JRect@@QAEAAV0@ABUtagRECT@@@Z 00492930 f   j_rect.obj
 0001:000919c0       ??4JRect@@QAEAAV0@ABVJExtent@@@Z 004929c0 f   j_rect.obj
 0001:000919c0       ??0JRect@@QAE@ABVJExtent@@@Z 004929c0 f   j_rect.obj
 0001:00091ab0       ?Init@JSocketManager@@QAE_N_N0@Z 00492ab0 f   j_sock.obj
 0001:00091b00       ?InitSSL@JSocketManager@@AAEX_N@Z 00492b00 f   j_sock.obj
 0001:000928a0       ?InitSSLCTX@JSocketManager@@AAEXPAUssl_ctx_st@@@Z 004938a0 f   j_sock.obj
 0001:00092920       ?CreateSSL@JSocketManager@@QAEPAUssl_st@@PAVJSocket@@_N1PAU2@PBD@Z 00493920 f   j_sock.obj
 0001:000929f0       ?SessionNewCallback@JSocketManager@@AAEHPAUssl_st@@PAUssl_session_st@@@Z 004939f0 f   j_sock.obj
 0001:00092c30       ??1JSocketManagerSessionCache@@QAE@XZ 00493c30 f i j_sock.obj
 0001:00092c90       ?SessionRemoveCallback@JSocketManager@@AAEXPAUssl_ctx_st@@PAUssl_session_st@@@Z 00493c90 f   j_sock.obj
 0001:00092dd0       ?SessionGet@JSocketManager@@AAE_NPAUssl_st@@PBD@Z 00493dd0 f   j_sock.obj
 0001:00092f60       ?InvalidateCache@JSocketManager@@QAEXXZ 00493f60 f   j_sock.obj
 0001:000930a0       ?SessionFindIndex@JSocketManager@@AAEJPBD@Z 004940a0 f   j_sock.obj
 0001:000930f0       ??1JSocketManager@@QAE@XZ  004940f0 f   j_sock.obj
 0001:00093280       ?JSocket_SSL_Thread_Destroy@@YAXXZ 00494280 f   j_sock.obj
 0001:00093290       ?IsSSLforSSPSite@JSocket@@SA_NXZ 00494290 f   j_sock.obj
 0001:000932b0       ?Startup@JSocket@@SAH_N0@Z 004942b0 f   j_sock.obj
 0001:000933d0       ?Cleanup@JSocket@@SAXXZ    004943d0 f   j_sock.obj
 0001:00093400       ?Periodic@JSocket@@SAXXZ   00494400 f   j_sock.obj
 0001:00093410       ?GetWSAData@JSocket@@SAPBUWSAData@@XZ 00494410 f   j_sock.obj
 0001:00093420       ?SetOption@JSocket@@AAEXXZ 00494420 f   j_sock.obj
 0001:00093470       ?SetProxyMode@JSocket@@SAXW4JSocketProxyOption@@PBDH11@Z 00494470 f   j_sock.obj
 0001:000936e0       ??0JSocket@@QAE@XZ         004946e0 f   j_sock.obj
 0001:000938a0       ?Release@JSocket@@QAEXXZ   004948a0 f   j_sock.obj
 0001:000938e0       ?AddSSLErrorLog@JSocket@@AAEX_N@Z 004948e0 f   j_sock.obj
 0001:000939b0       ?recv_wrapper@JSocket@@AAEHPADHHPAUssl_st@@_N@Z 004949b0 f   j_sock.obj
 0001:00093b10       ??1JSocketSSLAddRef@@QAE@XZ 00494b10 f i j_sock.obj
 0001:00093b20       ?send_wrapper@JSocket@@AAEHPBDHHPAUssl_st@@_N@Z 00494b20 f   j_sock.obj
 0001:00093cc0       ?Connect@JSocket@@QAEHPBDH@Z 00494cc0 f   j_sock.obj
 0001:00093d90       ?Connect@JSocket@@QAEHABVJSockAddr@@H@Z 00494d90 f   j_sock.obj
 0001:00093eb0       ?ConnectReal@JSocket@@AAEHABVJSockAddr@@H@Z 00494eb0 f   j_sock.obj
 0001:000946c0       ?ConnectUDP@JSocket@@QAEHABVJSockAddr@@H@Z 004956c0 f   j_sock.obj
 0001:00094770       ?SetSSLMode@JSocket@@QAE_NHPBD_N1@Z 00495770 f   j_sock.obj
 0001:000947e0       ?SetUpperSSLMode@JSocket@@QAE_NPBD_N1@Z 004957e0 f   j_sock.obj
 0001:00094820       ?SetSSLSessionResumption@JSocket@@QAEX_N@Z 00495820 f   j_sock.obj
 0001:00094830       ?SetSSLSecureMode@JSocket@@QAEX_N@Z 00495830 f   j_sock.obj
 0001:00094840       ?SetSSLEarlyData@JSocket@@QAEX_N@Z 00495840 f   j_sock.obj
 0001:00094880       ?Status@JSocket@@QAEHXZ    00495880 f   j_sock.obj
 0001:000948a0       ?Break@JSocket@@QAEXXZ     004958a0 f   j_sock.obj
 0001:000948c0       ?ListenUDP@JSocket@@QAEHHHABVJSockAddr@@@Z 004958c0 f   j_sock.obj
 0001:000949a0       ?AllowBroadcast@JSocket@@QAEXXZ 004959a0 f   j_sock.obj
 0001:000949d0       ?Listen@JSocket@@QAEHHHABVJSockAddr@@@Z 004959d0 f   j_sock.obj
 0001:00094af0       ?Accept@JSocket@@QAEPAV1@XZ 00495af0 f   j_sock.obj
 0001:00094b10       ?AcceptFromSocket@JSocket@@SAPAV1@I_N0@Z 00495b10 f   j_sock.obj
 0001:00094c20       ?Close@JSocket@@QAEXW4JSocketCloseOption@@@Z 00495c20 f   j_sock.obj
 0001:00094e00       ?SendString@JSocket@@QAEHPBD@Z 00495e00 f   j_sock.obj
 0001:00094e30       ?Send@JSocket@@QAEHPBDJ@Z  00495e30 f   j_sock.obj
 0001:00094ea0       ?SendTo@JSocket@@QAEHVJSockAddr@@HPBDJ@Z 00495ea0 f   j_sock.obj
 0001:00094fd0       ?RecvFrom@JSocket@@QAEHPADJAAVJSockAddr@@AAH@Z 00495fd0 f   j_sock.obj
 0001:00095030       ?JunkRecvData@JSocket@@AAEXPAUssl_st@@@Z 00496030 f   j_sock.obj
 0001:000950d0       ?Recv@JSocket@@QAEHPADJ@Z  004960d0 f   j_sock.obj
 0001:00095200       ?RecvLineSub@JSocket@@AAEHAAD@Z 00496200 f   j_sock.obj
 0001:00095380       ?RecvLine@JSocket@@QAEPADAAJ@Z 00496380 f   j_sock.obj
 0001:00095610       ?AddLog@JSocket@@QAEXPBDJ@Z 00496610 f   j_sock.obj
 0001:00095670       ?AddNetworkLog@JSocket@@QAEXPBG_N@Z 00496670 f   j_sock.obj
 0001:000957a0       ?WaitForDataIO@JSocket@@AAEHH@Z 004967a0 f   j_sock.obj
 0001:00095920       ?AsyncSelect@JSocket@@QAEHPAXIJ@Z 00496920 f   j_sock.obj
 0001:00095970       ?SSLRelease@JSocket@@AAEXXZ 00496970 f   j_sock.obj
 0001:000959c0       ??1JSocketSSLInfo@@QAE@XZ  004969c0 f i j_sock.obj
 0001:00095a90       ?SetALPN@JSocket@@QAEXPBD000@Z 00496a90 f   j_sock.obj
 0001:00095d50       ?ProcessX509Info@JSocket@@AAEXPAUssl_st@@_N@Z 00496d50 f   j_sock.obj
 0001:00096480       ?SSLInit@JSocket@@AAE_NPBD_N1@Z 00497480 f   j_sock.obj
 0001:00096650       ?SSLProcessAfterConnect@JSocket@@AAEXPAUssl_st@@H_N@Z 00497650 f   j_sock.obj
 0001:00096b10       ?Add@?$JArray@D@@QAEXPBDJ@Z 00497b10 f i j_sock.obj
 0001:00096c40       ?GetTypeName@JSockAddr@@SAPBDW4tagJSockAddrProtocolType@@@Z 00497c40 f   j_sockaddr.obj
 0001:00096c70       ?GetConfigDispName@JSockAddr@@SAPAPBDAAK@Z 00497c70 f   j_sockaddr.obj
 0001:00096c90       ?GetConfig@JSockAddr@@SAKXZ 00497c90 f   j_sockaddr.obj
 0001:00096ca0       ?GetConfigName@JSockAddr@@SAPBDK@Z 00497ca0 f   j_sockaddr.obj
 0001:00096cc0       ?SetConfig@JSockAddr@@SAKPBD@Z 00497cc0 f   j_sockaddr.obj
 0001:00096d10       ?IsEnable@JSockAddr@@SA_NW4tagJSockAddrProtocolType@@@Z 00497d10 f   j_sockaddr.obj
 0001:00096d90       ?SetAddr@JSockAddr@@QAEXW4JSockAddrPredefinedIP@@W4tagJSockAddrProtocolType@@@Z 00497d90 f   j_sockaddr.obj
 0001:00096fe0       ?IsLoopbackOrIgnoreAddr@JSockAddr@@QBE_NXZ 00497fe0 f   j_sockaddr.obj
 0001:00097110       ?IsLowPriorityAddr@JSockAddr@@QBE_NXZ 00498110 f   j_sockaddr.obj
 0001:00097150       ?GetAddressFamily@JSockAddr@@QBEHXZ 00498150 f   j_sockaddr.obj
 0001:00097170       ?IsIPv6@JSockAddr@@QBE_NXZ 00498170 f   j_sockaddr.obj
 0001:00097180       ?IsIPv4@JSockAddr@@QBE_NXZ 00498180 f   j_sockaddr.obj
 0001:00097190       ?IsIP@JSockAddr@@QBE_NXZ   00498190 f   j_sockaddr.obj
 0001:000971c0       ?ToIPv4@JSockAddr@@QBEXAAK@Z 004981c0 f   j_sockaddr.obj
 0001:000971f0       ?ToIPv4Raw@JSockAddr@@QBEXAAK@Z 004981f0 f   j_sockaddr.obj
 0001:00097220       ?FromIPv4@JSockAddr@@QAEXK@Z 00498220 f   j_sockaddr.obj
 0001:00097250       ?FromIPv4Raw@JSockAddr@@QAEXK@Z 00498250 f   j_sockaddr.obj
 0001:00097270       ?ToIPv6@JSockAddr@@QBEXPAG@Z 00498270 f   j_sockaddr.obj
 0001:000972d0       ?FromIPv6@JSockAddr@@QAEXPBG@Z 004982d0 f   j_sockaddr.obj
 0001:00097300       ?ConvToIPv4@JSockAddr@@QAE_NXZ 00498300 f   j_sockaddr.obj
 0001:00097350       ?ConvToIPv6@JSockAddr@@QAE_NXZ 00498350 f   j_sockaddr.obj
 0001:00097390       ?PrepareListen@JSockAddr@@SAXAAUsockaddr_storage@@@Z 00498390 f   j_sockaddr.obj
 0001:000974a0       ?AfterClose@JSockAddr@@SAXAAUsockaddr_storage@@@Z 004984a0 f   j_sockaddr.obj
 0001:000975b0       ?FromStorage@JSockAddr@@QAE_NPAUsockaddr@@AAH@Z 004985b0 f   j_sockaddr.obj
 0001:000976b0       ?ToStorage@JSockAddr@@QBE_NAAUsockaddr_storage@@HAAK@Z 004986b0 f   j_sockaddr.obj
 0001:00097800       ??8JSockAddr@@QBE_NABV0@@Z 00498800 f   j_sockaddr.obj
 0001:00097870       ??4JSockAddr@@QAEAAV0@ABV0@@Z 00498870 f   j_sockaddr.obj
 0001:000978a0       ?IPAddrToStrA@JSockAddr@@QBEPAD_N@Z 004988a0 f   j_sockaddr.obj
 0001:00097ab0       _WspiapiLoad@4             00498ab0 f i j_sockaddr.obj
 0001:00097c80       _WspiapiLegacyFreeAddrInfo@4 00498c80 f i j_sockaddr.obj
 0001:00097cd0       _WspiapiLegacyGetAddrInfo@16 00498cd0 f i j_sockaddr.obj
 0001:000982a0       _WspiapiStrdup@4           004992a0 f i j_sockaddr.obj
 0001:00098300       _WspiapiNewAddrInfo@16     00499300 f i j_sockaddr.obj
 0001:00098380       _WspiapiLegacyGetNameInfo@28 00499380 f i j_sockaddr.obj
 0001:000985a0       ?IPAddrToStrW@JSockAddr@@QBEPAG_N@Z 004995a0 f   j_sockaddr.obj
 0001:000986f0       ?GetAddrInfo@JSockAddr@@AAE_NPBDHHPAV1@@Z 004996f0 f   j_sockaddr.obj
 0001:00098d90       ?TranslateNumName@JSockAddr@@QAE_NPBD@Z 00499d90 f   j_sockaddr.obj
 0001:00098db0       ?ResolveName@JSockAddr@@QAE_NPBDPAV1@@Z 00499db0 f   j_sockaddr.obj
 0001:00098ee0       ?First@JSockAddrLocal@@QAEABVJSockAddr@@XZ 00499ee0 f   j_sockaddr.obj
 0001:00098f00       ?FirstIPv4@JSockAddrLocal@@QAEABVJSockAddr@@XZ 00499f00 f   j_sockaddr.obj
 0001:00098f70       ?FirstIPv6@JSockAddrLocal@@QAEABVJSockAddr@@XZ 00499f70 f   j_sockaddr.obj
 0001:00098fe0       ?IsOnline@JSockAddrLocal@@QAE_NXZ 00499fe0 f   j_sockaddr.obj
 0001:00099020       ?GetLocalAddrList@JSockAddrLocal@@QAEPBVJSockAddr@@AAK@Z 0049a020 f   j_sockaddr.obj
 0001:00099050       ?GetLocalAddrText@JSockAddrLocal@@QAEXAAVJWString@@@Z 0049a050 f   j_sockaddr.obj
 0001:00099150       ?GetHostName@JSockAddrLocal@@QAEPBDXZ 0049a150 f   j_sockaddr.obj
 0001:00099170       ?FindLocalAddr@JSockAddrLocal@@QAE_NABVJSockAddr@@@Z 0049a170 f   j_sockaddr.obj
 0001:000991a0       ?FindLocalAddrInternal@JSockAddrLocal@@AAE_NABVJSockAddr@@@Z 0049a1a0 f   j_sockaddr.obj
 0001:000991f0       ?LocalAddrGet@JSockAddrLocal@@QAEXI@Z 0049a1f0 f   j_sockaddr.obj
 0001:00099390       ?EnumLocalAddr@JSockAddrLocal@@QAEXXZ 0049a390 f   j_sockaddr.obj
 0001:00099460       ?IsLocalAddr@JSockAddr@@QBE_NXZ 0049a460 f   j_sockaddr.obj
 0001:000994c0       ??0JSockAddrLocal@@QAE@XZ  0049a4c0 f i j_sockaddr.obj
 0001:00099570       ?GetLocalAddr@JSockAddr@@SAABV1@XZ 0049a570 f   j_sockaddr.obj
 0001:00099580       ?GetLocalAddrIPv4@JSockAddr@@SAABV1@XZ 0049a580 f   j_sockaddr.obj
 0001:00099590       ?GetLocalAddrIPv6@JSockAddr@@SAABV1@XZ 0049a590 f   j_sockaddr.obj
 0001:000995a0       ?GetLocalAddrList@JSockAddr@@SAPBV1@AAK@Z 0049a5a0 f   j_sockaddr.obj
 0001:000995c0       ?GetLocalAddrText@JSockAddr@@SAXAAVJWString@@@Z 0049a5c0 f   j_sockaddr.obj
 0001:000995e0       ?GetHostName@JSockAddr@@SAPBDXZ 0049a5e0 f   j_sockaddr.obj
 0001:000995f0       ?IsOnline@JSockAddr@@SA_NXZ 0049a5f0 f   j_sockaddr.obj
 0001:00099600       ??0JTokenStream@@QAE@XZ    0049a600 f   j_stoken.obj
 0001:00099630       ??1JTokenStream@@QAE@XZ    0049a630 f   j_stoken.obj
 0001:00099640       ?ReadEOL@JTokenStream@@IAEIAAPAD@Z 0049a640 f   j_stoken.obj
 0001:000996e0       ?SetSeparator@JTokenStream@@QAEXD@Z 0049a6e0 f   j_stoken.obj
 0001:00099700       ?OpenInternal@JTokenStream@@AAEHPBGPBD@Z 0049a700 f   j_stoken.obj
 0001:00099840       ?Open@JTokenStream@@QAEHPBG@Z 0049a840 f   j_stoken.obj
 0001:00099860       ?Open@JTokenStream@@QAEHKPAD@Z 0049a860 f   j_stoken.obj
 0001:000998b0       ?Init@JTokenStream@@IAEXPAX@Z 0049a8b0 f   j_stoken.obj
 0001:00099970       ?Close@JTokenStream@@QAEXXZ 0049a970 f   j_stoken.obj
 0001:000999a0       ?ReadToFileEnd@JTokenStream@@QAEPADXZ 0049a9a0 f   j_stoken.obj
 0001:000999b0       ?ReadToken@JTokenStream@@IAEPADH@Z 0049a9b0 f   j_stoken.obj
 0001:000999f0       ?NextToken@JTokenStream@@IAEHH@Z 0049a9f0 f   j_stoken.obj
 0001:00099b30       ?IsNextLineExist@JTokenStream@@QAE_NXZ 0049ab30 f   j_stoken.obj
 0001:00099b50       ?NextLineIfNotLineEnd@JTokenStream@@QAEHXZ 0049ab50 f   j_stoken.obj
 0001:00099b70       ?ProcessReturnPointer@JTokenStream@@IAEPADPAD@Z 0049ab70 f   j_stoken.obj
 0001:00099be0       ??1JString@@QAE@XZ         0049abe0 f   j_str.obj
 0001:00099be0       ??1JWString@@QAE@XZ        0049abe0 f   j_str.obj
 0001:00099c10       ??4JString@@QAEAAV0@PBD@Z  0049ac10 f   j_str.obj
 0001:00099cf0       ??4JString@@QAEAAV0@ABV0@@Z 0049acf0 f   j_str.obj
 0001:00099e30       ?Cat@JString@@QAEXPBDK@Z   0049ae30 f   j_str.obj
 0001:00099ee0       ??9JString@@QBE_NPBD@Z     0049aee0 f   j_str.obj
 0001:00099f00       ?Remove@JString@@QAE_NPBD@Z 0049af00 f   j_str.obj
 0001:0009a000       ?Remove@JString@@QAE_NJJ@Z 0049b000 f   j_str.obj
 0001:0009a0a0       ?RemoveLast@JString@@QAEXJ@Z 0049b0a0 f   j_str.obj
 0001:0009a180       ?Replace@JString@@QAEHPBD0@Z 0049b180 f   j_str.obj
 0001:0009a390       ?Replace@JString@@QAEHDD@Z 0049b390 f   j_str.obj
 0001:0009a3d0       ?ReplaceCharList@JString@@QAEHPBDD@Z 0049b3d0 f   j_str.obj
 0001:0009a420       ?FindList@JString@@QBEJPBDJKPAJ@Z 0049b420 f   j_str.obj
 0001:0009a490       ?Insert@JString@@QAEHKPBD@Z 0049b490 f   j_str.obj
 0001:0009a610       ?ConvEUCKRtoISOKR@JString@@QAEHXZ 0049b610 f   j_str.obj
 0001:0009a900       ?ConvHZtoGB2312@JString@@QAEHXZ 0049b900 f   j_str.obj
 0001:0009a9b0       ?ConvGB2312toHZ@JString@@QAEHXZ 0049b9b0 f   j_str.obj
 0001:0009ac50       ?ConvEUCtoSJIS@JString@@QAEHXZ 0049bc50 f   j_str.obj
 0001:0009ad90       ?ConvSJIStoEUC@JString@@QAEHXZ 0049bd90 f   j_str.obj
 0001:0009b090       ?ConvISOtoWindows@JString@@AAEHXZ 0049c090 f   j_str.obj
 0001:0009b1f0       ?ConvSJIStoJIS@JString@@QAEHXZ 0049c1f0 f   j_str.obj
 0001:0009b590       ??0JString@@QAE@ABVJWString@@@Z 0049c590 f   j_str.obj
 0001:0009b5e0       ??0JString@@QAE@ABVJWString@@H@Z 0049c5e0 f   j_str.obj
 0001:0009b630       ??0JString@@QAE@PBGH@Z     0049c630 f   j_str.obj
 0001:0009b690       ??0JString@@QAE@PBG@Z      0049c690 f   j_str.obj
 0001:0009b6e0       ??4JString@@QAEAAV0@ABVJWString@@@Z 0049c6e0 f   j_str.obj
 0001:0009b700       ??4JString@@QAEAAV0@PBG@Z  0049c700 f   j_str.obj
 0001:0009b720       ??4JString@@QAEAAV0@ABVJWStrASCII@@@Z 0049c720 f   j_str.obj
 0001:0009b740       ??YJString@@QAEAAV0@ABVJWStrASCII@@@Z 0049c740 f   j_str.obj
 0001:0009b8b0       ?ToMbs@JString@@QAEKABVJWString@@PBD@Z 0049c8b0 f   j_str.obj
 0001:0009b8d0       ?ToMbs@JString@@QAEKABVJWString@@H@Z 0049c8d0 f   j_str.obj
 0001:0009b8f0       ?ToMbs@JString@@QAEKPBGPBD@Z 0049c8f0 f   j_str.obj
 0001:0009ba20       ?ToMbs@JString@@QAEKPBGH@Z 0049ca20 f   j_str.obj
 0001:0009bc40       ?ToMbsFunc@JString@@QAEKPBGH@Z 0049cc40 f   j_str.obj
 0001:0009bdd0       ?ConvUnicodeToUTF8@JString@@QAEKPBG@Z 0049cdd0 f   j_str.obj
 0001:0009c080       ?Add@JString@@QAEXD@Z      0049d080 f i j_str.obj
 0001:0009c1d0       ?SwapBuffer@?$JArray@D@@QAEXAAV1@@Z 0049d1d0 f i j_str.obj
 0001:0009c380       ?JGXCreateStreamObject@@YAPAVJStreamObject@@XZ 0049d380 f   j_stream.obj
 0001:0009c3e0       ?Create@JSurface32@@UAEHPAVJSurfaceObject@@JJJ@Z 0049d3e0 f   j_surf32.obj
 0001:0009c440       ?Create@JSurface32@@UAEHJJJ@Z 0049d440 f   j_surf32.obj
 0001:0009c4b0       ?CopyFrom@JSurface32@@UAEHJJJJPAVJSurface@@JJ@Z 0049d4b0 f   j_surf32.obj
 0001:0009c540       ?CopyKey@JSurface32@@UAEHJJJJPAVJSurface@@JJ@Z 0049d540 f   j_surf32.obj
 0001:0009c620       ?ColorFill@JSurface32@@UAEHJJJJK@Z 0049d620 f   j_surf32.obj
 0001:0009c6b0       ?AlphaFill@JSurface32@@UAEHJJJJE@Z 0049d6b0 f   j_surf32.obj
 0001:0009c700       ?CopyAlpha@JSurface32@@UAEHJJJJPAVJSurface@@JJ@Z 0049d700 f   j_surf32.obj
 0001:0009c930       ?ColorFillAlpha@JSurface32@@UAEHJJJJKE@Z 0049d930 f   j_surf32.obj
 0001:0009ca40       ?StretchCopy@JSurface32@@UAEHJJJJPAVJSurface@@JJJJ@Z 0049da40 f   j_surf32.obj
 0001:0009cdb0       ?StretchCopyEx@JSurface32@@UAEHJJJJPAVJSurface@@JJJJPAJ1@Z 0049ddb0 f   j_surf32.obj
 0001:0009d180       ?ZoomCopy@JSurface32@@UAEHJJJJPAVJSurface@@JJJJJJ@Z 0049e180 f   j_surf32.obj
 0001:0009d360       ?CopyAND@JSurface32@@UAEHJJJJPAVJSurface@@JJ@Z 0049e360 f   j_surf32.obj
 0001:0009d480       ?CopyOR@JSurface32@@UAEHJJJJPAVJSurface@@JJ@Z 0049e480 f   j_surf32.obj
 0001:0009d5a0       ?CopyXOR@JSurface32@@UAEHJJJJPAVJSurface@@JJ@Z 0049e5a0 f   j_surf32.obj
 0001:0009d6c0       ?CopyNOT@JSurface32@@UAEHJJJJPAVJSurface@@JJ@Z 0049e6c0 f   j_surf32.obj
 0001:0009d7f0       ?CopyNAND@JSurface32@@UAEHJJJJPAVJSurface@@JJ@Z 0049e7f0 f   j_surf32.obj
 0001:0009d920       ?CopyNOR@JSurface32@@UAEHJJJJPAVJSurface@@JJ@Z 0049e920 f   j_surf32.obj
 0001:0009da50       ?BlendFill@JSurface32@@UAEHJJJJKPAVJSurface@@E@Z 0049ea50 f   j_surf32.obj
 0001:0009ddd0       ?BlendDarken@JSurface32@@UAEHJJJJPAVJSurface@@JJ0@Z 0049edd0 f   j_surf32.obj
 0001:0009e220       ?BlendLighten@JSurface32@@UAEHJJJJPAVJSurface@@JJ0@Z 0049f220 f   j_surf32.obj
 0001:0009e650       ?BlendColor@JSurface32@@UAEHJJJJPAVJSurface@@JJ0@Z 0049f650 f   j_surf32.obj
 0001:0009e650       ?BlendHue@JSurface32@@UAEHJJJJPAVJSurface@@JJ0@Z 0049f650 f   j_surf32.obj
 0001:0009e650       ?BlendOverlay@JSurface32@@UAEHJJJJPAVJSurface@@JJ0@Z 0049f650 f   j_surf32.obj
 0001:0009e650       ?BlendSaturation@JSurface32@@UAEHJJJJPAVJSurface@@JJ0@Z 0049f650 f   j_surf32.obj
 0001:0009e650       ?BlendLuminosity@JSurface32@@UAEHJJJJPAVJSurface@@JJ0@Z 0049f650 f   j_surf32.obj
 0001:0009e650       ?BlendNormal@JSurface32@@UAEHJJJJPAVJSurface@@JJ0@Z 0049f650 f   j_surf32.obj
 0001:0009eae0       ?BlendMultiply@JSurface32@@UAEHJJJJPAVJSurface@@JJ0@Z 0049fae0 f   j_surf32.obj
 0001:0009ef60       ?BlendScreen@JSurface32@@UAEHJJJJPAVJSurface@@JJ0@Z 0049ff60 f   j_surf32.obj
 0001:0009f440       ?BlendDissolve@JSurface32@@UAEHJJJJPAVJSurface@@JJ0@Z 004a0440 f   j_surf32.obj
 0001:0009f7b0       ?BlendHardLight@JSurface32@@UAEHJJJJPAVJSurface@@JJ0@Z 004a07b0 f   j_surf32.obj
 0001:0009fd70       ?BlendSoftLight@JSurface32@@UAEHJJJJPAVJSurface@@JJ0@Z 004a0d70 f   j_surf32.obj
 0001:000a0310       ?BlendDifference@JSurface32@@UAEHJJJJPAVJSurface@@JJ0@Z 004a1310 f   j_surf32.obj
 0001:000a0810       ?ConvertPreMultipliedAlphaToNormal@JSurface32@@UAEXXZ 004a1810 f   j_surf32.obj
 0001:000a0900       ?AlphaPlaneSet@JSurface32@@UAEXPBEE_N@Z 004a1900 f   j_surf32.obj
 0001:000a0a10       ?AlphaPlaneGet@JSurface32@@UAEPAEXZ 004a1a10 f   j_surf32.obj
 0001:000a0a90       ?AlphaPlaneInvert@JSurface32@@UAEXXZ 004a1a90 f   j_surf32.obj
 0001:000a0af0       ?AlphaPlaneFill@JSurface32@@UAEXE@Z 004a1af0 f   j_surf32.obj
 0001:000a0b50       ?Create@JSurface8@@UAEHPAVJSurfaceObject@@JJJ@Z 004a1b50 f   j_surf8.obj
 0001:000a0bb0       ?Create@JSurface8@@UAEHJJJ@Z 004a1bb0 f   j_surf8.obj
 0001:000a0c20       ?CopyFrom@JSurface8@@UAEHJJJJPAVJSurface@@JJ@Z 004a1c20 f   j_surf8.obj
 0001:000a0cc0       ?ColorFill@JSurface8@@UAEHJJJJK@Z 004a1cc0 f   j_surf8.obj
 0001:000a0d60       ?CopyAlpha@JSurface8@@UAEHJJJJPAVJSurface@@JJ@Z 004a1d60 f   j_surf8.obj
 0001:000a0e90       ?ColorFillAlpha@JSurface8@@UAEHJJJJKE@Z 004a1e90 f   j_surf8.obj
 0001:000a0f20       ?StretchCopy@JSurface8@@UAEHJJJJPAVJSurface@@JJJJ@Z 004a1f20 f   j_surf8.obj
 0001:000a1250       ?StretchCopyEx@JSurface8@@UAEHJJJJPAVJSurface@@JJJJPAJ1@Z 004a2250 f   j_surf8.obj
 0001:000a15b0       ?CopyAND@JSurface8@@UAEHJJJJPAVJSurface@@JJ@Z 004a25b0 f   j_surf8.obj
 0001:000a16d0       ?CopyOR@JSurface8@@UAEHJJJJPAVJSurface@@JJ@Z 004a26d0 f   j_surf8.obj
 0001:000a17f0       ?CopyXOR@JSurface8@@UAEHJJJJPAVJSurface@@JJ@Z 004a27f0 f   j_surf8.obj
 0001:000a1910       ?CopyNOT@JSurface8@@UAEHJJJJPAVJSurface@@JJ@Z 004a2910 f   j_surf8.obj
 0001:000a1a40       ?CopyNAND@JSurface8@@UAEHJJJJPAVJSurface@@JJ@Z 004a2a40 f   j_surf8.obj
 0001:000a1b70       ?CopyNOR@JSurface8@@UAEHJJJJPAVJSurface@@JJ@Z 004a2b70 f   j_surf8.obj
 0001:000a1ca0       ?SetupSurface@JSurface@@UAEHXZ 004a2ca0 f   j_surfc.obj
 0001:000a1d30       ?Release@JSurface@@UAEXXZ  004a2d30 f   j_surfc.obj
 0001:000a1d70       ?AdjustParameters@JSurface@@QAEHPAV1@AAJ11111@Z 004a2d70 f   j_surfc.obj
 0001:000a1e70       ??_EJThread@@UAEPAXI@Z     004a2e70 f i j_thread.obj
 0001:000a1e70       ??_GJThread@@UAEPAXI@Z     004a2e70 f i j_thread.obj
 0001:000a1ea0       ?SetLoop@JThread@@QAEXPAVJThreadLoop@@@Z 004a2ea0 f   j_thread.obj
 0001:000a1eb0       ?GetDayOfWeekStatic@JTime@@SAHHHH@Z 004a2eb0 f   j_time.obj
 0001:000a1f30       ?ToString@JTime@@QBEXAAVJWString@@G@Z 004a2f30 f   j_time.obj
 0001:000a2190       ??YJString@@QAEAAV0@PBD@Z  004a3190 f i j_time.obj
 0001:000a21d0       ??4JTime@@QAEAAV0@ABV0@@Z  004a31d0 f   j_time.obj
 0001:000a2210       ??8JTime@@QBE_NABV0@@Z     004a3210 f   j_time.obj
 0001:000a2290       ??MJTime@@QBE_NABV0@@Z     004a3290 f   j_time.obj
 0001:000a2320       ??NJTime@@QBE_NABV0@@Z     004a3320 f   j_time.obj
 0001:000a23b0       ??0JWinFile@@QAE@XZ        004a33b0 f   j_winfile.obj
 0001:000a23d0       ?GetNum@?$JArray@J@@QBEKXZ 004a33d0 f i j_winfile.obj
 0001:000a23d0       ?Length@JStreamObject@@UAEKXZ 004a33d0 f i j_winfile.obj
 0001:000a23e0       ??_EJWinFile@@UAEPAXI@Z    004a33e0 f i j_winfile.obj
 0001:000a23e0       ??_GJWinFile@@UAEPAXI@Z    004a33e0 f i j_winfile.obj
 0001:000a2410       ??1JWinFile@@UAE@XZ        004a3410 f   j_winfile.obj
 0001:000a2460       ??1JStreamObject@@UAE@XZ   004a3460 f i j_winfile.obj
 0001:000a2470       ??_EJStreamObject@@UAEPAXI@Z 004a3470 f i j_winfile.obj
 0001:000a2470       ??_GJStreamObject@@UAEPAXI@Z 004a3470 f i j_winfile.obj
 0001:000a24a0       ?Open@JWinFile@@UAEHPBDH@Z 004a34a0 f   j_winfile.obj
 0001:000a2550       ?OpenW@JWinFile@@UAEHPBGH@Z 004a3550 f   j_winfile.obj
 0001:000a2690       ?Close@JWinFile@@UAEXXZ    004a3690 f   j_winfile.obj
 0001:000a26c0       ?Read@JWinFile@@UAEEXZ     004a36c0 f   j_winfile.obj
 0001:000a2700       ?Read@JWinFile@@UAEKPAXK@Z 004a3700 f   j_winfile.obj
 0001:000a2730       ?Write@JWinFile@@UAEKE@Z   004a3730 f   j_winfile.obj
 0001:000a2770       ?Write@JWinFile@@UAEKPBXK@Z 004a3770 f   j_winfile.obj
 0001:000a27b0       ?Seek@JWinFile@@UAEHJH@Z   004a37b0 f   j_winfile.obj
 0001:000a2810       ?Flush@JWinFile@@UAEXXZ    004a3810 f   j_winfile.obj
 0001:000a2830       ?Eof@JWinFile@@UAEXXZ      004a3830 f   j_winfile.obj
 0001:000a2850       ??0JWinThread@@QAE@XZ      004a3850 f   j_wintrd.obj
 0001:000a28c0       ??1JThread@@UAE@XZ         004a38c0 f i j_wintrd.obj
 0001:000a28d0       ?Handle@JWinThread@@UAEPAXXZ 004a38d0 f i j_wintrd.obj
 0001:000a28e0       ?IsSuspend@JWinThread@@UAE_NXZ 004a38e0 f i j_wintrd.obj
 0001:000a28f0       ?IsThreadStarted@JWinThread@@UAEHXZ 004a38f0 f i j_wintrd.obj
 0001:000a2900       ?SetMsgQueueNeed@JWinThread@@UAEX_N@Z 004a3900 f i j_wintrd.obj
 0001:000a2910       ?GetMsgQueueNeed@JWinThread@@UAE_NXZ 004a3910 f i j_wintrd.obj
 0001:000a2920       ?SetMultiThreadCapable@JWinThread@@UAEX_N@Z 004a3920 f i j_wintrd.obj
 0001:000a2930       ?GetMultiThreadCapable@JWinThread@@UAE_NXZ 004a3930 f i j_wintrd.obj
 0001:000a2940       ?Lock@JWinThread@@UAE_NJ@Z 004a3940 f i j_wintrd.obj
 0001:000a2950       ?Unlock@JWinThread@@UAEXXZ 004a3950 f i j_wintrd.obj
 0001:000a2960       ??_EJWinThread@@UAEPAXI@Z  004a3960 f i j_wintrd.obj
 0001:000a2960       ??_GJWinThread@@UAEPAXI@Z  004a3960 f i j_wintrd.obj
 0001:000a2990       ??1JWinThread@@UAE@XZ      004a3990 f   j_wintrd.obj
 0001:000a29f0       ?Start@JWinThread@@UAEHJ@Z 004a39f0 f   j_wintrd.obj
 0001:000a2aa0       ?Suspend@JWinThread@@UAEHXZ 004a3aa0 f   j_wintrd.obj
 0001:000a2ac0       ?Resume@JWinThread@@UAEHXZ 004a3ac0 f   j_wintrd.obj
 0001:000a2ae0       ?ForceResume@JWinThread@@UAEHXZ 004a3ae0 f   j_wintrd.obj
 0001:000a2b00       ?Exit@JWinThread@@UAEHXZ   004a3b00 f   j_wintrd.obj
 0001:000a2b50       ?Terminate@JWinThread@@UAEHXZ 004a3b50 f   j_wintrd.obj
 0001:000a2ba0       ?Release@JWinThread@@QAEXXZ 004a3ba0 f   j_wintrd.obj
 0001:000a2bb0       ?SetPriority@JWinThread@@UAEXH@Z 004a3bb0 f   j_wintrd.obj
 0001:000a2c10       ?SetInterval@JWinThread@@UAEHJ@Z 004a3c10 f   j_wintrd.obj
 0001:000a2d50       ?Sleep@JWinThread@@UAEHJ@Z 004a3d50 f   j_wintrd.obj
 0001:000a2d90       ?WaitForThreadRelease@JWinThread@@UAEHH@Z 004a3d90 f   j_wintrd.obj
 0001:000a2de0       ?PostQueue@JWinThread@@UAE_NHPAX@Z 004a3de0 f   j_wintrd.obj
 0001:000a2e30       ?TranslateDispatchMessage@JWinThread@@SAHAAUtagMSG@@@Z 004a3e30 f   j_wintrd.obj
 0001:000a2e50       ?GetQueue@JWinThread@@UAEPAXAAH@Z 004a3e50 f   j_wintrd.obj
 0001:000a2f40       ?InitEssentialRuntime@JWinThread@@SAX_N@Z 004a3f40 f   j_wintrd.obj
 0001:000a2fc0       ?ProcessLastMessages@JWinThread@@SAXXZ 004a3fc0 f   j_wintrd.obj
 0001:000a3020       ?UninitEssentialRuntime@JWinThread@@SAX_N0@Z 004a4020 f   j_wintrd.obj
 0001:000a3060       ?InitLocale@JWinThread@@SAXXZ 004a4060 f   j_wintrd.obj
 0001:000a30b0       ?JGXGetLocaleTable@@YAPBUtagJGX_LOCALE_TABLE@@XZ 004a40b0 f   j_wstr.obj
 0001:000a30c0       ?JGXGetCodePageTable@@YAPBHXZ 004a40c0 f   j_wstr.obj
 0001:000a3100       ??0JGXCodepageTable@@QAE@XZ 004a4100 f i j_wstr.obj
 0001:000a32b0       ??4JWString@@QAEAAV0@PBG@Z 004a42b0 f   j_wstr.obj
 0001:000a3390       ??4JWString@@QAEAAV0@ABV0@@Z 004a4390 f   j_wstr.obj
 0001:000a34e0       ?Cat@JWString@@QAEXPBGK@Z  004a44e0 f   j_wstr.obj
 0001:000a35a0       ?Remove@JWString@@QAE_NPBG@Z 004a45a0 f   j_wstr.obj
 0001:000a36b0       ?RemoveLast@JWString@@QAEXJ@Z 004a46b0 f   j_wstr.obj
 0001:000a37a0       ?RemoveToLast@JWString@@QAEXJ@Z 004a47a0 f   j_wstr.obj
 0001:000a3840       ?Remove@JWString@@QAE_NJJ@Z 004a4840 f   j_wstr.obj
 0001:000a38e0       ?TrimCharList@JWString@@QAEXPBG@Z 004a48e0 f   j_wstr.obj
 0001:000a3960       ?Replace@JWString@@QAEHPBG0J@Z 004a4960 f   j_wstr.obj
 0001:000a3b80       ?Replace@JWString@@QAEHGG@Z 004a4b80 f   j_wstr.obj
 0001:000a3bc0       ?ReplaceCharList@JWString@@QAEHPBGG@Z 004a4bc0 f   j_wstr.obj
 0001:000a3c20       ?ReplacePathChar@JWString@@QAEHG@Z 004a4c20 f   j_wstr.obj
 0001:000a3ca0       ?ReplaceCharTable@JWString@@QAEHPBG0@Z 004a4ca0 f   j_wstr.obj
 0001:000a3d10       ?Find@JWString@@QBEJPBGJ@Z 004a4d10 f   j_wstr.obj
 0001:000a3d40       ?FindList@JWString@@QBEJPBGJKPAJ@Z 004a4d40 f   j_wstr.obj
 0001:000a3dc0       ?ReverseFind@JWString@@QBEJPBGJ@Z 004a4dc0 f   j_wstr.obj
 0001:000a3e20       ?ReverseFindList@JWString@@QBEJPBGJK@Z 004a4e20 f   j_wstr.obj
 0001:000a3e90       ?Replace@JWString@@QAEHKKPBG@Z 004a4e90 f   j_wstr.obj
 0001:000a4000       ?Extract@JWString@@QBE?AV1@KK@Z 004a5000 f   j_wstr.obj
 0001:000a4190       ?ExtractRight@JWString@@QBE?AV1@K@Z 004a5190 f   j_wstr.obj
 0001:000a4200       ?ExtractLeft@JWString@@QBE?AV1@K@Z 004a5200 f   j_wstr.obj
 0001:000a4340       ?Insert@JWString@@QAEHKPBG@Z 004a5340 f   j_wstr.obj
 0001:000a44d0       ?Insert@JWString@@QAEHKG@Z 004a54d0 f   j_wstr.obj
 0001:000a4610       ??YJWString@@QAEAAV0@PBD@Z 004a5610 f   j_wstr.obj
 0001:000a4680       ??YJWString@@QAEAAV0@ABVJStrASCII@@@Z 004a5680 f   j_wstr.obj
 0001:000a47f0       ?ConvUTF8ToUnicode@JWString@@AAEKPBD@Z 004a57f0 f   j_wstr.obj
 0001:000a4ac0       ?NormalizeMSUnicode@JWString@@QAEXXZ 004a5ac0 f   j_wstr.obj
 0001:000a4b30       ?InitDefaultCodePage@JWString@@SAXXZ 004a5b30 f   j_wstr.obj
 0001:000a4ba0       ?GetDefaultCodePage@JWString@@SAHXZ 004a5ba0 f   j_wstr.obj
 0001:000a4bb0       ?GetLocaleDefaultCodePage@JWString@@SAHXZ 004a5bb0 f   j_wstr.obj
 0001:000a4bc0       ?GetCodePage@JWString@@SAHPBD_N@Z 004a5bc0 f   j_wstr.obj
 0001:000a4d00       ?GetCodePageText@JWString@@SAPBDH@Z 004a5d00 f   j_wstr.obj
 0001:000a4d30       ?ToUnicode@JWString@@QAEKPBD0@Z 004a5d30 f   j_wstr.obj
 0001:000a4e70       ?ToUnicode@JWString@@QAEKPBDH@Z 004a5e70 f   j_wstr.obj
 0001:000a5110       ?ToUnicodeFunc@JWString@@AAEKPBDH@Z 004a6110 f   j_wstr.obj
 0001:000a5240       ?JGXMakeSystemPath@@YAPBDPBD@Z 004a6240 f   jgxbase.obj
 0001:000a5340       ?JGXAddErrorString@@YAXJAAVJWString@@@Z 004a6340 f   jgxbase.obj
 0001:000a54e0       ?IsNT@@YA_NXZ              004a64e0 f   jgxbase.obj
 0001:000a5530       ?JGXGetTempPath@@YAXAAVJWString@@@Z 004a6530 f   jgxbase.obj
 0001:000a56a0       ?JGXGetSelfPath@@YAXAAVJWString@@@Z 004a66a0 f   jgxbase.obj
 0001:000a5850       ?strchr_list@@YAPADPADPBD@Z 004a6850 f   libc_custom.obj
 0001:000a5890       ?strtod_impl@@YANPBDPAPAD@Z 004a6890 f   libc_custom.obj
 0001:000a59b0       ?wcstod_impl@@YANPBGPAPAG@Z 004a69b0 f   libc_custom.obj
 0001:000a5a20       ?atol_impl@@YAJPBD@Z       004a6a20 f   libc_custom.obj
 0001:000a5a70       ?atoul_impl@@YAKPBD@Z      004a6a70 f   libc_custom.obj
 0001:000a5ac0       ?wtol_impl@@YAJPBG@Z       004a6ac0 f   libc_custom.obj
 0001:000a5b30       ?wtoul_impl@@YAKPBG@Z      004a6b30 f   libc_custom.obj
 0001:000a5ba0       ?strtoll_impl@@YA_JPBDPAPADH@Z 004a6ba0 f   libc_custom.obj
 0001:000a5d90       ?strtoull_impl@@YA_KPBDPAPADH@Z 004a6d90 f   libc_custom.obj
 0001:000a5f90       ?ltostr@@YAPBDJ@Z          004a6f90 f   libc_custom.obj
 0001:000a5fc0       ?ultowcs@@YAPBGK@Z         004a6fc0 f   libc_custom.obj
 0001:000a5ff0       ?ltowcs@@YAPBGJ@Z          004a6ff0 f   libc_custom.obj
 0001:000a6020       ?stricmp_custom@@YAHPBD0@Z 004a7020 f   libc_custom.obj
 0001:000a60a0       ?wcsicmp_custom@@YAHPBG0@Z 004a70a0 f   libc_custom.obj
 0001:000a6150       ?strnicmp_custom@@YAHPBD0I@Z 004a7150 f   libc_custom.obj
 0001:000a61f0       ?wcsnicmp_custom@@YAHPBG0I@Z 004a71f0 f   libc_custom.obj
 0001:000a62c0       ?stricmp_opt@@YAHPBD0@Z    004a72c0 f   libc_custom.obj
 0001:000a6340       ?wcsicmp_opt@@YAHPBG0@Z    004a7340 f   libc_custom.obj
 0001:000a63d0       ?strnicmp_opt@@YAHPBD0I@Z  004a73d0 f   libc_custom.obj
 0001:000a6460       ?wcsnicmp_opt@@YAHPBG0I@Z  004a7460 f   libc_custom.obj
 0001:000a6520       ?strstri_custom@@YAPADPBD0@Z 004a7520 f   libc_custom.obj
 0001:000a65f0       ?wcsstri_custom@@YAPAGPBG0@Z 004a75f0 f   libc_custom.obj
 0001:000a6720       ?strstri_opt@@YAPADPBD0@Z  004a7720 f   libc_custom.obj
 0001:000a67e0       ?wcsstri_opt@@YAPAGPBG0@Z  004a77e0 f   libc_custom.obj
 0001:000a68e0       ?wcs_cutctrlchar@@YAPAGPAG@Z 004a78e0 f   libc_custom.obj
 0001:000a6950       ?wcs_isemptystring@@YA_NPBG@Z 004a7950 f   libc_custom.obj
 0001:000a6990       ?wcsicmpex@@YAHPBG0@Z      004a7990 f   libc_custom.obj
 0001:000a6d00       ?wcsnicmpex@@YAHPBG0I@Z    004a7d00 f   libc_custom.obj
 0001:000a6f60       ?wcsstriex@@YAPBGPBG0@Z    004a7f60 f   libc_custom.obj
 0001:000a6fe0       ?wcsicmp_printchar@@YAHPBG0@Z 004a7fe0 f   libc_custom.obj
 0001:000a70a0       ?wcsicmp_trivial@@YAHPBG0@Z 004a80a0 f   libc_custom.obj
 0001:000a7250       ?wcsrchr_list@@YAPBGPBG0@Z 004a8250 f   libc_custom.obj
 0001:000a7290       ?wcsrchr_path@@YAPAGPAG@Z  004a8290 f   libc_custom.obj
 0001:000a72b0       ?wcsrchr_path@@YAPBGPBG@Z  004a82b0 f   libc_custom.obj
 0001:000a72d0       ?mbsrchr_path@@YAPADPAD@Z  004a82d0 f   libc_custom.obj
 0001:000a72f0       ?mbsrchr_path@@YAPBDPBD@Z  004a82f0 f   libc_custom.obj
 0001:000a7320       ?wcsicmp_equal_wildcard@@YA_NPBG0I@Z 004a8320 f   libc_custom.obj
 0001:000a7400       ?strlcat@@YAIPADPBDI@Z     004a8400 f   libc_custom.obj
 0001:000a7480       ?wcslcat@@YAIPAGPBGI@Z     004a8480 f   libc_custom.obj
 0001:000a7510       ?strlcpy@@YAIPADPBDI@Z     004a8510 f   libc_custom.obj
 0001:000a7570       ?wcslcpy@@YAIPAGPBGI@Z     004a8570 f   libc_custom.obj
 0001:000a75e0       _MMAG_hanalyze             004a85e0 f   M2BC.OBJ
 0001:000a78d0       _MMAG_getpc                004a88d0 f   M2BC.OBJ
 0001:000a7980       _MMAG_decordMagPixel       004a8980 f   M2BC.OBJ
 0001:000a7be0       _pi_read_init              004a8be0 f   piread.obj
 0001:000a7c00       _pi_read_end               004a8c00 f   piread.obj
 0001:000a7c20       _pi_read_header            004a8c20 f   piread.obj
 0001:000a7fc0       _pi_read_palette           004a8fc0 f   piread.obj
 0001:000a80a0       _pi_read_row_init          004a90a0 f   piread.obj
 0001:000a8330       _pi_read_image             004a9330 f   piread.obj
 0001:000a8370       _pi_read_row               004a9370 f   piread.obj
 0001:000a8ab0       _pi_read_init_io           004a9ab0 f   piread.obj
 0001:000a8af0       _pi_read_end_io            004a9af0 f   piread.obj
 0001:000a8b50       _sp_resetstkoflw           004a9b50 f   resetstk.obj
 0001:000a8cd0       ??0SPAdjustPrivADVAPI32@@QAE@XZ 004a9cd0 f   sp_adjustpriv.obj
 0001:000a8df0       ??1SPAdjustPrivADVAPI32@@QAE@XZ 004a9df0 f   sp_adjustpriv.obj
 0001:000a8e50       ?OpenProcessToken@SPAdjustPrivADVAPI32@@QAEHPAXKPAPAX@Z 004a9e50 f   sp_adjustpriv.obj
 0001:000a8e80       ?OpenThreadToken@SPAdjustPrivADVAPI32@@QAEHPAXKHPAPAX@Z 004a9e80 f   sp_adjustpriv.obj
 0001:000a8eb0       ?LookupPrivilegeValueA@SPAdjustPrivADVAPI32@@QAEHPAD0PAU_LUID@@@Z 004a9eb0 f   sp_adjustpriv.obj
 0001:000a8ee0       ?AdjustTokenPrivileges@SPAdjustPrivADVAPI32@@QAEHPAXHPAU_TOKEN_PRIVILEGES@@K1PAK@Z 004a9ee0 f   sp_adjustpriv.obj
 0001:000a8f10       ?GetTokenInformation@SPAdjustPrivADVAPI32@@QAEHPAXW4INFO_TOKEN_INFORMATION_CLASS@@0KPAK@Z 004a9f10 f   sp_adjustpriv.obj
 0001:000a8f40       ??0SPAdjustPriv@@QAE@PADH@Z 004a9f40 f   sp_adjustpriv.obj
 0001:000a9030       ??1SPAdjustPriv@@QAE@XZ    004aa030 f   sp_adjustpriv.obj
 0001:000a9190       ??0SPNTPrivSystem@@AAE@XZ  004aa190 f   sp_adjustpriv.obj
 0001:000a9210       ??_ESPNTPrivSystem@@UAEPAXI@Z 004aa210 f i sp_adjustpriv.obj
 0001:000a9210       ??_GSPNTPrivSystem@@UAEPAXI@Z 004aa210 f i sp_adjustpriv.obj
 0001:000a9240       ??1SPNTPrivSystem@@UAE@XZ  004aa240 f   sp_adjustpriv.obj
 0001:000a92b0       ?GetSPNTPrivSystem@@YAAAVSPNTPrivSystem@@XZ 004aa2b0 f   sp_adjustpriv.obj
 0001:000a9340       ?IsNT@SPNTPrivSystem@@AAE_NXZ 004aa340 f   sp_adjustpriv.obj
 0001:000a9350       ?SetPriv@SPNTPrivSystem@@QAE_NPADH@Z 004aa350 f   sp_adjustpriv.obj
 0001:000a9420       ?IsUAC@SPNTPrivSystem@@QAE_NXZ 004aa420 f   sp_adjustpriv.obj
 0001:000a94e0       ?IsElevated@SPNTPrivSystem@@QAE_NXZ 004aa4e0 f   sp_adjustpriv.obj
 0001:000a9560       ??0SPCollisionProp@@AAE@J@Z 004aa560 f   sp_anime.obj
 0001:000a9650       ??1SPCollisionProp@@AAE@XZ 004aa650 f   sp_anime.obj
 0001:000a96b0       ?Create@SPCollisionProp@@SAPAV1@J@Z 004aa6b0 f   sp_anime.obj
 0001:000a9710       ?AddRef@SPCollisionProp@@QAEXXZ 004aa710 f   sp_anime.obj
 0001:000a9740       ?Release@SPCollisionProp@@QAE_NXZ 004aa740 f   sp_anime.obj
 0001:000a9790       ?DrawCollision@SPCollisionProp@@QAEXPAXABUtagPOINT@@10000@Z 004aa790 f   sp_anime.obj
 0001:000a9aa0       ?GetCollisionType@SPCollisionProp@@QAEPBGXZ 004aaaa0 f   sp_anime.obj
 0001:000a9ad0       ?IsCollide@SPCollisionProp@@QAE_NJJABUtagPOINT@@@Z 004aaad0 f   sp_anime.obj
 0001:000a9cb0       ?SetFromTableText@SPCollisionProp@@QAEHPAVSPAnimeBase@@_NPAG@Z 004aacb0 f   sp_anime.obj
 0001:000aa380       ?CalcBoundingRect@SPCollisionProp@@AAE_NXZ 004ab380 f   sp_anime.obj
 0001:000aa420       ??0SPAnimeScript@@AAE@JAAVSPSeriko@@@Z 004ab420 f   sp_anime.obj
 0001:000aa4d0       ??0SPAnimeScript@@AAE@AAV0@@Z 004ab4d0 f   sp_anime.obj
 0001:000aa580       ?Create@SPAnimeScript@@SAPAV1@JAAVSPSeriko@@@Z 004ab580 f   sp_anime.obj
 0001:000aa5f0       ?Duplicate@SPAnimeScript@@SAPAV1@PAV1@@Z 004ab5f0 f   sp_anime.obj
 0001:000aa650       ?AddRef@SPAnimeScript@@QAEXXZ 004ab650 f   sp_anime.obj
 0001:000aa680       ?Release@SPAnimeScript@@QAE_NXZ 004ab680 f   sp_anime.obj
 0001:000aa6d0       ??1SPAnimeScript@@AAE@XZ   004ab6d0 f   sp_anime.obj
 0001:000aa830       ?ExecuteBind@SPAnimeScript@@QAEXPAVSPSerikoAnimation@@PAVSPSerikoTask@@AAV?$JArray@VSPSerikoAnimationPlayPat@@@@AAV?$JArray@J@@PAVSPAnimeBase@@@Z 004ab830 f   sp_anime.obj
 0001:000aaa70       ?CopyPatFromOther@SPAnimeScript@@QAEXAAV1@@Z 004aba70 f   sp_anime.obj
 0001:000aacb0       ?CopyCollisionFromOther@SPAnimeScript@@QAEXAAV1@@Z 004abcb0 f   sp_anime.obj
 0001:000aae00       ?Execute@SPAnimeScript@@QAEXPAVSPSerikoTask@@JAAV?$JArray@VSPSerikoAnimationPlayPat@@@@@Z 004abe00 f   sp_anime.obj
 0001:000aafa0       ?AllWait@SPAnimeScript@@QAEKXZ 004abfa0 f   sp_anime.obj
 0001:000aafd0       ?GetDefFileName@SPAnimeScript@@QBEPBGXZ 004abfd0 f   sp_anime.obj
 0001:000ab010       ?GetIndexText@SPAnimeScript@@QBEPBGXZ 004ac010 f   sp_anime.obj
 0001:000ab040       ?GetSortResult@SPAnimeScript@@QBEHPBV1@@Z 004ac040 f   sp_anime.obj
 0001:000ab070       ??0SPAnimeBalloonOffset@@QAE@XZ 004ac070 f   sp_anime.obj
 0001:000ab0e0       ??_F?$JArray@J@@QAEXXZ     004ac0e0 f i sp_anime.obj
 0001:000ab0e0       ??_F?$JArray@D@@QAEXXZ     004ac0e0 f i sp_anime.obj
 0001:000ab0e0       ??_F?$JArray@VJPoint@@@@QAEXXZ 004ac0e0 f i sp_anime.obj
 0001:000ab0f0       ?AppendFrom@SPAnimeBalloonOffset@@QAEXAAV1@@Z 004ac0f0 f   sp_anime.obj
 0001:000ab1c0       ?Release@SPAnimeBalloonOffset@@QAEXXZ 004ac1c0 f   sp_anime.obj
 0001:000ab220       ?Invalidate@SPAnimeBalloonOffset@@QAEXXZ 004ac220 f   sp_anime.obj
 0001:000ab240       ?AddToNum@SPAnimeBalloonOffset@@QAEXJ@Z 004ac240 f   sp_anime.obj
 0001:000ab390       ?Parse@SPAnimeBalloonOffset@@QAEXJPBDAAVJTokenStream@@@Z 004ac390 f   sp_anime.obj
 0001:000ab4d0       ?Get@SPAnimeBalloonOffset@@QBE?BUtagPOINT@@W4tagSPABO_DIRECTION@@JPBV1@@Z 004ac4d0 f   sp_anime.obj
 0001:000ab610       ?GetDebugString@SPAnimeBalloonOffset@@QBEXAAVJWString@@@Z 004ac610 f   sp_anime.obj
 0001:000ab8c0       ??0SPAnimeBase@@QAE@PAVSPGhost@@AAV?$SPSparsePtrArray@PAVSPAnimeBase@@@@@Z 004ac8c0 f   sp_anime.obj
 0001:000aba30       ??1SPAnimeBalloonOffset@@QAE@XZ 004aca30 f i sp_anime.obj
 0001:000aba50       ?Release@SPAnimeBase@@QAEXXZ 004aca50 f   sp_anime.obj
 0001:000abc20       ?ResetValue@SPAnimeBase@@QAEXXZ 004acc20 f   sp_anime.obj
 0001:000abc90       ??1SPAnimeBase@@QAE@XZ     004acc90 f   sp_anime.obj
 0001:000abd80       ?LoadScript@SPAnimeBase@@QAEHPBGAAVSPSeriko@@@Z 004acd80 f   sp_anime.obj
 0001:000ac360       ?FindScript@SPAnimeBase@@QAEJJ@Z 004ad360 f   sp_anime.obj
 0001:000ac3a0       ?GetScript@SPAnimeBase@@QAEPAVSPAnimeScript@@J@Z 004ad3a0 f   sp_anime.obj
 0001:000ac3d0       ?AddScript@SPAnimeBase@@QAEXPAVSPAnimeScript@@_N@Z 004ad3d0 f   sp_anime.obj
 0001:000ac5e0       ?LoadAreaNew@SPAnimeBase@@QAEHPBG@Z 004ad5e0 f   sp_anime.obj
 0001:000accf0       ?AddFromAnotherBase@SPAnimeBase@@QAEXPAV1@_N1@Z 004adcf0 f   sp_anime.obj
 0001:000aceb0       ?AllBindIDList@SPAnimeBase@@QAEXAAV?$JArray@J@@@Z 004adeb0 f   sp_anime.obj
 0001:000ad030       ?BindOverlay@SPAnimeBase@@QAEXPAVSPSerikoAnimation@@PAVSPSerikoTask@@AAV?$JArray@VSPSerikoAnimationPlayPat@@@@AAV?$JArray@J@@PAVJSurface@@PAXHH@Z 004ae030 f   sp_anime.obj
 0001:000ad370       ?SetBind@SPAnimeBase@@QAEXPAVSPSerikoAnimation@@PAJK_N@Z 004ae370 f   sp_anime.obj
 0001:000ad3f0       ?IsSurfaceUsed@SPAnimeBase@@QAE_NJ@Z 004ae3f0 f   sp_anime.obj
 0001:000ad440       ?CreateDummyDef@SPAnimeBase@@QAEXJKK@Z 004ae440 f   sp_anime.obj
 0001:000ad5d0       ?CalcBoundRect@SPAnimeBase@@QAEXAAVJPoint@@AAVJRect@@@Z 004ae5d0 f   sp_anime.obj
 0001:000ad650       ?CalcBoundRectReal@SPAnimeBase@@QAEXAAVJPoint@@AAVJRect@@@Z 004ae650 f   sp_anime.obj
 0001:000ad6d0       ?CreateBoundingBoxSub@SPAnimeBase@@IAEHAAVJRect@@0KK@Z 004ae6d0 f   sp_anime.obj
 0001:000ad800       ?CreateBoundingBox@SPAnimeBase@@QAEXXZ 004ae800 f   sp_anime.obj
 0001:000adb90       ?SetOffset@SPAnimeBase@@QAEXHH@Z 004aeb90 f   sp_anime.obj
 0001:000adc00       ?GetCollisionRectCompat@SPAnimeBase@@QAEHPAVSPSerikoAnimation@@AAVJRect@@PBG@Z 004aec00 f   sp_anime.obj
 0001:000addb0       ?GetAnimeCollisionRectCompatFore@SPAnimeBase@@QAEHPAVSPSerikoAnimation@@AAVJRect@@PBG@Z 004aedb0 f   sp_anime.obj
 0001:000adf60       ?GetAnimeCollisionRectCompatBack@SPAnimeBase@@QAEHPAVSPSerikoAnimation@@AAVJRect@@PBG@Z 004aef60 f   sp_anime.obj
 0001:000ae110       ?GetCollisionName@SPAnimeBase@@QAEPAGPAVSPSerikoAnimation@@HHPAJ@Z 004af110 f   sp_anime.obj
 0001:000ae250       ?GetAnimeCollisionNameFore@SPAnimeBase@@QAEPAGPAVSPSerikoAnimation@@HHPAJ@Z 004af250 f   sp_anime.obj
 0001:000ae390       ?GetAnimeCollisionNameBack@SPAnimeBase@@QAEPAGPAVSPSerikoAnimation@@HHPAJ@Z 004af390 f   sp_anime.obj
 0001:000ae4d0       ?GetCollisionArray@SPAnimeBase@@QAEXPAVSPSerikoAnimation@@AAV?$JPtrArray@PAVSPCollisionProp@@@@AAV?$JArray@UtagPOINT@@@@@Z 004af4d0 f   sp_anime.obj
 0001:000ae6f0       ?GetAnimeCollisionArrayFore@SPAnimeBase@@QAEXPAVSPSerikoAnimation@@AAV?$JPtrArray@PAVSPCollisionProp@@@@AAV?$JArray@UtagPOINT@@@@@Z 004af6f0 f   sp_anime.obj
 0001:000ae710       ?GetAnimeCollisionArrayBack@SPAnimeBase@@QAEXPAVSPSerikoAnimation@@AAV?$JPtrArray@PAVSPCollisionProp@@@@AAV?$JArray@UtagPOINT@@@@@Z 004af710 f   sp_anime.obj
 0001:000ae730       ?IsElementScriptDefined@SPAnimeBase@@QAE_NXZ 004af730 f   sp_anime.obj
 0001:000ae760       ?AddSurfaceElement@SPAnimeBase@@QAEHPAVSPSurface@@KHHH@Z 004af760 f   sp_anime.obj
 0001:000aea20       ?CreateElementCompositionCache@SPAnimeBase@@QAEXH@Z 004afa20 f   sp_anime.obj
 0001:000af4f0       ?ElementRender@SPAnimeBase@@QAEHPAVJSurface@@PAVJRect@@HHHH@Z 004b04f0 f   sp_anime.obj
 0001:000b0710       ?ElementCombineRegionOffset@SPAnimeBase@@QAEXPAXPAVJRect@@HHH@Z 004b1710 f   sp_anime.obj
 0001:000b0810       ?CalcBoundRect@SPAnimeSurfaceElement@@QAEXAAVJRect@@@Z 004b1810 f   sp_anime.obj
 0001:000b0870       ?CalcBoundRectReal@SPAnimeSurfaceElement@@QAEXAAVJRect@@@Z 004b1870 f   sp_anime.obj
 0001:000b08e0       ?InitFirst@SPAnimeBase@@QAEXXZ 004b18e0 f   sp_anime.obj
 0001:000b0cb0       ?CheckInvalidDef@SPAnimeBase@@QAEHXZ 004b1cb0 f   sp_anime.obj
 0001:000b1980       ??1SPAnimePat@@QAE@XZ      004b2980 f i sp_anime.obj
 0001:000b19b0       ?GetBalloonOffsetBase@SPAnimeBase@@QAEXHPAVSPSeriko@@AAUtagPOINT@@11@Z 004b29b0 f   sp_anime.obj
 0001:000b1a40       ?GetDefFileName@SPAnimeBase@@QBEPBGXZ 004b2a40 f   sp_anime.obj
 0001:000b1a80       ?GetIndexText@SPAnimeBase@@QBEPBGXZ 004b2a80 f   sp_anime.obj
 0001:000b1ab0       ?GetSortResult@SPAnimeBase@@QBEHPBV1@@Z 004b2ab0 f   sp_anime.obj
 0001:000b1ad0       ?IsDefinedByScript@SPAnimeBase@@QAE_NXZ 004b2ad0 f   sp_anime.obj
 0001:000b1b10       ?QuickSortFunc@?$JPtrArray@PAVSPCollisionProp@@@@QAEXP6AHPBVSPCollisionProp@@0PAX@Z_N1@Z 004b2b10 f i sp_anime.obj
 0001:000b1ce0       ?sort_heap@std@@YAXPAPAVSPCollisionProp@@0U?$JArray_PredConverter@PAVSPCollisionProp@@P6AHPBV1@0PAX@Z@@@Z 004b2ce0 f i sp_anime.obj
 0001:000b1ce0       ?sort_heap@std@@YAXPAPAVSPGhost@@0U?$JArray_PredConverter@PAVSPGhost@@P6AHPAV1@0PAX@Z@@@Z 004b2ce0 f i sp_anime.obj
 0001:000b1ce0       ?sort_heap@std@@YAXPAPAVSPUsageStatisticsEntry@@0U?$JArray_PredConverter@PAVSPUsageStatisticsEntry@@P6AHPAV1@0PAX@Z@@@Z 004b2ce0 f i sp_anime.obj
 0001:000b1ce0       ?sort_heap@std@@YAXPAPAVSPAnimeScript@@0U?$JArray_PredConverter@PAVSPAnimeScript@@P6AHPBV1@0PAX@Z@@@Z 004b2ce0 f i sp_anime.obj
 0001:000b1dd0       ?_Make_heap@std@@YAXPAPAVSPCollisionProp@@0U?$JArray_PredConverterRev@PAVSPCollisionProp@@P6AHPBV1@0PAX@Z@@PAH0@Z 004b2dd0 f i sp_anime.obj
 0001:000b1ec0       ?_Adjust_heap@std@@YAXPAPAVSPScheduleEntry@@HHPAV2@U?$JArray_PredConverter@PAVSPScheduleEntry@@P6AHPAV1@0PAX@Z@@@Z 004b2ec0 f i sp_anime.obj
 0001:000b1ec0       ?_Adjust_heap@std@@YAXPAPAVSPUsageStatisticsEntry@@HHPAV2@U?$JArray_PredConverter@PAVSPUsageStatisticsEntry@@P6AHPAV1@0PAX@Z@@@Z 004b2ec0 f i sp_anime.obj
 0001:000b1ec0       ?_Adjust_heap@std@@YAXPAPAVSPTimingEntry@@HHPAV2@U?$JArray_PredConverter@PAVSPTimingEntry@@P6AHPAV1@0PAX@Z@@@Z 004b2ec0 f i sp_anime.obj
 0001:000b1ec0       ?_Adjust_heap@std@@YAXPAPAVSPCollisionProp@@HHPAV2@U?$JArray_PredConverter@PAVSPCollisionProp@@P6AHPBV1@0PAX@Z@@@Z 004b2ec0 f i sp_anime.obj
 0001:000b1f80       ?_Pop_heap@std@@YAXPAPAVSPCollisionProp@@00PAV2@U?$JArray_PredConverterRev@PAVSPCollisionProp@@P6AHPBV1@0PAX@Z@@PAH@Z 004b2f80 f i sp_anime.obj
 0001:000b2090       ?SPBalloon_CheckFontSize@@YAHH@Z 004b3090 f   sp_balloon.obj
 0001:000b20b0       ?SPBalloon_CheckFontSize@@YAHPBD@Z 004b30b0 f   sp_balloon.obj
 0001:000b20d0       ?SPBalloon_CheckFontSize@@YAHPBG@Z 004b30d0 f   sp_balloon.obj
 0001:000b20f0       ?SPBalloon_MakeColor@@YA_NAAVJTokenStream@@AAVSPColor@@PBD@Z 004b30f0 f   sp_balloon.obj
 0001:000b2290       ?SPBalloon_MakeFont@@YA_NPAPBGKAAVJWString@@PBG@Z 004b3290 f   sp_balloon.obj
 0001:000b24c0       ?SPBalloon_MakeFont@@YA_NAAVJTokenStream@@AAVJWString@@HPBG@Z 004b34c0 f   sp_balloon.obj
 0001:000b2620       ?ProcessDescript@SPBalloonFontPropMask@@QAE_NAAVJTokenStream@@PBD@Z 004b3620 f   sp_balloon.obj
 0001:000b2a10       ?GetBrushColor@SPBalloonFontPropMask@@QBE_NAAVSPColor@@PAPBV1@@Z 004b3a10 f   sp_balloon.obj
 0001:000b2a90       ?GetFontColor@SPBalloonFontPropMask@@QBE_NAAVSPColor@@PAPBV1@@Z 004b3a90 f   sp_balloon.obj
 0001:000b2b10       ?GetPenColor@SPBalloonFontPropMask@@QBE_NAAVSPColor@@PAPBV1@@Z 004b3b10 f   sp_balloon.obj
 0001:000b2b90       ?GetShadowColor@SPBalloonFontPropMask@@QBE_NAAVSPColor@@PAPBV1@@Z 004b3b90 f   sp_balloon.obj
 0001:000b2c10       ?GetHasShadow@SPBalloonFontPropMask@@QBE_NAAW4tagSPBALLOONFONTPROP_SHADOW@@PAPBV1@@Z 004b3c10 f   sp_balloon.obj
 0001:000b2c80       ?GetMethod@SPBalloonFontPropMask@@QBE_NAAIPAPBV1@@Z 004b3c80 f   sp_balloon.obj
 0001:000b2cf0       ?GetStyle@SPBalloonFontPropMask@@QBE_NAAIPAPBV1@@Z 004b3cf0 f   sp_balloon.obj
 0001:000b2d60       ?Add@SPBalloonDescHolder@@QAEPAVSPBalloonDesc@@H@Z 004b3d60 f   sp_balloon.obj
 0001:000b2e50       ?Get@SPBalloonDescHolder@@QAEPAVSPBalloonDesc@@H@Z 004b3e50 f   sp_balloon.obj
 0001:000b2e80       ?GetArray@SPBalloonDescHolder@@QAEXAAV?$JArray@K@@@Z 004b3e80 f   sp_balloon.obj
 0001:000b2fc0       ?ResetFontResource@SPBalloonDescHolder@@QAEXXZ 004b3fc0 f   sp_balloon.obj
 0001:000b2ff0       ?Release@SPBalloonDescHolder@@QAEXXZ 004b3ff0 f   sp_balloon.obj
 0001:000b3040       ??0SPBalloonDesc@@QAE@PAVSPBalloon@@@Z 004b4040 f   sp_balloon.obj
 0001:000b32d0       ??1SPVarSystemNode@@UAE@XZ 004b42d0 f i sp_balloon.obj
 0001:000b32e0       ??_GSPVarSystemNode@@UAEPAXI@Z 004b42e0 f i sp_balloon.obj
 0001:000b32e0       ??_ESPVarSystemNode@@UAEPAXI@Z 004b42e0 f i sp_balloon.obj
 0001:000b3310       ??0SPBalloonPoint@@QAE@XZ  004b4310 f i sp_balloon.obj
 0001:000b3320       ?VarSet@SPLogManagerCore@@MAE_NPAVSPGhost@@PBGPAGPAVSPVarSystemNode@@@Z 004b4320 f i sp_balloon.obj
 0001:000b3320       ?VarSet@SPBalloonDesc@@UAE_NPAVSPGhost@@PBGPAGPAVSPVarSystemNode@@@Z 004b4320 f i sp_balloon.obj
 0001:000b3330       ??_GSPBalloonDesc@@UAEPAXI@Z 004b4330 f i sp_balloon.obj
 0001:000b3330       ??_ESPBalloonDesc@@UAEPAXI@Z 004b4330 f i sp_balloon.obj
 0001:000b3360       ??1SPBalloonDesc@@UAE@XZ   004b4360 f i sp_balloon.obj
 0001:000b3410       ?Release@SPBalloonDesc@@QAEXXZ 004b4410 f   sp_balloon.obj
 0001:000b3430       ?Width@SPBalloonDesc@@QAEJXZ 004b4430 f   sp_balloon.obj
 0001:000b3440       ?Height@SPBalloonDesc@@QAEJXZ 004b4440 f   sp_balloon.obj
 0001:000b3450       ?LoadDescript@SPBalloonDesc@@QAEHPBG0@Z 004b4450 f   sp_balloon.obj
 0001:000b40c0       ?VarGet@SPBalloonDesc@@UAE_NPAVSPGhost@@PBGAAVJWString@@PAVSPVarSystemNode@@@Z 004b50c0 f   sp_balloon.obj
 0001:000b4150       ?LoadFinish@SPBalloonDesc@@QAEXPBG@Z 004b5150 f   sp_balloon.obj
 0001:000b43a0       ?SetDefaultHelper@SPBalloonDesc@@AAEXAAVSPBalloonPoint@@ABUtagPOINT@@@Z 004b53a0 f   sp_balloon.obj
 0001:000b4410       ?SetDefault@SPBalloonDesc@@QAEHPAVSPBalloon@@JH@Z 004b5410 f   sp_balloon.obj
 0001:000b4850       ??0SPBalloonParts@@QAE@XZ  004b5850 f   sp_balloon.obj
 0001:000b49f0       ??_ESPBalloonParts@@UAEPAXI@Z 004b59f0 f i sp_balloon.obj
 0001:000b49f0       ??_GSPBalloonParts@@UAEPAXI@Z 004b59f0 f i sp_balloon.obj
 0001:000b4a20       ??1SPBalloonParts@@UAE@XZ  004b5a20 f   sp_balloon.obj
 0001:000b4ae0       ?SetPartsDefault@SPBalloonParts@@IAEHJ@Z 004b5ae0 f   sp_balloon.obj
 0001:000b4bf0       ?ParseDescript@SPBalloonParts@@IAE_NPBDAAVJTokenStream@@H@Z 004b5bf0 f   sp_balloon.obj
 0001:000b4d40       ?LoadParts@SPBalloonParts@@IAEHPBG@Z 004b5d40 f   sp_balloon.obj
 0001:000b51f0       ?LoadSurfaceOne@SPBalloonParts@@IAEPAVSPSurface@@PBGVJWString@@H@Z 004b61f0 f i sp_balloon.obj
 0001:000b5250       ?Release@SPBalloonParts@@QAEXXZ 004b6250 f   sp_balloon.obj
 0001:000b52a0       ?LoadSurfaceOne@SPBalloonParts@@IAEPAVSPSurface@@PBG0H@Z 004b62a0 f   sp_balloon.obj
 0001:000b52d0       ?LoadSurfaceTwo@SPBalloonParts@@IAE_NPAPAVSPSurface@@PBG11H@Z 004b62d0 f   sp_balloon.obj
 0001:000b5380       ??0SPBalloon@@QAE@PAVSPGhost@@@Z 004b6380 f   sp_balloon.obj
 0001:000b57f0       ??1SPSurfaceManager@@QAE@XZ 004b67f0 f i sp_balloon.obj
 0001:000b58b0       ??_ESPBalloon@@UAEPAXI@Z   004b68b0 f i sp_balloon.obj
 0001:000b58b0       ??_GSPBalloon@@UAEPAXI@Z   004b68b0 f i sp_balloon.obj
 0001:000b58e0       ??1SPBalloon@@UAE@XZ       004b68e0 f i sp_balloon.obj
 0001:000b5ab0       ??1SPCursorDef@@QAE@XZ     004b6ab0 f i sp_balloon.obj
 0001:000b5b00       ?Release@SPBalloon@@QAEXXZ 004b6b00 f   sp_balloon.obj
 0001:000b5c00       ??1SPBalloonDescHolder@@QAE@XZ 004b6c00 f i sp_balloon.obj
 0001:000b5c60       ?LoadBalloon@SPBalloon@@QAEHPBG@Z 004b6c60 f   sp_balloon.obj
 0001:000b6ed0       ?ScanSurface@SPBalloon@@AAEHAAVSPBalloonDescHolder@@JPBG1H@Z 004b7ed0 f   sp_balloon.obj
 0001:000b7250       ?LoadCursorA@SPBalloon@@QAEPAXPBG@Z 004b8250 f   sp_balloon.obj
 0001:000b7410       ?LoadSurface@SPBalloon@@AAEHPBG@Z 004b8410 f   sp_balloon.obj
 0001:000b7970       ?FillLoadSurface@SPBalloon@@QAEHPBG@Z 004b8970 f   sp_balloon.obj
 0001:000b7b80       ?OKButtonExtent@SPBalloon@@QAE?AUtagPOINT@@XZ 004b8b80 f   sp_balloon.obj
 0001:000b7bd0       ?CancelButtonExtent@SPBalloon@@QAE?AUtagPOINT@@XZ 004b8bd0 f   sp_balloon.obj
 0001:000b7c20       ?ModeButtonExtent@SPBalloon@@QAE?AUtagPOINT@@XZ 004b8c20 f   sp_balloon.obj
 0001:000b7c70       ?MaxButtonExtent@SPBalloon@@QAE?AUtagPOINT@@XZ 004b8c70 f   sp_balloon.obj
 0001:000b7ce0       ?GetInput@SPBalloon@@QAEPAVSPBalloonDesc@@K@Z 004b8ce0 f   sp_balloon.obj
 0001:000b7db0       ?GetCharIndexArray@SPBalloon@@QAEXAAV?$JArray@K@@@Z 004b8db0 f   sp_balloon.obj
 0001:000b7f40       ?GetArray@SPBalloon@@QAEXHAAV?$JArray@K@@@Z 004b8f40 f   sp_balloon.obj
 0001:000b7fb0       ?GetArrow@SPBalloon@@QAEPAVSPSurface@@PAVSPBalloonDesc@@HH@Z 004b8fb0 f   sp_balloon.obj
 0001:000b7fe0       ?GetClickWaitMarker@SPBalloon@@QAEPAVSPSurface@@PAVSPBalloonDesc@@H@Z 004b8fe0 f   sp_balloon.obj
 0001:000b8010       ?GetMarker@SPBalloon@@QAEPAVSPSurface@@PAVSPBalloonDesc@@H@Z 004b9010 f   sp_balloon.obj
 0001:000b8040       ?GetPropA@SPBalloon@@QAEPAVSPBalloonDesc@@JH@Z 004b9040 f   sp_balloon.obj
 0001:000b81a0       ?ResetFontResourceAll@SPBalloon@@QAEXXZ 004b91a0 f   sp_balloon.obj
 0001:000b82f0       ?VarGet@SPBalloon@@UAE_NPAVSPGhost@@PBGAAVJWString@@PAVSPVarSystemNode@@@Z 004b92f0 f   sp_balloon.obj
 0001:000b86e0       ?VarSet@SPBalloon@@UAE_NPAVSPGhost@@PBGPAGPAVSPVarSystemNode@@@Z 004b96e0 f   sp_balloon.obj
 0001:000b8830       ??0SPBalloonWnd@@QAE@PAVSPGhost@@H@Z 004b9830 f   sp_balloon.obj
 0001:000b8d30       ??0JDummyLockSection@@QAE@XZ 004b9d30 f i sp_balloon.obj
 0001:000b8d40       ?Visit@XMLVisitor@tinyxml2@@UAE_NABVXMLUnknown@2@@Z 004b9d40 f i sp_balloon.obj
 0001:000b8d40       ?VisitExit@XMLPrinter@tinyxml2@@UAE_NABVXMLDocument@2@@Z 004b9d40 f i sp_balloon.obj
 0001:000b8d40       ?VisitExit@XMLVisitor@tinyxml2@@UAE_NABVXMLDocument@2@@Z 004b9d40 f i sp_balloon.obj
 0001:000b8d40       ?Lock@JDummyLockSection@@UAE_NJ@Z 004b9d40 f i sp_balloon.obj
 0001:000b8d40       ?Lock@JThread@@UAE_NJ@Z    004b9d40 f i sp_balloon.obj
 0001:000b8d40       ?VisitEnter@XMLVisitor@tinyxml2@@UAE_NABVXMLDocument@2@@Z 004b9d40 f i sp_balloon.obj
 0001:000b8d40       ?Visit@XMLVisitor@tinyxml2@@UAE_NABVXMLText@2@@Z 004b9d40 f i sp_balloon.obj
 0001:000b8d40       ?Visit@XMLVisitor@tinyxml2@@UAE_NABVXMLComment@2@@Z 004b9d40 f i sp_balloon.obj
 0001:000b8d40       ?Visit@XMLVisitor@tinyxml2@@UAE_NABVXMLDeclaration@2@@Z 004b9d40 f i sp_balloon.obj
 0001:000b8d40       ?VisitExit@XMLVisitor@tinyxml2@@UAE_NABVXMLElement@2@@Z 004b9d40 f i sp_balloon.obj
 0001:000b8d50       ??_GJDummyLockSection@@UAEPAXI@Z 004b9d50 f i sp_balloon.obj
 0001:000b8d50       ??_EJDummyLockSection@@UAEPAXI@Z 004b9d50 f i sp_balloon.obj
 0001:000b8d80       ??1JLockable@@UAE@XZ       004b9d80 f i sp_balloon.obj
 0001:000b8d80       ??1JDummyLockSection@@UAE@XZ 004b9d80 f i sp_balloon.obj
 0001:000b8d90       ??1SPScaleSurface@@UAE@XZ  004b9d90 f i sp_balloon.obj
 0001:000b8e00       ??_GSPScaleSurface@@UAEPAXI@Z 004b9e00 f i sp_balloon.obj
 0001:000b8e00       ??_ESPScaleSurface@@UAEPAXI@Z 004b9e00 f i sp_balloon.obj
 0001:000b8e30       ??_GSPBalloonWnd@@UAEPAXI@Z 004b9e30 f i sp_balloon.obj
 0001:000b8e30       ??_ESPBalloonWnd@@UAEPAXI@Z 004b9e30 f i sp_balloon.obj
 0001:000b8e60       ?ResetWrapState@SPBalloonWnd@@QAEXXZ 004b9e60 f   sp_balloon.obj
 0001:000b8e80       ?ResetState@SPBalloonWnd@@QAEXXZ 004b9e80 f   sp_balloon.obj
 0001:000b8ee0       ??1SPBalloonWnd@@UAE@XZ    004b9ee0 f   sp_balloon.obj
 0001:000b9150       ?OnCreate@SPBalloonWnd@@QAEXPAX0@Z 004ba150 f   sp_balloon.obj
 0001:000b91b0       ?OnDestroy@SPBalloonWnd@@QAEXXZ 004ba1b0 f   sp_balloon.obj
 0001:000b9200       ?Release@SPBalloonWnd@@QAEXXZ 004ba200 f   sp_balloon.obj
 0001:000b9470       ?WindowWidth@SPBalloonWnd@@UAEHXZ 004ba470 f   sp_balloon.obj
 0001:000b94d0       ?WindowHeight@SPBalloonWnd@@UAEHXZ 004ba4d0 f   sp_balloon.obj
 0001:000b9540       ?OriginalWidth@SPBalloonWnd@@UAEHXZ 004ba540 f   sp_balloon.obj
 0001:000b9560       ?OriginalHeight@SPBalloonWnd@@UAEHXZ 004ba560 f   sp_balloon.obj
 0001:000b9580       ?CreateBackBuffer@SPBalloonWnd@@QAEHXZ 004ba580 f   sp_balloon.obj
 0001:000b98d0       ?ResetGlobalFontHeight@SPBalloonWnd@@AAEXXZ 004ba8d0 f   sp_balloon.obj
 0001:000b9910       ?VarGet@SPBalloonWnd@@UAE_NPAVSPGhost@@PBGAAVJWString@@PAVSPVarSystemNode@@@Z 004ba910 f   sp_balloon.obj
 0001:000b9c50       ?VarSet@SPBalloonWnd@@UAE_NPAVSPGhost@@PBGPAGPAVSPVarSystemNode@@@Z 004bac50 f   sp_balloon.obj
 0001:000b9db0       ?SetBalloon@SPBalloonWnd@@QAEHPAVSPBalloon@@HHPAUtagPOINT@@@Z 004badb0 f   sp_balloon.obj
 0001:000ba2d0       ?UpdateRegion@SPBalloonWnd@@QAEHXZ 004bb2d0 f   sp_balloon.obj
 0001:000ba3a0       ?DrawBackBuffer@SPBalloonWnd@@QAEXXZ 004bb3a0 f   sp_balloon.obj
 0001:000ba650       ?DrawImage@SPBalloonWnd@@AAEK_N@Z 004bb650 f   sp_balloon.obj
 0001:000ba8b0       ?FillTextBuffer@SPBalloonWnd@@AAEXXZ 004bb8b0 f   sp_balloon.obj
 0001:000ba990       ?BlendTextBuffer@SPBalloonWnd@@AAEXXZ 004bb990 f   sp_balloon.obj
 0001:000baa20       ?IsScrollUpLimit@SPBalloonWnd@@QAEHXZ 004bba20 f   sp_balloon.obj
 0001:000baa30       ?IsScrollDownLimit@SPBalloonWnd@@QAEHXZ 004bba30 f   sp_balloon.obj
 0001:000baa60       ?SetScrollToDownLimit@SPBalloonWnd@@QAEXXZ 004bba60 f   sp_balloon.obj
 0001:000baa80       ?DrawScrollArrowAuto@SPBalloonWnd@@AAEXXZ 004bba80 f   sp_balloon.obj
 0001:000baaf0       ?DrawScrollArrowAutoRegion@SPBalloonWnd@@AAE_NPAX@Z 004bbaf0 f   sp_balloon.obj
 0001:000bab70       ?GetScrollRangeY@SPBalloonWnd@@QAEHXZ 004bbb70 f   sp_balloon.obj
 0001:000bab80       ?GetDefaultTextElementOffsetY@SPBalloonWnd@@QAEHXZ 004bbb80 f   sp_balloon.obj
 0001:000bab90       ?IsMouseInScroolMarker@SPBalloonWnd@@QAEHHUtagPOINT@@@Z 004bbb90 f   sp_balloon.obj
 0001:000bac20       ?DrawClickWaitMarker@SPBalloonWnd@@AAEXXZ 004bbc20 f   sp_balloon.obj
 0001:000bae10       ?DrawClickWaitMarkerRegion@SPBalloonWnd@@AAE_NPAX@Z 004bbe10 f   sp_balloon.obj
 0001:000bae60       ?IsSuppressDownArrow@SPBalloonWnd@@AAE_NXZ 004bbe60 f   sp_balloon.obj
 0001:000baeb0       ?DrawScrollArrow@SPBalloonWnd@@AAEXH@Z 004bbeb0 f   sp_balloon.obj
 0001:000bb0c0       ?DrawScrollArrowRegion@SPBalloonWnd@@AAE_NPAXH@Z 004bc0c0 f   sp_balloon.obj
 0001:000bb120       ?GetArrow@SPBalloonWnd@@QAEPAVSPSurface@@H@Z 004bc120 f   sp_balloon.obj
 0001:000bb150       ?GetMarker@SPBalloonWnd@@QAEPAVSPSurface@@XZ 004bc150 f   sp_balloon.obj
 0001:000bb170       ?GetClickWaitMarker@SPBalloonWnd@@QAEPAVSPSurface@@XZ 004bc170 f   sp_balloon.obj
 0001:000bb190       ?GetSSTP@SPBalloonWnd@@QAEPAVSPSurface@@XZ 004bc190 f   sp_balloon.obj
 0001:000bb1c0       ?GetOnlineArray@SPBalloonWnd@@QAEAAV?$JPtrArray@PAVSPSurface@@@@XZ 004bc1c0 f   sp_balloon.obj
 0001:000bb1f0       ?SetAlpha@SPBalloonWnd@@QAEXH@Z 004bc1f0 f   sp_balloon.obj
 0001:000bb220       ?Redraw@SPBalloonWnd@@QAEXXZ 004bc220 f   sp_balloon.obj
 0001:000bb270       ?Present@SPBalloonWnd@@QAEXPAX@Z 004bc270 f   sp_balloon.obj
 0001:000bb3e0       ?NewString@SPBalloonWnd@@AAEPAVSPBalloonString@@PAV2@@Z 004bc3e0 f   sp_balloon.obj
 0001:000bb6b0       ??_GSPBalloonRefBlock@@AAEPAXI@Z 004bc6b0 f i sp_balloon.obj
 0001:000bb6e0       ??1SPBalloonRefBlock@@AAE@XZ 004bc6e0 f i sp_balloon.obj
 0001:000bb770       ??0SPBalloonString@@QAE@XZ 004bc770 f i sp_balloon.obj
 0001:000bb880       ?ClearStringCommand@SPBalloonWnd@@QAEHPAGH@Z 004bc880 f   sp_balloon.obj
 0001:000bc140       ?IsContentExist@SPBalloonWnd@@QAEIXZ 004bd140 f   sp_balloon.obj
 0001:000bc160       ?UpdateFlags@SPBalloonWnd@@AAEXXZ 004bd160 f   sp_balloon.obj
 0001:000bc200       ?ClearString@SPBalloonWnd@@QAEXXZ 004bd200 f   sp_balloon.obj
 0001:000bc490       ?InitFontProp@SPBalloonWnd@@AAEXXZ 004bd490 f   sp_balloon.obj
 0001:000bc4c0       ?ResetFontResource@SPBalloonWnd@@AAEXXZ 004bd4c0 f   sp_balloon.obj
 0001:000bc4e0       ?ResetFontResourceReal@SPBalloonWnd@@AAEXXZ 004bd4e0 f   sp_balloon.obj
 0001:000bc580       ?CheckFontResource@SPBalloonWnd@@AAEXXZ 004bd580 f   sp_balloon.obj
 0001:000bc670       ?IsNoWrapChar@SPBalloonWnd@@SAHG@Z 004bd670 f   sp_balloon.obj
 0001:000bc690       ?IsSendNextChar@SPBalloonWnd@@SAHG@Z 004bd690 f   sp_balloon.obj
 0001:000bc6b0       ?GetWaitChar@SPBalloonWnd@@SAHG@Z 004bd6b0 f   sp_balloon.obj
 0001:000bc750       ?AddString@SPBalloonWnd@@QAEXPAGK@Z 004bd750 f   sp_balloon.obj
 0001:000bd160       ?AddMarkerIcon@SPBalloonWnd@@QAEXPAG@Z 004be160 f   sp_balloon.obj
 0001:000bd280       ?GetTextExtent@SPBalloonWnd@@AAEXPAVSPBalloonString@@@Z 004be280 f   sp_balloon.obj
 0001:000bd350       ?AddSelectableString@SPBalloonWnd@@QAEXPAG0HPAPAGI@Z 004be350 f   sp_balloon.obj
 0001:000bd5c0       ?LockUpdate@SPBalloonWnd@@QAEX_N@Z 004be5c0 f   sp_balloon.obj
 0001:000bd620       ?LockUpdateFromScript@SPBalloonWnd@@QAEXH@Z 004be620 f   sp_balloon.obj
 0001:000bd650       ?GetBalloonIndex@SPBalloonWnd@@QAEHXZ 004be650 f   sp_balloon.obj
 0001:000bd670       ?UpdateBalloonScroll@SPBalloonWnd@@QAEXHH@Z 004be670 f   sp_balloon.obj
 0001:000bd6a0       ?AddAnchorOrSelectable@SPBalloonWnd@@QAEXPAG_N@Z 004be6a0 f   sp_balloon.obj
 0001:000bda00       ?DrawString@SPBalloonWnd@@AAEXJ@Z 004bea00 f   sp_balloon.obj
 0001:000bdb70       ?BTextOut@SPBalloonWnd@@AAE_NAAVJRect@@PAVJSurface@@HHPAVSPBalloonString@@HABVSPColor@@W4tagSPBALLOONFONTPROP_SHADOW@@3_N@Z 004beb70 f   sp_balloon.obj
 0001:000bdee0       ?GetXYAlignOffset@SPBalloonWnd@@AAE?AUtagPOINT@@J@Z 004beee0 f   sp_balloon.obj
 0001:000be040       ?DrawOneElement@SPBalloonWnd@@AAEXPAVSPBalloonString@@JH@Z 004bf040 f   sp_balloon.obj
 0001:000bef80       ?DrawBalloonTestRect@SPBalloonWnd@@AAEXPBVJRect@@PAXHHPAVSPBalloonString@@@Z 004bff80 f   sp_balloon.obj
 0001:000beff0       ?DrawBalloonTestRect@SPBalloonWnd@@AAEXPBVJRect@@PAXABV2@@Z 004bfff0 f   sp_balloon.obj
 0001:000bf080       ?DrawSstpMarker@SPBalloonWnd@@AAEXXZ 004c0080 f   sp_balloon.obj
 0001:000bf260       ?DrawNetworkMarker@SPBalloonWnd@@AAEXPAG@Z 004c0260 f   sp_balloon.obj
 0001:000bf4f0       ?DrawNetworkMarkerRegion@SPBalloonWnd@@AAE_NPAX@Z 004c04f0 f   sp_balloon.obj
 0001:000bf530       ?DrawProgressMsg@SPBalloonWnd@@AAEXXZ 004c0530 f   sp_balloon.obj
 0001:000bf730       ?SetProgress@SPBalloonWnd@@QAEXPBGHH@Z 004c0730 f   sp_balloon.obj
 0001:000bf920       ?SaveProgressState@SPBalloonWnd@@QAEXAAVSPBalloonWndProgressState@@@Z 004c0920 f   sp_balloon.obj
 0001:000bf950       ?RestoreProgressState@SPBalloonWnd@@QAEXABVSPBalloonWndProgressState@@@Z 004c0950 f   sp_balloon.obj
 0001:000bf970       ?SetMarker@SPBalloonWnd@@QAEHPAG@Z 004c0970 f   sp_balloon.obj
 0001:000bf9b0       ?GetSelectString@SPBalloonWnd@@QAEXPAVSPBalloonString@@AAVJWString@@@Z 004c09b0 f   sp_balloon.obj
 0001:000bf9f0       ?FindFirstAndLastChoice@SPBalloonWnd@@AAEXKAAK0@Z 004c09f0 f   sp_balloon.obj
 0001:000bfa90       ?GetSelectString@SPBalloonWnd@@QAEXKAAVJWString@@@Z 004c0a90 f   sp_balloon.obj
 0001:000bfbc0       ?GetSelectRect@SPBalloonWnd@@QAEXKAAUtagRECT@@@Z 004c0bc0 f   sp_balloon.obj
 0001:000bfd80       ?FindNearChoiceStringRect@SPBalloonWnd@@QAE_NKABVJRect@@JAAV2@@Z 004c0d80 f   sp_balloon.obj
 0001:000c0080       ?FindChoiceIDFromString@SPBalloonWnd@@QAEJPBG@Z 004c1080 f   sp_balloon.obj
 0001:000c0200       ?EnumChoiceText@SPBalloonWnd@@QAE_NP6A_NPBGPAX@Z1@Z 004c1200 f   sp_balloon.obj
 0001:000c0380       ?IsChoiceTextExist@SPBalloonWnd@@QAE_NXZ 004c1380 f   sp_balloon.obj
 0001:000c0420       ?SelectEvent@SPBalloonWnd@@QAE_NPBGJ@Z 004c1420 f   sp_balloon.obj
 0001:000c05c0       ?SelectEvent@SPBalloonWnd@@QAE_NAAVSPShioriEvent@@PBGJAAVSPStaticStringArrayW@@AAVJWString@@3@Z 004c15c0 f   sp_balloon.obj
 0001:000c0950       ?SelectLine@SPBalloonWnd@@QAEJJJ@Z 004c1950 f   sp_balloon.obj
 0001:000c09c0       ?SelectLineAndGet@SPBalloonWnd@@QAEPAVSPBalloonString@@JJAAJ@Z 004c19c0 f   sp_balloon.obj
 0001:000c0a60       ?SelectLineInternal@SPBalloonWnd@@AAEJJJ@Z 004c1a60 f   sp_balloon.obj
 0001:000c0c00       ?StartForceDisplay@SPBalloonWnd@@QAEXXZ 004c1c00 f   sp_balloon.obj
 0001:000c0c10       ?EndForceDisplay@SPBalloonWnd@@QAEXXZ 004c1c10 f   sp_balloon.obj
 0001:000c0c20       ?IsShouldVisible@SPBalloonWnd@@QAE_NXZ 004c1c20 f   sp_balloon.obj
 0001:000c0c60       ?IsShouldRedraw@SPBalloonWnd@@QAE_NXZ 004c1c60 f   sp_balloon.obj
 0001:000c0c90       ?StartOnline@SPBalloonWnd@@QAEX_N@Z 004c1c90 f   sp_balloon.obj
 0001:000c0ce0       ?GetIntervalTimerCalc@SPBalloonWnd@@SAHH@Z 004c1ce0 f   sp_balloon.obj
 0001:000c0d00       ?ResetOnlineTimer@SPBalloonWnd@@QAEXXZ 004c1d00 f   sp_balloon.obj
 0001:000c0d60       ?ProcessOnline@SPBalloonWnd@@QAEXXZ 004c1d60 f   sp_balloon.obj
 0001:000c0e70       ?DrawOnline@SPBalloonWnd@@AAEXXZ 004c1e70 f   sp_balloon.obj
 0001:000c12d0       ?DrawOnlineRegion@SPBalloonWnd@@AAE_NPAX@Z 004c22d0 f   sp_balloon.obj
 0001:000c1430       ?EndOnline@SPBalloonWnd@@QAEXXZ 004c2430 f   sp_balloon.obj
 0001:000c14c0       ?StartWaiting@SPBalloonWnd@@QAEXJ_N@Z 004c24c0 f   sp_balloon.obj
 0001:000c1590       ?DoWaiting@SPBalloonWnd@@QAEX_N@Z 004c2590 f   sp_balloon.obj
 0001:000c18a0       ?EndWaiting@SPBalloonWnd@@QAEXXZ 004c28a0 f   sp_balloon.obj
 0001:000c18b0       ?DisableTimeoutTimer@SPBalloonWnd@@QAEXXZ 004c28b0 f   sp_balloon.obj
 0001:000c18e0       ?WaitUserInput@SPBalloonWnd@@QAEXXZ 004c28e0 f   sp_balloon.obj
 0001:000c19b0       ?OnUserInput@SPBalloonWnd@@QAEXXZ 004c29b0 f   sp_balloon.obj
 0001:000c19e0       ?ClearImageArray@SPBalloonWnd@@QAEXXZ 004c29e0 f   sp_balloon.obj
 0001:000c1a60       ?AddImage@SPBalloonWnd@@QAEHPBGH0@Z 004c2a60 f   sp_balloon.obj
 0001:000c2320       ??1SPSurfaceManagerStateSave@@QAE@XZ 004c3320 f i sp_balloon.obj
 0001:000c2330       ?AdjustScrollPos@SPBalloonWnd@@AAEXPAVSPBalloonString@@@Z 004c3330 f   sp_balloon.obj
 0001:000c23b0       ?SetOffsetString@SPBalloonWnd@@QAEHPBGH@Z 004c33b0 f   sp_balloon.obj
 0001:000c2960       ?LineFeed@SPBalloonWnd@@QAEXHH@Z 004c3960 f   sp_balloon.obj
 0001:000c2990       ?LineFeedExt@SPBalloonWnd@@QAEXHH@Z 004c3990 f   sp_balloon.obj
 0001:000c29c0       ?LineFeedProcessor@SPBalloonWnd@@AAEXXZ 004c39c0 f   sp_balloon.obj
 0001:000c2cb0       ?ParseFontCommand@SPBalloonWnd@@QAEHPBGH@Z 004c3cb0 f   sp_balloon.obj
 0001:000c4ff0       ?GetAlign@SPBalloonWnd@@QAEHXZ 004c5ff0 f   sp_balloon.obj
 0001:000c5020       ?SASetWindowPos@SPBalloonWnd@@AAE_NPAUtagPOINT@@0@Z 004c6020 f   sp_balloon.obj
 0001:000c5360       ?SAUpdateLayeredWindowAlpha@SPBalloonWnd@@AAEHPAVJSurface@@@Z 004c6360 f   sp_balloon.obj
 0001:000c5420       ?ScaleSurfaceAndULW@SPBalloonWnd@@AAEHXZ 004c6420 f   sp_balloon.obj
 0001:000c5470       ?Show@SPBalloonWnd@@QAE_N_N@Z 004c6470 f   sp_balloon.obj
 0001:000c5590       ?Hide@SPBalloonWnd@@QAE_N_N@Z 004c6590 f   sp_balloon.obj
 0001:000c56a0       ?IsVisible@SPBalloonWnd@@QAE_NXZ 004c66a0 f   sp_balloon.obj
 0001:000c56c0       ?ShowInternal@SPBalloonWnd@@AAEX_N@Z 004c66c0 f   sp_balloon.obj
 0001:000c5700       ?FadeProc@SPBalloonWnd@@QAEHXZ 004c6700 f   sp_balloon.obj
 0001:000c57e0       ?GetDirection@SPBalloonWnd@@QAEHXZ 004c67e0 f   sp_balloon.obj
 0001:000c5910       ?SetDirection@SPBalloonWnd@@AAEXHPAUtagPOINT@@@Z 004c6910 f   sp_balloon.obj
 0001:000c5940       ?ToggleDirection@SPBalloonWnd@@QAEXH@Z 004c6940 f   sp_balloon.obj
 0001:000c5970       ?SetDirectionStickyWindow@SPBalloonWnd@@AAEXHPAUtagPOINT@@@Z 004c6970 f   sp_balloon.obj
 0001:000c5a10       ?SetDirectionAuto@SPBalloonWnd@@QAEXPAUtagPOINT@@@Z 004c6a10 f   sp_balloon.obj
 0001:000c5a50       ?SetUserOffset@SPBalloonWnd@@QAE_NAAVJPoint@@H@Z 004c6a50 f   sp_balloon.obj
 0001:000c5b10       ?SetBalloonScale@SPBalloonWnd@@QAEX_N@Z 004c6b10 f   sp_balloon.obj
 0001:000c5c50       ??0SPBalloonRefBlock@@QAE@PAPAGK@Z 004c6c50 f   sp_balloon.obj
 0001:000c5d10       ?Clear@SPBalloonString@@QAEXXZ 004c6d10 f   sp_balloon.obj
 0001:000c5e60       ??1SPBalloonString@@QAE@XZ 004c6e60 f   sp_balloon.obj
 0001:000c5f40       ?IsJumpString@SPBalloonString@@QAEHXZ 004c6f40 f   sp_balloon.obj
 0001:000c5f70       ?GetJumpString@SPBalloonString@@QAEXAAVJWString@@@Z 004c6f70 f   sp_balloon.obj
 0001:000c6090       ?Length@SPBalloonString@@QAEKXZ 004c7090 f   sp_balloon.obj
 0001:000c60c0       ?Remove@SPBalloonString@@QAE_NJJ@Z 004c70c0 f   sp_balloon.obj
 0001:000c6100       ?IsSpaceOnly@SPBalloonString@@QAE_NXZ 004c7100 f   sp_balloon.obj
 0001:000c6150       ?SetMarkerIcon@SPBalloonString@@QAEXPAVSPBalloonWnd@@I@Z 004c7150 f   sp_balloon.obj
 0001:000c61a0       ?SetImage@SPBalloonString@@QAEXPAVSPSurface@@IABVJRect@@@Z 004c71a0 f   sp_balloon.obj
 0001:000c61f0       ?ProcessMaxHeight@SPBalloonString@@QAEXPAVSPBalloonWnd@@@Z 004c71f0 f   sp_balloon.obj
 0001:000c6230       ?GetFont@SPBalloonString@@QAEPBVSPBalloonFontProp@@PAVSPBalloonWnd@@@Z 004c7230 f   sp_balloon.obj
 0001:000c6250       ?GetID@SPBalloonString@@QAEXAAVJString@@@Z 004c7250 f   sp_balloon.obj
 0001:000c63c0       ?GetHeight@SPBalloonString@@QAEJPAVSPBalloonWnd@@@Z 004c73c0 f   sp_balloon.obj
 0001:000c6410       ?GetRealHeight@SPBalloonString@@QAEJPAVSPBalloonWnd@@@Z 004c7410 f   sp_balloon.obj
 0001:000c6480       ?Release@?$JHash@G@@QAEXXZ 004c7480 f i sp_balloon.obj
 0001:000c6480       ??1?$JHash@G@@QAE@XZ       004c7480 f i sp_balloon.obj
 0001:000c6510       ??0?$JPtrArray@PAVSPBalloonDesc@@@@QAE@J@Z 004c7510 f i sp_balloon.obj
 0001:000c6570       ??1?$SPSparsePtrArray@PAVSPBalloonDescHolder@@@@QAE@XZ 004c7570 f i sp_balloon.obj
 0001:000c65a0       ?SetNum@?$JArray@E@@QAEXK@Z 004c75a0 f i sp_balloon.obj
 0001:000c65a0       ?SetNum@?$JArray@D@@QAEXK@Z 004c75a0 f i sp_balloon.obj
 0001:000c65a0       ?SetNum@?$JArray@C@@QAEXK@Z 004c75a0 f i sp_balloon.obj
 0001:000c65f0       ??1?$SPCacheObj@VSPBalloonString@@VJDummyLockSection@@VJDummyLock@@@@QAE@XZ 004c75f0 f i sp_balloon.obj
 0001:000c66c0       ?Release@?$SPCacheObj@VSPBalloonString@@VJDummyLockSection@@VJDummyLock@@@@QAEXXZ 004c76c0 f i sp_balloon.obj
 0001:000c6780       ??0?$JPtrArray@PAVSPBalloonString@@@@QAE@J@Z 004c7780 f i sp_balloon.obj
 0001:000c67e0       ??1?$SPCacheObj@VSPBalloonFontProp@@VJDummyLockSection@@VJDummyLock@@@@QAE@XZ 004c77e0 f i sp_balloon.obj
 0001:000c68c0       ??0?$JPtrArray@PAVSPBalloonFontProp@@@@QAE@J@Z 004c78c0 f i sp_balloon.obj
 0001:000c6920       ??_ESPBalloonFontProp@@UAEPAXI@Z 004c7920 f i sp_balloon.obj
 0001:000c6980       ?DeleteLast@?$JArray@PAX@@QAEXK@Z 004c7980 f i sp_balloon.obj
 0001:000c69d0       ?SetNumNoPurge@?$JArray@C@@QAEXK_N@Z 004c79d0 f i sp_balloon.obj
 0001:000c69d0       ?SetNumNoPurge@?$JArray@E@@QAEXK_N@Z 004c79d0 f i sp_balloon.obj
 0001:000c69d0       ?SetNumNoPurge@?$JArray@D@@QAEXK_N@Z 004c79d0 f i sp_balloon.obj
 0001:000c6a30       ?Release@?$SPCacheObj@VSPBalloonFontProp@@VJDummyLockSection@@VJDummyLock@@@@QAEXXZ 004c7a30 f i sp_balloon.obj
 0001:000c6ad0       ?DeleteArray@?$SPCacheObj@VSPBalloonFontProp@@VJDummyLockSection@@VJDummyLock@@@@QAEXPAPAVSPBalloonFontProp@@K@Z 004c7ad0 f i sp_balloon.obj
 0001:000c6c10       ??1?$SPSparsePtrArrayDef@PAVSPBalloonDescHolder@@@@QAE@XZ 004c7c10 f i sp_balloon.obj
 0001:000c6cf0       ?Add@?$SPSparsePtrArrayDef@PAVSPBalloonDescHolder@@@@QAEAAPAVSPBalloonDescHolder@@K@Z 004c7cf0 f i sp_balloon.obj
 0001:000c6e20       ??_G?$JHashData@G@@QAEPAXI@Z 004c7e20 f i sp_balloon.obj
 0001:000c6e70       ?Last@?$JArray@PAX@@QAEAAPAXXZ 004c7e70 f i sp_balloon.obj
 0001:000c6e90       ?Realloc@?$JArray@E@@QAE_NK@Z 004c7e90 f i sp_balloon.obj
 0001:000c6e90       ?Realloc@?$JArray@D@@QAE_NK@Z 004c7e90 f i sp_balloon.obj
 0001:000c6e90       ?Realloc@?$JArray@C@@QAE_NK@Z 004c7e90 f i sp_balloon.obj
 0001:000c6f50       ??_ESPBalloonDesc@@W3AEPAXI@Z 004c7f50 f i sp_balloon.obj
 0001:000c6f60       ??_ESPBalloonWnd@@W7AEPAXI@Z 004c7f60 f i sp_balloon.obj
 0001:000c6f70       ??_ESPBalloon@@W3AEPAXI@Z  004c7f70 f i sp_balloon.obj
 0001:000c6f80       ?CheckFontDifferent@SPBalloonFontProp@@ABE_NABV1@@Z 004c7f80 f   sp_balloonfontprop.obj
 0001:000c6ff0       ??4SPBalloonFontProp@@QAEAAV0@ABV0@@Z 004c7ff0 f   sp_balloonfontprop.obj
 0001:000c7230       ??4SPColor@@QAEAAV0@ABV0@@Z 004c8230 f i sp_balloonfontprop.obj
 0001:000c7250       ??4SPBalloonFontPropMask@@QAEAAV0@ABV0@@Z 004c8250 f i sp_balloonfontprop.obj
 0001:000c72a0       ??9SPBalloonFontProp@@QBE_NABV0@@Z 004c82a0 f   sp_balloonfontprop.obj
 0001:000c75e0       ??0SPBalloonFontProp@@QAE@XZ 004c85e0 f   sp_balloonfontprop.obj
 0001:000c7790       ?ResetFontResource@SPBalloonFontProp@@QAEXXZ 004c8790 f   sp_balloonfontprop.obj
 0001:000c77b0       ??1SPBalloonFontProp@@UAE@XZ 004c87b0 f   sp_balloonfontprop.obj
 0001:000c77d0       ?Clear@SPBalloonFontProp@@QAEXXZ 004c87d0 f   sp_balloonfontprop.obj
 0001:000c7890       ?SetDefault@SPBalloonFontProp@@QAEXXZ 004c8890 f   sp_balloonfontprop.obj
 0001:000c7920       ?ProcessDescript@SPBalloonFontProp@@QAE_N_NAAVJTokenStream@@PBDHPBG@Z 004c8920 f   sp_balloonfontprop.obj
 0001:000c7960       ?ProcessDescriptReal@SPBalloonFontProp@@AAE_N_NAAVJTokenStream@@PBDHPBG@Z 004c8960 f   sp_balloonfontprop.obj
 0001:000c80f0       ?GetFontFaceRaw@SPBalloonFontProp@@QBEPBGXZ 004c90f0 f   sp_balloonfontprop.obj
 0001:000c8110       ?GetFontSizeRaw@SPBalloonFontProp@@QBEHXZ 004c9110 f   sp_balloonfontprop.obj
 0001:000c8130       ?GetFontFace@SPBalloonFontProp@@QBEPBGXZ 004c9130 f   sp_balloonfontprop.obj
 0001:000c8190       ?GetFontSize@SPBalloonFontProp@@QBEHXZ 004c9190 f   sp_balloonfontprop.obj
 0001:000c81f0       ?SetFontSize@SPBalloonFontProp@@QAEXH@Z 004c91f0 f   sp_balloonfontprop.obj
 0001:000c8220       ?SetFontFace@SPBalloonFontProp@@QAEXPBG@Z 004c9220 f   sp_balloonfontprop.obj
 0001:000c8370       ?InitLogFont@SPBalloonFontProp@@SAXAAUtagLOGFONTW@@PBG@Z 004c9370 f   sp_balloonfontprop.obj
 0001:000c83a0       ?GetFont@SPBalloonFontProp@@QBEPAXXZ 004c93a0 f   sp_balloonfontprop.obj
 0001:000c8460       ?GetCalcFontWidth@SPBalloonFontProp@@QBEHPAX@Z 004c9460 f   sp_balloonfontprop.obj
 0001:000c84e0       ?GetAnchorPenColor@SPBalloonFontProp@@QBEXAAVSPColor@@PAPBVSPBalloonFontPropMask@@@Z 004c94e0 f   sp_balloonfontprop.obj
 0001:000c8550       ?GetAnchorNotselectPenColor@SPBalloonFontProp@@QBEXAAVSPColor@@PAPBVSPBalloonFontPropMask@@@Z 004c9550 f   sp_balloonfontprop.obj
 0001:000c85c0       ?GetAnchorVisitedPenColor@SPBalloonFontProp@@QBEXAAVSPColor@@PAPBVSPBalloonFontPropMask@@@Z 004c95c0 f   sp_balloonfontprop.obj
 0001:000c8630       ?GetCursorPenColor@SPBalloonFontProp@@QBEXAAVSPColor@@PAPBVSPBalloonFontPropMask@@@Z 004c9630 f   sp_balloonfontprop.obj
 0001:000c86b0       ?Release@SPBindProp@@QAEXXZ 004c96b0 f   sp_bind.obj
 0001:000c8810       ??1SPBindGroup@@QAE@XZ     004c9810 f i sp_bind.obj
 0001:000c8880       ?Load@SPBindProp@@QAEXPAG@Z 004c9880 f   sp_bind.obj
 0001:000c8990       ?Save@SPBindProp@@QAEXAAVJWString@@@Z 004c9990 f   sp_bind.obj
 0001:000c8a70       ?GetFromEnableID@SPBindProp@@QAEPAVSPBindEntry@@H@Z 004c9a70 f   sp_bind.obj
 0001:000c8ae0       ?GetFromFirstID@SPBindProp@@QAEPAVSPBindEntry@@H@Z 004c9ae0 f   sp_bind.obj
 0001:000c8b20       ?GetFromMenuID@SPBindProp@@QAEPAVSPBindEntry@@H@Z 004c9b20 f   sp_bind.obj
 0001:000c8b50       ?GetFromUniqueID@SPBindProp@@QAEPAVSPBindEntry@@J@Z 004c9b50 f   sp_bind.obj
 0001:000c8b80       ?GetFromName@SPBindProp@@QAEPAVSPBindEntry@@PBG0@Z 004c9b80 f   sp_bind.obj
 0001:000c8bf0       ?GetGroupFromName@SPBindProp@@QAEPAVSPBindGroup@@PBG@Z 004c9bf0 f   sp_bind.obj
 0001:000c8c40       ?NewGroupFromName@SPBindProp@@QAEPAVSPBindGroup@@PBG@Z 004c9c40 f   sp_bind.obj
 0001:000c8e10       ?GetMenuIndexFromDefID@SPBindProp@@QAEHH@Z 004c9e10 f   sp_bind.obj
 0001:000c8e50       ?GetMenuIndexFromBindID@SPBindProp@@QAEHH@Z 004c9e50 f   sp_bind.obj
 0001:000c8e90       ?GetMenuGroupIndexFromDefID@SPBindProp@@QAEHH@Z 004c9e90 f   sp_bind.obj
 0001:000c8ed0       ?GetMenuGroupIndexFromName@SPBindProp@@QAEHPBG@Z 004c9ed0 f   sp_bind.obj
 0001:000c8f30       ?GetMenuIndexFromGroupDefID@SPBindProp@@QAEHH@Z 004c9f30 f   sp_bind.obj
 0001:000c8f70       ?ParseEntry@SPBindProp@@QAEHPAVSPGhost@@PADPAG@Z 004c9f70 f   sp_bind.obj
 0001:000c9ab0       ?PreserveEnableState@SPBindProp@@QAEXXZ 004caab0 f   sp_bind.obj
 0001:000c9ae0       ?CheckPreservedEnableState@SPBindProp@@QAE_NAAV?$JPtrArray@PAVSPBindEntry@@@@@Z 004caae0 f   sp_bind.obj
 0001:000c9bb0       ?CheckEntry@SPBindProp@@QAEJPAVSPGhost@@PAV?$JArray@J@@@Z 004cabb0 f   sp_bind.obj
 0001:000ca1a0       ?ValidateEntryFlag@SPBindProp@@QAEXXZ 004cb1a0 f   sp_bind.obj
 0001:000ca1d0       ?AddUniqueIDToArray@SPBindProp@@QAEXAAV?$JArray@J@@@Z 004cb1d0 f   sp_bind.obj
 0001:000ca360       ?MakeOtherPropIDArray@SPBindProp@@QAEXAAV?$JArray@J@@@Z 004cb360 f   sp_bind.obj
 0001:000ca4c0       ?GetUniqueID@SPBindProp@@QAEJXZ 004cb4c0 f   sp_bind.obj
 0001:000ca4f0       ?GetThumbnail@SPBindEntry@@QAEPBGPAVSPGhost@@@Z 004cb4f0 f   sp_bind.obj
 0001:000ca6e0       ?GetNotifyEntry@SPBindEntry@@QAEPAGKPAVSPGhost@@@Z 004cb6e0 f   sp_bind.obj
 0001:000ca9b0       ?Add@JWString@@QAEXG@Z     004cb9b0 f i sp_bind.obj
 0001:000cab10       ?Release@SPBindGroup@@QAEXXZ 004cbb10 f   sp_bind.obj
 0001:000cab50       ?Find@SPBindGroup@@QAEJPAVSPBindEntry@@@Z 004cbb50 f   sp_bind.obj
 0001:000cab80       ?SetOption@SPBindGroup@@QAEXPBG@Z 004cbb80 f   sp_bind.obj
 0001:000cabd0       ?IsEnabled@SPBindGroup@@QBE_NKK@Z 004cbbd0 f   sp_bind.obj
 0001:000cac30       ?ValidateEntryFlag@SPBindGroup@@QAEXXZ 004cbc30 f   sp_bind.obj
 0001:000caca0       ?IsMultiple@SPBindGroup@@QAE_NXZ 004cbca0 f   sp_bind.obj
 0001:000cacb0       ?GetIconIndex@SPBindGroup@@QAEHXZ 004cbcb0 f   sp_bind.obj
 0001:000cace0       ?DisableAllEntry@SPBindGroup@@QAEXPAVSPBindEntry@@@Z 004cbce0 f   sp_bind.obj
 0001:000cad10       ??1SPBindEntry@@QAE@XZ     004cbd10 f i sp_bind.obj
 0001:000cad90       ??1SPBindMenuGroupItemInfo@@QAE@XZ 004cbd90 f i sp_bind.obj
 0001:000cad90       ??1JLibJPEG@@QAE@XZ        004cbd90 f i sp_bind.obj
 0001:000cada0       ?SetNumNoPurge@?$JArray@VSPBindMenuItemInfo@@@@QAEXK_N@Z 004cbda0 f i sp_bind.obj
 0001:000cae00       ?Realloc@?$JArray@VSPBindMenuItemInfo@@@@QAE_NK@Z 004cbe00 f i sp_bind.obj
 0001:000caee0       ?_Stable_sort@std@@YAXPAPAVSPBindEntry@@0PAH0U?$JArray_PredConverter@PAVSPBindEntry@@P6AHPBV1@0PAX@Z@@@Z 004cbee0 f i sp_bind.obj
 0001:000cb0e0       ??1?$_Temp_iterator@PAVSPBindEntry@@@std@@QAE@XZ 004cc0e0 f i sp_bind.obj
 0001:000cb0e0       ??1?$_Temp_iterator@PAVSPHeadlineRSSElement@@@std@@QAE@XZ 004cc0e0 f i sp_bind.obj
 0001:000cb100       ?_Stable_sort@std@@YAXPAPAVSPBindEntry@@0HAAV?$_Temp_iterator@PAVSPBindEntry@@@1@U?$JArray_PredConverter@PAVSPBindEntry@@P6AHPBV1@0PAX@Z@@@Z 004cc100 f i sp_bind.obj
 0001:000cb450       ?_Buffered_merge_sort@std@@YAXPAPAVSPBindEntry@@0HAAV?$_Temp_iterator@PAVSPBindEntry@@@1@U?$JArray_PredConverter@PAVSPBindEntry@@P6AHPBV1@0PAX@Z@@@Z 004cc450 f i sp_bind.obj
 0001:000cb6d0       ?_Buffered_merge@std@@YAXPAPAVSPBindEntry@@00HHAAV?$_Temp_iterator@PAVSPBindEntry@@@1@U?$JArray_PredConverter@PAVSPBindEntry@@P6AHPBV1@0PAX@Z@@@Z 004cc6d0 f i sp_bind.obj
 0001:000cbad0       ??R?$JArray_PredConverter@PAVSPScheduleEntry@@P6AHPAV1@0PAX@Z@@QBE_NABQAVSPScheduleEntry@@0@Z 004ccad0 f i sp_bind.obj
 0001:000cbad0       ??R?$JArray_PredConverter@PAVSPBindEntry@@P6AHPBV1@0PAX@Z@@QBE_NABQAVSPBindEntry@@0@Z 004ccad0 f i sp_bind.obj
 0001:000cbb00       ?_Init@?$_Temp_iterator@PAVSPBindEntry@@@std@@QAEAAV12@XZ 004ccb00 f i sp_bind.obj
 0001:000cbb00       ?_Init@?$_Temp_iterator@PAVSPHeadlineRSSElement@@@std@@QAEAAV12@XZ 004ccb00 f i sp_bind.obj
 0001:000cbb10       ?copy@std@@YA?AV?$_Temp_iterator@PAVSPHeadlineRSSElement@@@1@PAPAVSPHeadlineRSSElement@@0V21@@Z 004ccb10 f i sp_bind.obj
 0001:000cbb10       ?copy@std@@YA?AV?$_Temp_iterator@PAVSPBindEntry@@@1@PAPAVSPBindEntry@@0V21@@Z 004ccb10 f i sp_bind.obj
 0001:000cbb90       ?_Insertion_sort_1@std@@YAXPAPAVSPBindEntry@@0U?$JArray_PredConverter@PAVSPBindEntry@@P6AHPBV1@0PAX@Z@@0@Z 004ccb90 f i sp_bind.obj
 0001:000cbc30       ?_Chunked_merge@std@@YAXPAPAVSPBindEntry@@0AAV?$_Temp_iterator@PAVSPBindEntry@@@1@HHU?$JArray_PredConverter@PAVSPBindEntry@@P6AHPBV1@0PAX@Z@@@Z 004ccc30 f i sp_bind.obj
 0001:000cbd40       ?_Chunked_merge@std@@YAXPAPAVSPBindEntry@@0AAPAPAV2@HHU?$JArray_PredConverter@PAVSPBindEntry@@P6AHPBV1@0PAX@Z@@@Z 004ccd40 f i sp_bind.obj
 0001:000cbeb0       ?merge@std@@YAPAPAVSPBindEntry@@PAPAV2@0000U?$JArray_PredConverter@PAVSPBindEntry@@P6AHPBV1@0PAX@Z@@@Z 004cceb0 f i sp_bind.obj
 0001:000cbf40       ?copy@std@@YAPAPAVSPBindEntry@@PAPAV2@00@Z 004ccf40 f i sp_bind.obj
 0001:000cbf40       ?copy@std@@YAPAPAVSPHeadlineRSSElement@@PAPAV2@00@Z 004ccf40 f i sp_bind.obj
 0001:000cbf70       ?_Unguarded_insert@std@@YAXPAPAVSPBindEntry@@PAV2@U?$JArray_PredConverter@PAVSPBindEntry@@P6AHPBV1@0PAX@Z@@@Z 004ccf70 f i sp_bind.obj
 0001:000cbfc0       ?merge@std@@YA?AV?$_Temp_iterator@PAVSPBindEntry@@@1@PAPAVSPBindEntry@@000V21@U?$JArray_PredConverter@PAVSPBindEntry@@P6AHPBV1@0PAX@Z@@@Z 004ccfc0 f i sp_bind.obj
 0001:000cc0e0       ?_Lower_bound@std@@YAPAPAVSPBindEntry@@PAPAV2@0ABQAV2@U?$JArray_PredConverter@PAVSPBindEntry@@P6AHPBV1@0PAX@Z@@PAH@Z 004cd0e0 f i sp_bind.obj
 0001:000cc140       ?Release@SPCalendarIcon@@QAEXXZ 004cd140 f   sp_calendar.obj
 0001:000cc200       ?Load@SPCalendarIcon@@QAEHPBG@Z 004cd200 f   sp_calendar.obj
 0001:000cc5d0       ?Create@SPSurface@@QAE?AVSPCreateSurfaceResult@@AAVJWString@@_N11@Z 004cd5d0 f i sp_calendar.obj
 0001:000cc600       ?GetSurface@SPCalendarIcon@@QAEPAVSPSurface@@PAD@Z 004cd600 f   sp_calendar.obj
 0001:000cc650       ??0SPCalendarDesc@@QAE@XZ  004cd650 f   sp_calendar.obj
 0001:000cc840       ?Release@SPCalendarDesc@@QAEXXZ 004cd840 f   sp_calendar.obj
 0001:000cc8c0       ?Init@SPCalendarDesc@@QAEXXZ 004cd8c0 f   sp_calendar.obj
 0001:000cca10       ?LoadDescript@SPCalendarDesc@@QAEHPBG@Z 004cda10 f   sp_calendar.obj
 0001:000cd6e0       ??4SPCalendarDesc@@QAEAAV0@AAV0@@Z 004ce6e0 f   sp_calendar.obj
 0001:000cda00       ?PlayTodaysEvent@SPCalendarCell@@QAEHXZ 004cea00 f   sp_calendar.obj
 0001:000cde00       ??0SPCalendar@@QAE@XZ      004cee00 f   sp_calendar.obj
 0001:000ce0a0       ??1SPSchedule@@QAE@XZ      004cf0a0 f i sp_calendar.obj
 0001:000ce110       ??1SPCalendarProperty@@QAE@XZ 004cf110 f i sp_calendar.obj
 0001:000ce190       ??0SPCalendarCell@@QAE@XZ  004cf190 f i sp_calendar.obj
 0001:000ce220       ??1SPCalendarCell@@QAE@XZ  004cf220 f i sp_calendar.obj
 0001:000ce280       ??1SPCalendar@@QAE@XZ      004cf280 f   sp_calendar.obj
 0001:000ce500       ??1SPCalendarDesc@@QAE@XZ  004cf500 f i sp_calendar.obj
 0001:000ce5e0       ?Release@SPCalendar@@QAEXXZ 004cf5e0 f   sp_calendar.obj
 0001:000ce5f0       ?ReleaseSurface@SPCalendar@@QAEXXZ 004cf5f0 f   sp_calendar.obj
 0001:000ce680       ?Init@SPCalendar@@QAEHXZ   004cf680 f   sp_calendar.obj
 0001:000cea80       ?SetMonth@SPCalendar@@QAEHHHH@Z 004cfa80 f   sp_calendar.obj
 0001:000ceac0       ?IsInMoveMonthRect@SPCalendar@@QAEHAAUtagPOINT@@H@Z 004cfac0 f   sp_calendar.obj
 0001:000ceb30       ?MoveMonth@SPCalendar@@QAEHH@Z 004cfb30 f   sp_calendar.obj
 0001:000cebc0       ?SetToday@SPCalendar@@QAEHXZ 004cfbc0 f   sp_calendar.obj
 0001:000cebf0       ?InitCell@SPCalendar@@IAEXXZ 004cfbf0 f   sp_calendar.obj
 0001:000cf190       ?GetToday@SPCalendar@@IAEXXZ 004d0190 f   sp_calendar.obj
 0001:000cf1e0       ?CreateCalendar@SPCalendar@@QAEHXZ 004d01e0 f   sp_calendar.obj
 0001:000d03d0       ??0SPSurface@@QAE@XZ       004d13d0 f i sp_calendar.obj
 0001:000d0440       ?DrawBackBuffer@SPCalendar@@QAEHXZ 004d1440 f   sp_calendar.obj
 0001:000d0720       ?DrawCell@SPCalendar@@IAEHHH@Z 004d1720 f   sp_calendar.obj
 0001:000d0920       ?DeleteCurrentCell@SPCalendar@@QAEXXZ 004d1920 f   sp_calendar.obj
 0001:000d09b0       ?DeleteYear@SPCalendar@@QAEXH@Z 004d19b0 f   sp_calendar.obj
 0001:000d09e0       ?DeleteMonth@SPCalendar@@QAEXHH@Z 004d19e0 f   sp_calendar.obj
 0001:000d0af0       ?LoadSchedule@SPCalendar@@QAEHXZ 004d1af0 f   sp_calendar.obj
 0001:000d0d10       ?SelectCell@SPCalendar@@QAEHHH@Z 004d1d10 f   sp_calendar.obj
 0001:000d0e10       ?MoveCell@SPCalendar@@QAEHHH@Z 004d1e10 f   sp_calendar.obj
 0001:000d0ea0       ?GetCell@SPCalendar@@QAEPAVSPCalendarCell@@HH@Z 004d1ea0 f   sp_calendar.obj
 0001:000d0f80       ?GetIconCell@SPCalendar@@QAEHPAVSPCalendarCell@@HH@Z 004d1f80 f   sp_calendar.obj
 0001:000d1030       ?Present@SPCalendar@@QAEHXZ 004d2030 f   sp_calendar.obj
 0001:000d1140       ?UpdateCalendar@SPCalendar@@QAEXXZ 004d2140 f   sp_calendar.obj
 0001:000d1160       ?NotifyTodaySchedule@SPCalendar@@QAE_NPAVSPGhost@@@Z 004d2160 f   sp_calendar.obj
 0001:000d1400       ?GetTodaySchedule@SPCalendar@@QAE_N_N@Z 004d2400 f   sp_calendar.obj
 0001:000d15f0       ?CheckSchedule@SPCalendar@@QAEHPAVSPGhost@@HH@Z 004d25f0 f   sp_calendar.obj
 0001:000d1920       ?PlayScheduleEntry@SPCalendar@@QAEHPAVSPScheduleEntry@@@Z 004d2920 f   sp_calendar.obj
 0001:000d1b30       ?PlayTodaysSchedule@SPCalendar@@QAEHXZ 004d2b30 f   sp_calendar.obj
 0001:000d1d50       ??0?$JPtrArray@PAVSPSurface@@@@QAE@J@Z 004d2d50 f i sp_calendar.obj
 0001:000d1db0       ??1SPCalendarIconEntry@@QAE@XZ 004d2db0 f i sp_calendar.obj
 0001:000d1e00       ?SetNum@?$JArray@VJRect@@@@QAEXK@Z 004d2e00 f i sp_calendar.obj
 0001:000d1e50       ??0SPCalendarProperty@@QAE@XZ 004d2e50 f   sp_calprop.obj
 0001:000d1ef0       ?Release@SPCalendarProperty@@QAEXXZ 004d2ef0 f   sp_calprop.obj
 0001:000d1f90       ?EnumSkins@SPCalendarProperty@@QAEHXZ 004d2f90 f   sp_calprop.obj
 0001:000d2150       ??1SPFolderList@@QAE@XZ    004d3150 f i sp_calprop.obj
 0001:000d2240       ?LoadSkinInfo@SPCalendarProperty@@IAEHPAVSPFolderListData@@@Z 004d3240 f   sp_calprop.obj
 0001:000d2540       ?RefAdd@SPRefCount@@UAEKXZ 004d3540 f i sp_calprop.obj
 0001:000d2570       ?RefRelease@SPRefCount@@UAEKXZ 004d3570 f i sp_calprop.obj
 0001:000d25b0       ??0SPProp@@QAE@XZ          004d35b0 f i sp_calprop.obj
 0001:000d27b0       ??1SPRefCount@@MAE@XZ      004d37b0 f i sp_calprop.obj
 0001:000d27c0       ??_ESPRefCount@@MAEPAXI@Z  004d37c0 f i sp_calprop.obj
 0001:000d27c0       ??_GSPRefCount@@MAEPAXI@Z  004d37c0 f i sp_calprop.obj
 0001:000d27f0       ??_GSPProp@@MAEPAXI@Z      004d37f0 f i sp_calprop.obj
 0001:000d27f0       ??_ESPProp@@MAEPAXI@Z      004d37f0 f i sp_calprop.obj
 0001:000d2820       ??1SPProp@@MAE@XZ          004d3820 f i sp_calprop.obj
 0001:000d2910       ?GetTypeString@SPCalendarSkinProp@@UAEPBGXZ 004d3910 f i sp_calprop.obj
 0001:000d2920       ??_ESPCalendarSkinProp@@MAEPAXI@Z 004d3920 f i sp_calprop.obj
 0001:000d2920       ??_GSPCalendarSkinProp@@MAEPAXI@Z 004d3920 f i sp_calprop.obj
 0001:000d2950       ??1SPCalendarSkinProp@@MAE@XZ 004d3950 f i sp_calprop.obj
 0001:000d2a40       ?EnumSensors@SPCalendarProperty@@QAEHXZ 004d3a40 f   sp_calprop.obj
 0001:000d2c00       ?LoadSensorInfo@SPCalendarProperty@@IAEHPAVSPFolderListData@@@Z 004d3c00 f   sp_calprop.obj
 0001:000d2fc0       ??_GSPScheduleSensorProp@@MAEPAXI@Z 004d3fc0 f i sp_calprop.obj
 0001:000d2fc0       ??_ESPScheduleSensorProp@@MAEPAXI@Z 004d3fc0 f i sp_calprop.obj
 0001:000d2ff0       ??1SPScheduleSensorProp@@MAE@XZ 004d3ff0 f i sp_calprop.obj
 0001:000d3100       ?SetSkin@SPCalendarProperty@@QAEHJ@Z 004d4100 f   sp_calprop.obj
 0001:000d3150       ?SetSkin@SPCalendarProperty@@QAEHPBG@Z 004d4150 f   sp_calprop.obj
 0001:000d3190       ?FindSkinIDFromPath@SPCalendarProperty@@QAEHPBG@Z 004d4190 f   sp_calprop.obj
 0001:000d32c0       ?FindSkinIDFromRelativePath@SPCalendarProperty@@QAEHPBG@Z 004d42c0 f   sp_calprop.obj
 0001:000d33e0       ??0?$JPtrArray@PAVJWString@@@@QAE@J@Z 004d43e0 f i sp_calprop.obj
 0001:000d3440       ??_ESPProp@@O3AEPAXI@Z     004d4440 f i sp_calprop.obj
 0001:000d3450       ??_ESPCalendarSkinProp@@O3AEPAXI@Z 004d4450 f i sp_calprop.obj
 0001:000d3460       ??_ESPScheduleSensorProp@@O3AEPAXI@Z 004d4460 f i sp_calprop.obj
 0001:000d3470       ?SPGetCharcodeReference@@YAGPAG@Z 004d4470 f   sp_char.obj
 0001:000d34d0       ?GetSPCharsetDetect@@YAAAVSPCharsetDetect@@XZ 004d44d0 f   sp_charsetdetect.obj
 0001:000d3560       ??0SPCharsetDetect@@AAE@XZ 004d4560 f   sp_charsetdetect.obj
 0001:000d3600       ??_ESPCharsetDetect@@UAEPAXI@Z 004d4600 f i sp_charsetdetect.obj
 0001:000d3600       ??_GSPCharsetDetect@@UAEPAXI@Z 004d4600 f i sp_charsetdetect.obj
 0001:000d3630       ??1SPCharsetDetect@@UAE@XZ 004d4630 f   sp_charsetdetect.obj
 0001:000d36b0       ?DetectInputCodepageAPI@SPCharsetDetect@@QAEHPBDJPBH@Z 004d46b0 f   sp_charsetdetect.obj
 0001:000d3770       ?DetectCodePage@SPCharsetDetect@@QAEHAAVJMappedStream@@_N@Z 004d4770 f   sp_charsetdetect.obj
 0001:000d3790       ?DetectCodePage@SPCharsetDetect@@QAEHAAVJTokenStream@@_N@Z 004d4790 f   sp_charsetdetect.obj
 0001:000d37b0       ?DetectCodePage@SPCharsetDetect@@QAEHPBD_N@Z 004d47b0 f   sp_charsetdetect.obj
 0001:000d3c60       ?Notify@SPCmdNotifier@@QAEKKPAPAXKPAVSPCmdListener@@@Z 004d4c60 f   sp_cmdlistener.obj
 0001:000d3cb0       ?NotifyOne@SPCmdNotifier@@QAE_NKPAPAXK@Z 004d4cb0 f   sp_cmdlistener.obj
 0001:000d3d00       ?RequestOne@SPCmdNotifier@@QAE_NAAVJWString@@KPAPAXK@Z 004d4d00 f   sp_cmdlistener.obj
 0001:000d3e60       ?Add@SPCmdNotifier@@QAE_NPAVSPCmdListener@@_N1@Z 004d4e60 f   sp_cmdlistener.obj
 0001:000d4010       ?Delete@SPCmdNotifier@@QAE_NPAVSPCmdListener@@_N@Z 004d5010 f   sp_cmdlistener.obj
 0001:000d41c0       ?Search@SPCmdNotifier@@QAEJPAVSPCmdListener@@@Z 004d51c0 f   sp_cmdlistener.obj
 0001:000d41f0       ?Release@SPCmdNotifier@@QAEXXZ 004d51f0 f   sp_cmdlistener.obj
 0001:000d4230       ?DeleteAll@SPCmdNotifier@@QAE_NXZ 004d5230 f   sp_cmdlistener.obj
 0001:000d4300       ?SPCNotify@SPCmdListener@@MAE_NKPAPAXK@Z 004d5300 f   sp_cmdlistener.obj
 0001:000d4310       ?SPCRequest@SPCmdListener@@MAE_NAAVJWString@@KPAPAXK@Z 004d5310 f   sp_cmdlistener.obj
 0001:000d4430       ?SPCDeleteFromNotify@SPCmdListener@@IAEX_N@Z 004d5430 f   sp_cmdlistener.obj
 0001:000d4460       ?SPCAddNotifier@SPCmdListener@@IAEXPAVSPCmdNotifier@@@Z 004d5460 f   sp_cmdlistener.obj
 0001:000d4570       ?SPCDeleteNotifier@SPCmdListener@@IAEXPAVSPCmdNotifier@@@Z 004d5570 f   sp_cmdlistener.obj
 0001:000d4610       ?IsTerminateCommand@SPCmdListener@@KA_NK@Z 004d5610 f   sp_cmdlistener.obj
 0001:000d4640       ?Set@SPColor@@QAEXHHH@Z    004d5640 f   sp_color.obj
 0001:000d4660       ?Set@SPColor@@QAEXPBG00@Z  004d5660 f   sp_color.obj
 0001:000d4710       ?Set@SPColor@@QAE_NPBG@Z   004d5710 f   sp_color.obj
 0001:000d4880       ?Set@SPColor@@QAE_NPBQBGJ@Z 004d5880 f   sp_color.obj
 0001:000d48c0       ?Set@SPColor@@QAE_NPBG0@Z  004d58c0 f   sp_color.obj
 0001:000d48f0       ?Set@SPColor@@QAE_NPBGH@Z  004d58f0 f   sp_color.obj
 0001:000d49a0       ?Set@SPCommunicateData@@QAEXPAXPAVSPGhost@@PBG@Z 004d59a0 f   sp_communicatedata.obj
 0001:000d4b90       ?Set@SPCommunicateData@@QAEXAAV?$JArray@PAX@@AAV?$JPtrArray@PAVSPGhost@@@@PBG@Z 004d5b90 f   sp_communicatedata.obj
 0001:000d4d40       ?Send@SPCommunicateData@@QAEXPAVSPGhost@@@Z 004d5d40 f   sp_communicatedata.obj
 0001:000d4f10       ?GetSPCompatibleWord@@YAAAVSPCompatibleWord@@XZ 004d5f10 f   sp_compatibleword.obj
 0001:000d4fa0       ??0SPCompatibleWord@@AAE@XZ 004d5fa0 f   sp_compatibleword.obj
 0001:000d4ff0       ??_GSPCompatibleWord@@UAEPAXI@Z 004d5ff0 f i sp_compatibleword.obj
 0001:000d4ff0       ??_ESPCompatibleWord@@UAEPAXI@Z 004d5ff0 f i sp_compatibleword.obj
 0001:000d5020       ??1SPCompatibleWord@@UAE@XZ 004d6020 f   sp_compatibleword.obj
 0001:000d5130       ?Load@SPCompatibleWord@@QAE_NPBG@Z 004d6130 f   sp_compatibleword.obj
 0001:000d5380       ??1SPCompatibleWordEntry@@QAE@XZ 004d6380 f i sp_compatibleword.obj
 0001:000d5420       ?Get@SPCompatibleWord@@QAEPBGPBG@Z 004d6420 f   sp_compatibleword.obj
 0001:000d54a0       ?FindEntry@SPCompatibleWord@@AAEPAVSPCompatibleWordEntry@@PBG@Z 004d64a0 f   sp_compatibleword.obj
 0001:000d54f0       ?Release@SPCookieClient@@QAEXXZ 004d64f0 f   sp_cookie.obj
 0001:000d5560       ?GetValue@SPCookieClient@@QAEPAGPAG@Z 004d6560 f   sp_cookie.obj
 0001:000d55b0       ?SetValue@SPCookieClient@@QAEHPAG0@Z 004d65b0 f   sp_cookie.obj
 0001:000d57d0       ?Release@SPCookie@@QAEXXZ  004d67d0 f   sp_cookie.obj
 0001:000d5840       ??1SPCookieClient@@QAE@XZ  004d6840 f i sp_cookie.obj
 0001:000d58b0       ?GetClient@SPCookie@@QAEPAVSPCookieClient@@PAGABVJSockAddr@@@Z 004d68b0 f   sp_cookie.obj
 0001:000d5910       ?AddClient@SPCookie@@QAEPAVSPCookieClient@@PAGABVJSockAddr@@@Z 004d6910 f   sp_cookie.obj
 0001:000d5ae0       ?Load@SPCookie@@QAEHPBG@Z  004d6ae0 f   sp_cookie.obj
 0001:000d5e90       ?Save@SPCookie@@QAEHXZ     004d6e90 f   sp_cookie.obj
 0001:000d6180       ??1SPCookieEntry@@QAE@XZ   004d7180 f i sp_cookie.obj
 0001:000d61d0       ?Register@SPControlAdjuster@@QAEAAUtagSPControlAdjusterData@@HI@Z 004d71d0 f   sp_ctrladjuster.obj
 0001:000d6350       ?UpdateHWND@SPControlAdjuster@@QAEXH@Z 004d7350 f   sp_ctrladjuster.obj
 0001:000d63a0       ?Release@SPControlAdjuster@@QAEXXZ 004d73a0 f   sp_ctrladjuster.obj
 0001:000d63d0       ?Init@SPControlAdjuster@@QAEXPAUHWND__@@@Z 004d73d0 f   sp_ctrladjuster.obj
 0001:000d6410       ?OnSize@SPControlAdjuster@@QAEXXZ 004d7410 f   sp_ctrladjuster.obj
 0001:000d64f0       ?SetNumNoPurge@?$JArray@UtagSPControlAdjusterData@@@@QAEXK_N@Z 004d74f0 f i sp_ctrladjuster.obj
 0001:000d6560       ?GetSPCursor@@YAAAVSPCursor@@XZ 004d7560 f   sp_cursor.obj
 0001:000d65f0       ??0SPCursor@@AAE@XZ        004d75f0 f   sp_cursor.obj
 0001:000d6660       ??_ESPCursor@@UAEPAXI@Z    004d7660 f i sp_cursor.obj
 0001:000d6660       ??_GSPCursor@@UAEPAXI@Z    004d7660 f i sp_cursor.obj
 0001:000d6690       ??1SPCursor@@UAE@XZ        004d7690 f   sp_cursor.obj
 0001:000d66f0       ?SetCursor@SPCursor@@QAEXPAX@Z 004d76f0 f   sp_cursor.obj
 0001:000d6730       ?SetWaitCursor@SPCursor@@QAEXPAX@Z 004d7730 f   sp_cursor.obj
 0001:000d6770       ?BeginWait@SPCursor@@QAEXXZ 004d7770 f   sp_cursor.obj
 0001:000d67b0       ?EndWait@SPCursor@@QAEXXZ  004d77b0 f   sp_cursor.obj
 0001:000d67f0       ??0SPWaitCursor@@QAE@XZ    004d77f0 f   sp_cursor.obj
 0001:000d6810       ??1SPWaitCursor@@QAE@XZ    004d7810 f   sp_cursor.obj
 0001:000d6820       ?SetP@SPCursorDef@@QAEXPBGPAVSPSeriko@@@Z 004d7820 f   sp_cursor.obj
 0001:000d6980       ?SetPB@SPCursorDef@@QAEXPBGPAVSPBalloon@@@Z 004d7980 f   sp_cursor.obj
 0001:000d6b20       ?GetSPDataPathList@@YAAAVSPDataPathList@@XZ 004d7b20 f   sp_datapathlist.obj
 0001:000d6bb0       ?GetSPDataPathTitle@@YAPAGW4SPDataPathListID@@@Z 004d7bb0 f   sp_datapathlist.obj
 0001:000d6bd0       ?GetSPDataPathListID@@YAPAGW4SPDataPathListID@@@Z 004d7bd0 f   sp_datapathlist.obj
 0001:000d6bf0       ?GetAbsolutePath@SPDataPathListData@@QAEXAAVJWString@@@Z 004d7bf0 f   sp_datapathlist.obj
 0001:000d6c30       ?SetPath@SPDataPathListData@@QAEXPBG@Z 004d7c30 f   sp_datapathlist.obj
 0001:000d6d10       ?ProcessPath@SPDataPathListData@@SAXAAVJWString@@@Z 004d7d10 f   sp_datapathlist.obj
 0001:000d6e80       ?GetGhostListPath@SPDataPathListData@@AAEXAAVJWString@@@Z 004d7e80 f   sp_datapathlist.obj
 0001:000d6ec0       ?OpenXML@SPDataPathListData@@AAE_NAAVXMLDocument@tinyxml2@@AAH@Z 004d7ec0 f   sp_datapathlist.obj
 0001:000d70b0       ?OpenXMLForSave@SPDataPathListData@@AAEXAAVXMLDocument@tinyxml2@@AAH@Z 004d80b0 f   sp_datapathlist.obj
 0001:000d7180       ?SetGroupFlag@SPDataPathListData@@QAEXK@Z 004d8180 f   sp_datapathlist.obj
 0001:000d72e0       ?SetGroupName@SPDataPathListData@@QAEXPBG@Z 004d82e0 f   sp_datapathlist.obj
 0001:000d7480       ?LoadXML@SPDataPathListData@@AAEXAAVJWString@@@Z 004d8480 f   sp_datapathlist.obj
 0001:000d7590       ?GetGroupNameFromPath@SPDataPathListData@@AAEXAAVJWString@@@Z 004d8590 f   sp_datapathlist.obj
 0001:000d7650       ?CheckPathExist@SPDataPathListData@@QAEXXZ 004d8650 f   sp_datapathlist.obj
 0001:000d7750       ??0SPDataPathList@@AAE@XZ  004d8750 f   sp_datapathlist.obj
 0001:000d77e0       ??_ESPDataPathList@@UAEPAXI@Z 004d87e0 f i sp_datapathlist.obj
 0001:000d77e0       ??_GSPDataPathList@@UAEPAXI@Z 004d87e0 f i sp_datapathlist.obj
 0001:000d7810       ??_F?$JPtrArray@PAVSPDataPathListData@@@@QAEXXZ 004d8810 f i sp_datapathlist.obj
 0001:000d7820       ??1SPDataPathList@@UAE@XZ  004d8820 f   sp_datapathlist.obj
 0001:000d78a0       ?GetGroupFlagFromText@SPDataPathList@@SAKPBD@Z 004d88a0 f   sp_datapathlist.obj
 0001:000d7910       ?GetTextFromGroupFlag@SPDataPathList@@SAPBDK@Z 004d8910 f   sp_datapathlist.obj
 0001:000d7a00       ?Release@SPDataPathList@@QAEXXZ 004d8a00 f   sp_datapathlist.obj
 0001:000d7aa0       ??4SPDataPathList@@QAEAAV0@AAV0@@Z 004d8aa0 f   sp_datapathlist.obj
 0001:000d7cd0       ?Set@SPDataPathList@@QAEXW4SPDataPathListID@@HW4SPDataPathListStatus@@PBG@Z 004d8cd0 f   sp_datapathlist.obj
 0001:000d7f60       ??1SPDataPathListData@@QAE@XZ 004d8f60 f i sp_datapathlist.obj
 0001:000d7fb0       ?Swap@SPDataPathList@@QAEHW4SPDataPathListID@@KK@Z 004d8fb0 f   sp_datapathlist.obj
 0001:000d8040       ?GetToFolderList@SPDataPathList@@QAEHW4SPDataPathListID@@AAVSPFolderList@@@Z 004d9040 f   sp_datapathlist.obj
 0001:000d8180       ?GetW@SPDataPathList@@QAE?AW4SPDataPathListStatus@@W4SPDataPathListID@@KAAVJWString@@@Z 004d9180 f   sp_datapathlist.obj
 0001:000d81b0       ?GetRealW@SPDataPathList@@QAE?AW4SPDataPathListStatus@@W4SPDataPathListID@@KAAVJWString@@@Z 004d91b0 f   sp_datapathlist.obj
 0001:000d81e0       ?GetStatus@SPDataPathList@@QAE?AW4SPDataPathListStatus@@W4SPDataPathListID@@K@Z 004d91e0 f   sp_datapathlist.obj
 0001:000d8200       ?GetGroupName@SPDataPathList@@QBEPBGW4SPDataPathListID@@K@Z 004d9200 f   sp_datapathlist.obj
 0001:000d8220       ?SetGroupName@SPDataPathList@@QAEXW4SPDataPathListID@@KPBG@Z 004d9220 f   sp_datapathlist.obj
 0001:000d8250       ?GetGroupFlag@SPDataPathList@@QBEKW4SPDataPathListID@@K@Z 004d9250 f   sp_datapathlist.obj
 0001:000d8270       ?SetGroupFlag@SPDataPathList@@QAEXW4SPDataPathListID@@KK@Z 004d9270 f   sp_datapathlist.obj
 0001:000d82a0       ?GetNum@SPDataPathList@@QAEKW4SPDataPathListID@@@Z 004d92a0 f   sp_datapathlist.obj
 0001:000d82c0       ?GetEnableNum@SPDataPathList@@QAEKW4SPDataPathListID@@@Z 004d92c0 f   sp_datapathlist.obj
 0001:000d8300       ?GetFirstForInstallW@SPDataPathList@@QAEHW4SPDataPathListID@@AAVJWString@@PAV3@@Z 004d9300 f   sp_datapathlist.obj
 0001:000d8470       ?ShowSelectDialogW@SPDataPathList@@QAEHW4SPDataPathListID@@AAVJWString@@PBGPAV3@@Z 004d9470 f   sp_datapathlist.obj
 0001:000d8e50       ?ShowSelectDialogReset@SPDataPathList@@QAEXXZ 004d9e50 f   sp_datapathlist.obj
 0001:000d8e70       ?GetTableW@SPDataPathList@@QAEPAPAGW4SPDataPathListID@@AAK@Z 004d9e70 f   sp_datapathlist.obj
 0001:000d8f80       ?Add@SPDataPathList@@QAEHW4SPDataPathListID@@PBG@Z 004d9f80 f   sp_datapathlist.obj
 0001:000d8fa0       ?Delete@SPDataPathList@@QAEXW4SPDataPathListID@@K@Z 004d9fa0 f   sp_datapathlist.obj
 0001:000d9080       ?Clear@SPDataPathList@@QAEXW4SPDataPathListID@@@Z 004da080 f   sp_datapathlist.obj
 0001:000d9130       ?FindW@SPDataPathList@@QAEHW4SPDataPathListID@@PBG@Z 004da130 f   sp_datapathlist.obj
 0001:000d9210       ?FindExtraPath@SPDataPathList@@AAEHW4SPDataPathListID@@PAVJWString@@AAV?$JArray@K@@@Z 004da210 f   sp_datapathlist.obj
 0001:000d94e0       ?CheckPathExist@SPDataPathList@@QAEXW4SPDataPathListID@@@Z 004da4e0 f   sp_datapathlist.obj
 0001:000d9520       ?Load@SPDataPathList@@QAEXAAVSPSettings@@@Z 004da520 f   sp_datapathlist.obj
 0001:000d9850       ?Save@SPDataPathList@@QAEXAAVSPSettings@@@Z 004da850 f   sp_datapathlist.obj
 0001:000d9a80       ?CheckPathIsOKW@SPDataPathList@@QAEHPBG@Z 004daa80 f   sp_datapathlist.obj
 0001:000d9bb0       ??0?$JPtrArray@PAVSPDataPathListData@@@@QAE@J@Z 004dabb0 f i sp_datapathlist.obj
 0001:000d9c10       __purecall                 004dac10 f   sp_debugger.obj
 0001:000d9c20       ?GetEip@@YAKXZ             004dac20 f   sp_debugger.obj
 0001:000d9c30       ?trace_and_exit@@YAXXZ     004dac30 f   sp_debugger.obj
 0001:000d9cd0       ?sig_trace_and_exit@@YAXH@Z 004dacd0 f   sp_debugger.obj
 0001:000d9d40       ?SPSEDefaultFilter@@YGJPAU_EXCEPTION_POINTERS@@@Z 004dad40 f   sp_debugger.obj
 0001:000da580       ?WriteEnvironment@@YAHPAU_iobuf@@@Z 004db580 f   sp_debugger.obj
 0001:000daf30       ?SPGetExceptionReasonTextA@@YAPADK@Z 004dbf30 f   sp_debugger.obj
 0001:000daf80       ?SPGetExceptionReasonTextW@@YAPAGK@Z 004dbf80 f   sp_debugger.obj
 0001:000db6f0       ?SPCalcCodeStartPos@@YAPAXPAXAAHPAPAXPAKK@Z 004dc6f0 f   sp_debugger.obj
 0001:000dbbe0       ??0SPDecoder@@QAE@XZ       004dcbe0 f   sp_decode.obj
 0001:000dbca0       ??1SPDecoder@@QAE@XZ       004dcca0 f   sp_decode.obj
 0001:000dbd30       ?MakeTempName@SPDecoder@@AAEXG@Z 004dcd30 f   sp_decode.obj
 0001:000dbdb0       ?SearchFileName@SPDecoder@@QAE?AW4SPDecoderType@@PBGGPAVJWString@@@Z 004dcdb0 f   sp_decode.obj
 0001:000dbfc0       ?DecodeWithSearch@SPDecoder@@QAEPBGPBGGHPAVJWString@@@Z 004dcfc0 f   sp_decode.obj
 0001:000dc0d0       ?Decode@SPDecoder@@QAEPBGPBGH@Z 004dd0d0 f   sp_decode.obj
 0001:000dc1f0       ?Decode_D@SPDecoder@@AAEHPBG0HH@Z 004dd1f0 f   sp_decode.obj
 0001:000dc4b0       ?Decode_F@SPDecoder@@AAEHPBG0H@Z 004dd4b0 f   sp_decode.obj
 0001:000dc880       ?Decode_G@SPDecoder@@AAEHPBG0H@Z 004dd880 f   sp_decode.obj
 0001:000dccf0       ?GetSPDefaultCharset@@YAPAVSPDefaultCharset@@XZ 004ddcf0 f   sp_defaultcharset.obj
 0001:000dcd80       ??0SPDefaultCharset@@AAE@XZ 004ddd80 f   sp_defaultcharset.obj
 0001:000dcdb0       ??_ESPDefaultCharset@@UAEPAXI@Z 004dddb0 f i sp_defaultcharset.obj
 0001:000dcdb0       ??_GSPDefaultCharset@@UAEPAXI@Z 004dddb0 f i sp_defaultcharset.obj
 0001:000dcde0       ??1SPDefaultCharset@@UAE@XZ 004ddde0 f i sp_defaultcharset.obj
 0001:000dcdf0       ?Init@SPDefaultCharset@@QAEXPAVSPSettings@@@Z 004dddf0 f   sp_defaultcharset.obj
 0001:000dcee0       ?Set@SPDefaultCharset@@QAEXPBD0@Z 004ddee0 f   sp_defaultcharset.obj
 0001:000dcff0       ?Get@SPDefaultCharset@@QAEPBDPBD@Z 004ddff0 f   sp_defaultcharset.obj
 0001:000dd010       ?GetDefine@SPDefaultCharset@@QAEH_N@Z 004de010 f   sp_defaultcharset.obj
 0001:000dd030       ?GetReadme@SPDefaultCharset@@QAEH_N@Z 004de030 f   sp_defaultcharset.obj
 0001:000dd050       ?GetScript@SPDefaultCharset@@QAEH_N@Z 004de050 f   sp_defaultcharset.obj
 0001:000dd070       ?GetFile@SPDefaultCharset@@QAEH_N@Z 004de070 f   sp_defaultcharset.obj
 0001:000dd090       ??0SPDeleteTxt@@QAE@XZ     004de090 f   sp_deletetxt.obj
 0001:000dd190       ?Load@SPDeleteTxt@@QAEHPBG@Z 004de190 f   sp_deletetxt.obj
 0001:000dd3d0       ?LoadReal@SPDeleteTxt@@AAEHPBG@Z 004de3d0 f   sp_deletetxt.obj
 0001:000dd560       ?Find@SPDeleteTxt@@QAEHPBG@Z 004de560 f   sp_deletetxt.obj
 0001:000dd650       ?Execute@SPDeleteTxt@@QAEHPBG_NPAVSPCmdNotifier@@@Z 004de650 f   sp_deletetxt.obj
 0001:000dd8e0       ?ProcessPath@SPDeleteTxt@@CAHAAVJWString@@@Z 004de8e0 f   sp_deletetxt.obj
 0001:000dd950       ?IsDeleteTxtFileName@SPDeleteTxt@@QAE_NPBG@Z 004de950 f   sp_deletetxt.obj
 0001:000dd9b0       ??1?$CBuilderT@G@@QAE@XZ   004de9b0 f i sp_deletetxt.obj
 0001:000ddb10       ?Match@?$CRegexpT@G@@QBE?AV?$MatchResultT@$0A@@@PBGHPAVCContext@@@Z 004deb10 f i sp_deletetxt.obj
 0001:000ddb80       ??_E?$CBufferRefT@H@@UAEPAXI@Z 004deb80 f i sp_deletetxt.obj
 0001:000ddb80       ??_G?$CBufferRefT@H@@UAEPAXI@Z 004deb80 f i sp_deletetxt.obj
 0001:000ddbb0       ??1?$CSortedBufferT@H@@UAE@XZ 004debb0 f i sp_deletetxt.obj
 0001:000ddbb0       ??1?$MatchResultT@$0A@@@QAE@XZ 004debb0 f i sp_deletetxt.obj
 0001:000ddbb0       ??1?$CBufferT@H@@UAE@XZ    004debb0 f i sp_deletetxt.obj
 0001:000ddbe0       ?Clear@?$CBuilderT@G@@QAEXXZ 004debe0 f i sp_deletetxt.obj
 0001:000ddc70       ??0?$CBuilderT@G@@QAE@XZ   004dec70 f i sp_deletetxt.obj
 0001:000dddb0       ?Match@?$CRegexpT@G@@QBE?AV?$MatchResultT@$0A@@@PBGHHPAVCContext@@@Z 004dedb0 f i sp_deletetxt.obj
 0001:000ddf30       ??0CContext@@QAE@XZ        004def30 f i sp_deletetxt.obj
 0001:000ddf60       ??1CContext@@QAE@XZ        004def60 f i sp_deletetxt.obj
 0001:000ddfc0       ??0CHART_INFO@?$CBuilderT@G@@QAE@GHHH@Z 004defc0 f i sp_deletetxt.obj
 0001:000ddff0       ?Build@?$CBuilderT@G@@QAEPAVElxInterface@@ABV?$CBufferRefT@G@@H@Z 004deff0 f i sp_deletetxt.obj
 0001:000de6a0       ?Match@?$CRegexpT@G@@QBE?AV?$MatchResultT@$0A@@@PAVCContext@@@Z 004df6a0 f i sp_deletetxt.obj
 0001:000de970       ??0?$MatchResultT@$0A@@@QAE@PAVCContext@@H@Z 004df970 f i sp_deletetxt.obj
 0001:000dea90       ??0?$CBufferT@H@@QAE@XZ    004dfa90 f i sp_deletetxt.obj
 0001:000deab0       ?BuildAlternative@?$CBuilderT@G@@IAEPAVElxInterface@@H@Z 004dfab0 f i sp_deletetxt.obj
 0001:000dee30       ??1?$CReluctantElxT@$0A@@@UAE@XZ 004dfe30 f i sp_deletetxt.obj
 0001:000dee30       ??1?$CAssertElxT@$0A@@@UAE@XZ 004dfe30 f i sp_deletetxt.obj
 0001:000dee30       ??1?$CEmptyElxT@$0A@@@UAE@XZ 004dfe30 f i sp_deletetxt.obj
 0001:000dee30       ??1ElxInterface@@UAE@XZ    004dfe30 f i sp_deletetxt.obj
 0001:000dee30       ??1?$CRepeatElxT@$0A@@@UAE@XZ 004dfe30 f i sp_deletetxt.obj
 0001:000dee30       ??1?$CPossessiveElxT@$0A@@@UAE@XZ 004dfe30 f i sp_deletetxt.obj
 0001:000dee30       ??1?$CPosixElxT@G@@UAE@XZ  004dfe30 f i sp_deletetxt.obj
 0001:000dee30       ??1?$CBoundaryElxT@G@@UAE@XZ 004dfe30 f i sp_deletetxt.obj
 0001:000dee30       ??1?$CIndependentElxT@$0A@@@UAE@XZ 004dfe30 f i sp_deletetxt.obj
 0001:000dee30       ??1?$CGlobalElxT@$0A@@@UAE@XZ 004dfe30 f i sp_deletetxt.obj
 0001:000dee30       ??1?$CGreedyElxT@$0A@@@UAE@XZ 004dfe30 f i sp_deletetxt.obj
 0001:000dee40       ??_EElxInterface@@UAEPAXI@Z 004dfe40 f i sp_deletetxt.obj
 0001:000dee40       ??_GElxInterface@@UAEPAXI@Z 004dfe40 f i sp_deletetxt.obj
 0001:000dee70       ??0?$CBufferT@PAVElxInterface@@@@QAE@XZ 004dfe70 f i sp_deletetxt.obj
 0001:000dee90       ??0?$CBufferRefT@PAV?$CListElxT@$0A@@@@@QAE@PBQAV?$CListElxT@$0A@@@H@Z 004dfe90 f i sp_deletetxt.obj
 0001:000deeb0       ??0?$CBufferRefT@PAV?$CConditionElxT@G@@@@QAE@PBQAV?$CConditionElxT@G@@H@Z 004dfeb0 f i sp_deletetxt.obj
 0001:000deed0       ??0?$CBufferRefT@H@@QAE@PBHH@Z 004dfed0 f i sp_deletetxt.obj
 0001:000deef0       ?SetMaxLength@?$CBufferT@H@@QAEXH@Z 004dfef0 f i sp_deletetxt.obj
 0001:000deef0       ?SetMaxLength@?$CBufferT@PAV?$CConditionElxT@G@@@@QAEXH@Z 004dfef0 f i sp_deletetxt.obj
 0001:000deef0       ?SetMaxLength@?$CBufferT@PAVElxInterface@@@@QAEXH@Z 004dfef0 f i sp_deletetxt.obj
 0001:000deef0       ?SetMaxLength@?$CBufferT@PAV?$CBackrefElxT@G@@@@QAEXH@Z 004dfef0 f i sp_deletetxt.obj
 0001:000deef0       ?SetMaxLength@?$CBufferT@PAV?$CListElxT@$0A@@@@@QAEXH@Z 004dfef0 f i sp_deletetxt.obj
 0001:000deef0       ?SetMaxLength@?$CBufferT@PAV?$CDelegateElxT@G@@@@QAEXH@Z 004dfef0 f i sp_deletetxt.obj
 0001:000def50       ??8CHART_INFO@?$CBuilderT@G@@QBEHABU01@@Z 004dff50 f i sp_deletetxt.obj
 0001:000def80       ?GetNext2@?$CBuilderT@G@@IAEHXZ 004dff80 f i sp_deletetxt.obj
 0001:000dfaa0       ?BuildList@?$CBuilderT@G@@IAEPAVElxInterface@@AAH@Z 004e0aa0 f i sp_deletetxt.obj
 0001:000dfce0       ?Match@?$CListElxT@$0A@@@UBEHPAVCContext@@@Z 004e0ce0 f i sp_deletetxt.obj
 0001:000dfd90       ?MatchNext@?$CListElxT@$0A@@@UBEHPAVCContext@@@Z 004e0d90 f i sp_deletetxt.obj
 0001:000dfe60       ?GetStockElx@?$CBuilderT@G@@IAEPAVElxInterface@@H@Z 004e0e60 f i sp_deletetxt.obj
 0001:000e0c40       ??1?$CBufferT@G@@UAE@XZ    004e1c40 f i sp_deletetxt.obj
 0001:000e0c70       ??_E?$CBufferT@G@@UAEPAXI@Z 004e1c70 f i sp_deletetxt.obj
 0001:000e0c70       ??_G?$CBufferT@G@@UAEPAXI@Z 004e1c70 f i sp_deletetxt.obj
 0001:000e0ca0       ?nCompareNoCase@?$CBufferRefT@G@@QBEHPBG@Z 004e1ca0 f i sp_deletetxt.obj
 0001:000e0d20       ?Match@?$CAlternativeElxT@$0A@@@UBEHPAVCContext@@@Z 004e1d20 f i sp_deletetxt.obj
 0001:000e0dc0       ?MatchNext@?$CAlternativeElxT@$0A@@@UBEHPAVCContext@@@Z 004e1dc0 f i sp_deletetxt.obj
 0001:000e0e90       ??1?$CListElxT@$0A@@@UAE@XZ 004e1e90 f i sp_deletetxt.obj
 0001:000e0e90       ??1?$CAlternativeElxT@$0A@@@UAE@XZ 004e1e90 f i sp_deletetxt.obj
 0001:000e0ec0       ?BuildRepeat@?$CBuilderT@G@@IAEPAVElxInterface@@AAH@Z 004e1ec0 f i sp_deletetxt.obj
 0001:000e1820       ?MoveNext@?$CBuilderT@G@@IAEXXZ 004e2820 f i sp_deletetxt.obj
 0001:000e18a0       ??1?$CBufferT@D@@UAE@XZ    004e28a0 f i sp_deletetxt.obj
 0001:000e18d0       ??_G?$CBufferRefT@D@@UAEPAXI@Z 004e28d0 f i sp_deletetxt.obj
 0001:000e18d0       ??_E?$CBufferRefT@D@@UAEPAXI@Z 004e28d0 f i sp_deletetxt.obj
 0001:000e1900       ??_E?$CBufferT@D@@UAEPAXI@Z 004e2900 f i sp_deletetxt.obj
 0001:000e1900       ??_G?$CBufferT@D@@UAEPAXI@Z 004e2900 f i sp_deletetxt.obj
 0001:000e1930       ??0?$CListElxT@$0A@@@QAE@H@Z 004e2930 f i sp_deletetxt.obj
 0001:000e1960       ?Match@?$CEmptyElxT@$0A@@@UBEHPAVCContext@@@Z 004e2960 f i sp_deletetxt.obj
 0001:000e1970       ?Match@?$CRangeElxT@G@@UBEHPAVCContext@@@Z 004e2970 f i sp_deletetxt.obj
 0001:000e1a60       ?MatchNext@?$CRangeElxT@G@@UBEHPAVCContext@@@Z 004e2a60 f i sp_deletetxt.obj
 0001:000e1a80       ??0?$CRangeElxT@G@@QAE@HH@Z 004e2a80 f i sp_deletetxt.obj
 0001:000e1ad0       ?Push@?$CBufferT@G@@QAEXG@Z 004e2ad0 f i sp_deletetxt.obj
 0001:000e1b20       ??_G?$CAlternativeElxT@$0A@@@UAEPAXI@Z 004e2b20 f i sp_deletetxt.obj
 0001:000e1b20       ??_E?$CAlternativeElxT@$0A@@@UAEPAXI@Z 004e2b20 f i sp_deletetxt.obj
 0001:000e1b20       ??_G?$CListElxT@$0A@@@UAEPAXI@Z 004e2b20 f i sp_deletetxt.obj
 0001:000e1b20       ??_E?$CListElxT@$0A@@@UAEPAXI@Z 004e2b20 f i sp_deletetxt.obj
 0001:000e1b50       ??_G?$CRangeElxT@G@@UAEPAXI@Z 004e2b50 f i sp_deletetxt.obj
 0001:000e1b50       ??_E?$CRangeElxT@G@@UAEPAXI@Z 004e2b50 f i sp_deletetxt.obj
 0001:000e1b80       ??1?$CRangeElxT@G@@UAE@XZ  004e2b80 f i sp_deletetxt.obj
 0001:000e1bf0       ??0?$CRepeatElxT@$0A@@@QAE@PAVElxInterface@@H@Z 004e2bf0 f i sp_deletetxt.obj
 0001:000e1c10       ?Match@?$CRepeatElxT@$0A@@@UBEHPAVCContext@@@Z 004e2c10 f i sp_deletetxt.obj
 0001:000e1c70       ?MatchNext@?$CRepeatElxT@$0A@@@UBEHPAVCContext@@@Z 004e2c70 f i sp_deletetxt.obj
 0001:000e1cf0       ??0?$CReluctantElxT@$0A@@@QAE@PAVElxInterface@@HH@Z 004e2cf0 f i sp_deletetxt.obj
 0001:000e1d20       ?Match@?$CReluctantElxT@$0A@@@UBEHPAVCContext@@@Z 004e2d20 f i sp_deletetxt.obj
 0001:000e1dd0       ?MatchNext@?$CReluctantElxT@$0A@@@UBEHPAVCContext@@@Z 004e2dd0 f i sp_deletetxt.obj
 0001:000e1fa0       ?Pop@?$CBufferT@H@@QAEHAAH@Z 004e2fa0 f i sp_deletetxt.obj
 0001:000e1fd0       ??0?$CGreedyElxT@$0A@@@QAE@PAVElxInterface@@HH@Z 004e2fd0 f i sp_deletetxt.obj
 0001:000e2000       ?Match@?$CGreedyElxT@$0A@@@UBEHPAVCContext@@@Z 004e3000 f i sp_deletetxt.obj
 0001:000e2140       ??0CContextShot@@QAE@PAVCContext@@@Z 004e3140 f i sp_deletetxt.obj
 0001:000e2160       ?Restore@CContextShot@@QAEXPAVCContext@@@Z 004e3160 f i sp_deletetxt.obj
 0001:000e2220       ?MatchNext@?$CGreedyElxT@$0A@@@UBEHPAVCContext@@@Z 004e3220 f i sp_deletetxt.obj
 0001:000e2390       ??0?$CPossessiveElxT@$0A@@@QAE@PAVElxInterface@@HH@Z 004e3390 f i sp_deletetxt.obj
 0001:000e23c0       ?Match@?$CPossessiveElxT@$0A@@@UBEHPAVCContext@@@Z 004e33c0 f i sp_deletetxt.obj
 0001:000e2580       ??0?$CBufferT@G@@QAE@XZ    004e3580 f i sp_deletetxt.obj
 0001:000e25a0       ?BuildCharset@?$CBuilderT@G@@IAEPAVElxInterface@@AAH@Z 004e35a0 f i sp_deletetxt.obj
 0001:000e3600       __isblank                  004e4600 f i sp_deletetxt.obj
 0001:000e3620       ??0?$CEmptyElxT@$0A@@@QAE@XZ 004e4620 f i sp_deletetxt.obj
 0001:000e3630       ?BuildRecursive@?$CBuilderT@G@@IAEPAVElxInterface@@AAH@Z 004e4630 f i sp_deletetxt.obj
 0001:000e55c0       ?Prepare@?$CBufferT@PAVElxInterface@@@@QAEXHH@Z 004e65c0 f i sp_deletetxt.obj
 0001:000e5660       ?Match@?$CBracketElxT@G@@UBEHPAVCContext@@@Z 004e6660 f i sp_deletetxt.obj
 0001:000e5a40       ?MatchNext@?$CBracketElxT@G@@UBEHPAVCContext@@@Z 004e6a40 f i sp_deletetxt.obj
 0001:000e5b60       ?Match@?$CDelegateElxT@G@@UBEHPAVCContext@@@Z 004e6b60 f i sp_deletetxt.obj
 0001:000e5ba0       ?MatchNext@?$CDelegateElxT@G@@UBEHPAVCContext@@@Z 004e6ba0 f i sp_deletetxt.obj
 0001:000e5bc0       ?Match@?$CConditionElxT@G@@UBEHPAVCContext@@@Z 004e6bc0 f i sp_deletetxt.obj
 0001:000e5da0       ?MatchNext@?$CConditionElxT@G@@UBEHPAVCContext@@@Z 004e6da0 f i sp_deletetxt.obj
 0001:000e5f00       ??0?$CAlternativeElxT@$0A@@@QAE@XZ 004e6f00 f i sp_deletetxt.obj
 0001:000e5f20       ??A?$CBufferRefT@G@@QBEGH@Z 004e6f20 f i sp_deletetxt.obj
 0001:000e5f40       ?ReadDec@?$CBuilderT@G@@KAHAAPADAAI@Z 004e6f40 f i sp_deletetxt.obj
 0001:000e5ff0       ??0?$CBufferT@D@@QAE@XZ    004e6ff0 f i sp_deletetxt.obj
 0001:000e6010       ?BuildBoundary@?$CBuilderT@G@@IAEPAVElxInterface@@AAH@Z 004e7010 f i sp_deletetxt.obj
 0001:000e6300       ?BuildBackref@?$CBuilderT@G@@IAEPAVElxInterface@@AAH@Z 004e7300 f i sp_deletetxt.obj
 0001:000e6830       ?Match@?$CBackrefElxT@G@@UBEHPAVCContext@@@Z 004e7830 f i sp_deletetxt.obj
 0001:000e6b40       ?MatchNext@?$CBackrefElxT@G@@UBEHPAVCContext@@@Z 004e7b40 f i sp_deletetxt.obj
 0001:000e6b70       ??0?$CStringElxT@G@@QAE@PBGHHH@Z 004e7b70 f i sp_deletetxt.obj
 0001:000e6bf0       ?Match@?$CStringElxT@G@@UBEHPAVCContext@@@Z 004e7bf0 f i sp_deletetxt.obj
 0001:000e6e00       ?MatchNext@?$CStringElxT@G@@UBEHPAVCContext@@@Z 004e7e00 f i sp_deletetxt.obj
 0001:000e6e30       ?Append@?$CBufferT@D@@QAEXPBDHH@Z 004e7e30 f i sp_deletetxt.obj
 0001:000e6ed0       ??0?$CBufferRefT@D@@QAE@PBDH@Z 004e7ed0 f i sp_deletetxt.obj
 0001:000e6ef0       ?MatchNextVart@?$CGreedyElxT@$0A@@@IBEHPAVCContext@@@Z 004e7ef0 f i sp_deletetxt.obj
 0001:000e7230       ??_G?$CStringElxT@G@@UAEPAXI@Z 004e8230 f i sp_deletetxt.obj
 0001:000e7230       ??_E?$CStringElxT@G@@UAEPAXI@Z 004e8230 f i sp_deletetxt.obj
 0001:000e7260       ??1?$CStringElxT@G@@UAE@XZ 004e8260 f i sp_deletetxt.obj
 0001:000e7290       ?Match@?$CPosixElxT@G@@UBEHPAVCContext@@@Z 004e8290 f i sp_deletetxt.obj
 0001:000e7320       ?MatchNext@?$CPosixElxT@G@@UBEHPAVCContext@@@Z 004e8320 f i sp_deletetxt.obj
 0001:000e7340       ?IsContainChar@?$CRangeElxT@G@@QBEHG@Z 004e8340 f i sp_deletetxt.obj
 0001:000e73a0       ?Append@?$CBufferT@G@@QAEXPBGHH@Z 004e83a0 f i sp_deletetxt.obj
 0001:000e7440       ?Match@?$CAssertElxT@$0A@@@UBEHPAVCContext@@@Z 004e8440 f i sp_deletetxt.obj
 0001:000e7580       ?MatchNext@?$CAssertElxT@$0A@@@UBEHPAVCContext@@@Z 004e8580 f i sp_deletetxt.obj
 0001:000e75f0       ??0?$CBracketElxT@G@@QAE@HH@Z 004e85f0 f i sp_deletetxt.obj
 0001:000e7640       ?Match@?$CIndependentElxT@$0A@@@UBEHPAVCContext@@@Z 004e8640 f i sp_deletetxt.obj
 0001:000e7750       ?MatchNext@?$CIndependentElxT@$0A@@@UBEHPAVCContext@@@Z 004e8750 f i sp_deletetxt.obj
 0001:000e7750       ?MatchNext@?$CPossessiveElxT@$0A@@@UBEHPAVCContext@@@Z 004e8750 f i sp_deletetxt.obj
 0001:000e77e0       ??0?$CDelegateElxT@G@@QAE@H@Z 004e87e0 f i sp_deletetxt.obj
 0001:000e7810       ?Push@?$CBufferT@PAV?$CConditionElxT@G@@@@QAEXPAV?$CConditionElxT@G@@@Z 004e8810 f i sp_deletetxt.obj
 0001:000e7810       ?Push@?$CBufferT@PAVElxInterface@@@@QAEXPAVElxInterface@@@Z 004e8810 f i sp_deletetxt.obj
 0001:000e7810       ?Push@?$CBufferT@H@@QAEXH@Z 004e8810 f i sp_deletetxt.obj
 0001:000e7810       ?Push@?$CBufferT@PAV?$CDelegateElxT@G@@@@QAEXPAV?$CDelegateElxT@G@@@Z 004e8810 f i sp_deletetxt.obj
 0001:000e7870       ?Match@?$CBoundaryElxT@G@@UBEHPAVCContext@@@Z 004e8870 f i sp_deletetxt.obj
 0001:000e7b20       ?Match@?$CGlobalElxT@$0A@@@UBEHPAVCContext@@@Z 004e8b20 f i sp_deletetxt.obj
 0001:000e7b40       ??0?$CBackrefElxT@G@@QAE@HHH@Z 004e8b40 f i sp_deletetxt.obj
 0001:000e7b80       ?Push@?$CBufferT@H@@QAEXABV?$CBufferRefT@H@@@Z 004e8b80 f i sp_deletetxt.obj
 0001:000e7c50       ?FindAs@?$CSortedBufferT@H@@QAEHABHP6AHPBX1@Z@Z 004e8c50 f i sp_deletetxt.obj
 0001:000e7c90       ??_E?$CBracketElxT@G@@UAEPAXI@Z 004e8c90 f i sp_deletetxt.obj
 0001:000e7c90       ??_G?$CBracketElxT@G@@UAEPAXI@Z 004e8c90 f i sp_deletetxt.obj
 0001:000e7cc0       ??_E?$CDelegateElxT@G@@UAEPAXI@Z 004e8cc0 f i sp_deletetxt.obj
 0001:000e7cc0       ??_G?$CDelegateElxT@G@@UAEPAXI@Z 004e8cc0 f i sp_deletetxt.obj
 0001:000e7cf0       ??_G?$CConditionElxT@G@@UAEPAXI@Z 004e8cf0 f i sp_deletetxt.obj
 0001:000e7cf0       ??_E?$CConditionElxT@G@@UAEPAXI@Z 004e8cf0 f i sp_deletetxt.obj
 0001:000e7d20       ??_E?$CPossessiveElxT@$0A@@@UAEPAXI@Z 004e8d20 f i sp_deletetxt.obj
 0001:000e7d20       ??_G?$CAssertElxT@$0A@@@UAEPAXI@Z 004e8d20 f i sp_deletetxt.obj
 0001:000e7d20       ??_G?$CPosixElxT@G@@UAEPAXI@Z 004e8d20 f i sp_deletetxt.obj
 0001:000e7d20       ??_E?$CPosixElxT@G@@UAEPAXI@Z 004e8d20 f i sp_deletetxt.obj
 0001:000e7d20       ??_G?$CGreedyElxT@$0A@@@UAEPAXI@Z 004e8d20 f i sp_deletetxt.obj
 0001:000e7d20       ??_E?$CReluctantElxT@$0A@@@UAEPAXI@Z 004e8d20 f i sp_deletetxt.obj
 0001:000e7d20       ??_E?$CGreedyElxT@$0A@@@UAEPAXI@Z 004e8d20 f i sp_deletetxt.obj
 0001:000e7d20       ??_G?$CPossessiveElxT@$0A@@@UAEPAXI@Z 004e8d20 f i sp_deletetxt.obj
 0001:000e7d20       ??_E?$CIndependentElxT@$0A@@@UAEPAXI@Z 004e8d20 f i sp_deletetxt.obj
 0001:000e7d20       ??_E?$CBoundaryElxT@G@@UAEPAXI@Z 004e8d20 f i sp_deletetxt.obj
 0001:000e7d20       ??_G?$CRepeatElxT@$0A@@@UAEPAXI@Z 004e8d20 f i sp_deletetxt.obj
 0001:000e7d20       ??_E?$CRepeatElxT@$0A@@@UAEPAXI@Z 004e8d20 f i sp_deletetxt.obj
 0001:000e7d20       ??_G?$CReluctantElxT@$0A@@@UAEPAXI@Z 004e8d20 f i sp_deletetxt.obj
 0001:000e7d20       ??_G?$CGlobalElxT@$0A@@@UAEPAXI@Z 004e8d20 f i sp_deletetxt.obj
 0001:000e7d20       ??_G?$CEmptyElxT@$0A@@@UAEPAXI@Z 004e8d20 f i sp_deletetxt.obj
 0001:000e7d20       ??_E?$CEmptyElxT@$0A@@@UAEPAXI@Z 004e8d20 f i sp_deletetxt.obj
 0001:000e7d20       ??_G?$CBoundaryElxT@G@@UAEPAXI@Z 004e8d20 f i sp_deletetxt.obj
 0001:000e7d20       ??_E?$CGlobalElxT@$0A@@@UAEPAXI@Z 004e8d20 f i sp_deletetxt.obj
 0001:000e7d20       ??_G?$CIndependentElxT@$0A@@@UAEPAXI@Z 004e8d20 f i sp_deletetxt.obj
 0001:000e7d20       ??_E?$CAssertElxT@$0A@@@UAEPAXI@Z 004e8d20 f i sp_deletetxt.obj
 0001:000e7d50       ??_E?$CBackrefElxT@G@@UAEPAXI@Z 004e8d50 f i sp_deletetxt.obj
 0001:000e7d50       ??_G?$CBackrefElxT@G@@UAEPAXI@Z 004e8d50 f i sp_deletetxt.obj
 0001:000e7d80       ??_G?$CSortedBufferT@H@@UAEPAXI@Z 004e8d80 f i sp_deletetxt.obj
 0001:000e7d80       ??_E?$CBufferT@H@@UAEPAXI@Z 004e8d80 f i sp_deletetxt.obj
 0001:000e7d80       ??_E?$CSortedBufferT@H@@UAEPAXI@Z 004e8d80 f i sp_deletetxt.obj
 0001:000e7d80       ??_G?$CBufferT@H@@UAEPAXI@Z 004e8d80 f i sp_deletetxt.obj
 0001:000e7db0       ??1?$CBracketElxT@G@@UAE@XZ 004e8db0 f i sp_deletetxt.obj
 0001:000e7e00       ??1?$CDelegateElxT@G@@UAE@XZ 004e8e00 f i sp_deletetxt.obj
 0001:000e7e30       ??1?$CConditionElxT@G@@UAE@XZ 004e8e30 f i sp_deletetxt.obj
 0001:000e7e60       ??1?$CBackrefElxT@G@@UAE@XZ 004e8e60 f i sp_deletetxt.obj
 0001:000e7e90       ?Insert@?$CBufferT@H@@QAEXHPBHH@Z 004e8e90 f i sp_deletetxt.obj
 0001:000e7f40       ?Detach@?$CBufferT@G@@QAEPAGXZ 004e8f40 f i sp_deletetxt.obj
 0001:000e7f50       ?compareT@?$CSortedBufferT@H@@KAHPBX0@Z 004e8f50 f i sp_deletetxt.obj
 0001:000e7f80       ?Append@?$CBufferT@H@@QAEXPBHHH@Z 004e8f80 f i sp_deletetxt.obj
 0001:000e8020       ?Copy@SPDIBStretchCopy32@@SAXPAVJSurface@@0IIII_N1@Z 004e9020 f   sp_dibstretchcopy.obj
 0001:000e81f0       ?SPDictationEnumAdapterFunc@@YA_NPBGPAX@Z 004e91f0 f   sp_dicspimpl.obj
 0001:000e82c0       ??0SPDictationImpl@@QAE@PAUHWND__@@@Z 004e92c0 f   sp_dicspimpl.obj
 0001:000e88e0       ??1SPDictationImpl@@QAE@XZ 004e98e0 f   sp_dicspimpl.obj
 0001:000e89d0       ?ReloadDictationConfig@SPDictationImpl@@QAEXXZ 004e99d0 f   sp_dicspimpl.obj
 0001:000e8a30       ?IsActive@SPDictationImpl@@QAE_NXZ 004e9a30 f   sp_dicspimpl.obj
 0001:000e8a40       ?SetListenModeControlEnable@SPDictationImpl@@QAEX_N@Z 004e9a40 f   sp_dicspimpl.obj
 0001:000e8ae0       ?PauseResume@SPDictationImpl@@QAEX_N@Z 004e9ae0 f   sp_dicspimpl.obj
 0001:000e8b90       ?SelectGhost@SPDictationImpl@@QAEXPAVSPGhost@@JPBG@Z 004e9b90 f   sp_dicspimpl.obj
 0001:000e8cb0       ?VoiceRecEvent@SPDictationImpl@@QAE_NPBG@Z 004e9cb0 f   sp_dicspimpl.obj
 0001:000e8dc0       ?RecoEvent@SPDictationImpl@@QAEJIJ@Z 004e9dc0 f   sp_dicspimpl.obj
 0001:000e9330       ?UpdateStateHelper@SPDictationImpl@@QAE_NJ@Z 004ea330 f   sp_dicspimpl.obj
 0001:000e9550       ??1SPDictationEnumAdapter@@QAE@XZ 004ea550 f i sp_dicspimpl.obj
 0001:000e9550       ??1SPSpeechImplData@@QAE@XZ 004ea550 f i sp_dicspimpl.obj
 0001:000e9560       ?UpdateState@SPDictationImpl@@QAEXIJ@Z 004ea560 f   sp_dicspimpl.obj
 0001:000e95d0       ?SetListenMode@SPDictationImpl@@QAEXJ@Z 004ea5d0 f   sp_dicspimpl.obj
 0001:000e9a80       ?UpdateResultModeList@SPDictationImpl@@QAEXXZ 004eaa80 f   sp_dicspimpl.obj
 0001:000ea140       ?GetSPSpeechImpl@@YAAAVSPSpeechImpl@@XZ 004eb140 f   sp_dicspimpl.obj
 0001:000ea1d0       ??0SPSpeechImpl@@AAE@XZ    004eb1d0 f   sp_dicspimpl.obj
 0001:000ea2f0       ??_GSPSpeechImpl@@UAEPAXI@Z 004eb2f0 f i sp_dicspimpl.obj
 0001:000ea2f0       ??_ESPSpeechImpl@@UAEPAXI@Z 004eb2f0 f i sp_dicspimpl.obj
 0001:000ea320       ??1SPSpeechImpl@@UAE@XZ    004eb320 f   sp_dicspimpl.obj
 0001:000ea470       ?Start@SPSpeechImpl@@UAEHJ@Z 004eb470 f   sp_dicspimpl.obj
 0001:000ea490       ?Exit@SPSpeechImpl@@UAEHXZ 004eb490 f   sp_dicspimpl.obj
 0001:000ea4e0       ?InitInstance@SPSpeechImpl@@UAEHXZ 004eb4e0 f   sp_dicspimpl.obj
 0001:000ea570       ?LoadConfig@SPSpeechImpl@@AAEXXZ 004eb570 f   sp_dicspimpl.obj
 0001:000ea690       ?ExitInstance@SPSpeechImpl@@UAEXH@Z 004eb690 f   sp_dicspimpl.obj
 0001:000ea710       ?ClearQueue@SPSpeechImpl@@QAEXXZ 004eb710 f   sp_dicspimpl.obj
 0001:000ea800       ?SetEnable@SPSpeechImpl@@QAEX_N@Z 004eb800 f   sp_dicspimpl.obj
 0001:000ea830       ?Loop@SPSpeechImpl@@UAEHXZ 004eb830 f   sp_dicspimpl.obj
 0001:000ea900       ?Add@SPSpeechImpl@@QAEXW4SPSpeechImplType@@KHPBG_N@Z 004eb900 f   sp_dicspimpl.obj
 0001:000eaa90       ?ProcessEvent@SPSpeechImpl@@QAE?AVSPSpeechImplProcessResult@@_N@Z 004eba90 f   sp_dicspimpl.obj
 0001:000eb380       ??1?$SPCacheObj@VSPSpeechImplData@@VJDummyLockSection@@VJDummyLock@@@@QAE@XZ 004ec380 f i sp_dicspimpl.obj
 0001:000eb450       ??_ESPSpeechImplData@@QAEPAXI@Z 004ec450 f i sp_dicspimpl.obj
 0001:000eb4b0       ??0SPSpeechImplData@@QAE@XZ 004ec4b0 f i sp_dicspimpl.obj
 0001:000eb550       ??_ESPSpeechImpl@@W7AEPAXI@Z 004ec550 f i sp_dicspimpl.obj
 0001:000eb560       ?GetDicSpManager@@YAAAVSPDicSpManager@@XZ 004ec560 f   sp_dicspmanager.obj
 0001:000eb620       ??_GSPDicSpManager@@UAEPAXI@Z 004ec620 f i sp_dicspmanager.obj
 0001:000eb620       ??_ESPDicSpManager@@UAEPAXI@Z 004ec620 f i sp_dicspmanager.obj
 0001:000eb650       ??1SPDicSpManager@@UAE@XZ  004ec650 f i sp_dicspmanager.obj
 0001:000eb6d0       ?InitRecog@SPDicSpManager@@QAEXXZ 004ec6d0 f   sp_dicspmanager.obj
 0001:000eb750       ?InitVoice@SPDicSpManager@@QAEXXZ 004ec750 f   sp_dicspmanager.obj
 0001:000eb7d0       ?ReleaseRecog@SPDicSpManager@@QAEXXZ 004ec7d0 f   sp_dicspmanager.obj
 0001:000eb800       ?ReleaseVoice@SPDicSpManager@@QAEXXZ 004ec800 f   sp_dicspmanager.obj
 0001:000eb840       ?GetRecognizer@SPDicSpManager@@QAEPAUISpRecognizer@@XZ 004ec840 f   sp_dicspmanager.obj
 0001:000eb850       ?GetVoice@SPDicSpManager@@QAEPAUISpVoice@@K@Z 004ec850 f   sp_dicspmanager.obj
 0001:000eb880       ?IsRecogActive@SPDicSpManager@@QAE_NXZ 004ec880 f   sp_dicspmanager.obj
 0001:000eb890       ?IsVoiceActive@SPDicSpManager@@QAE_NXZ 004ec890 f   sp_dicspmanager.obj
 0001:000eb8a0       ?Pause@SPDicSpManager@@QAEXXZ 004ec8a0 f   sp_dicspmanager.obj
 0001:000eb8d0       ?Resume@SPDicSpManager@@QAEXXZ 004ec8d0 f   sp_dicspmanager.obj
 0001:000eb900       ?GetTokenList@SPDicSpManager@@QAEXW4tagSPDicSpType@@AAVSPStaticStringArrayW@@1@Z 004ec900 f   sp_dicspmanager.obj
 0001:000ebcb0       ?GetToken@SPDicSpManager@@AAE_NAAV?$_com_ptr_t_ssp@V?$_com_IIID_ssp@UISpObjectToken@@$1?_GUID_14056589_e16c_11d2_bb90_00c04f8ee6c0@@3U__s_GUID@@A@@@@W4tagSPDicSpType@@PBG_N@Z 004eccb0 f   sp_dicspmanager.obj
 0001:000ebf80       ?SetToken@SPDicSpManager@@QAEXW4tagSPDicSpType@@PBD@Z 004ecf80 f   sp_dicspmanager.obj
 0001:000ec300       ?TokenIsUISupported@SPDicSpManager@@QAE_NW4tagSPDicSpType@@PBG1@Z 004ed300 f   sp_dicspmanager.obj
 0001:000ec3f0       ?TokenDisplayUI@SPDicSpManager@@QAEXW4tagSPDicSpType@@PBG1PAUHWND__@@@Z 004ed3f0 f   sp_dicspmanager.obj
 0001:000ec4c0       ?GetInterfacePointer@SPDicSpManager@@AAEPAUIUnknown@@W4tagSPDicSpType@@@Z 004ed4c0 f   sp_dicspmanager.obj
 0001:000ec4e0       ??0?$_com_ptr_t_ssp@V?$_com_IIID_ssp@UISpVoice@@$1?_GUID_6c44df74_72b9_4992_a1ec_ef996e0422d4@@3U__s_GUID@@A@@@@QAE@XZ 004ed4e0 f i sp_dicspmanager.obj
 0001:000ec4f0       ?GetSPDigest@@YAAAVSPDigest@@W4SPDigest_Type@@@Z 004ed4f0 f   sp_digest.obj
 0001:000ec5a0       ??0SPDigestImpl@@QAE@W4SPDigest_Type@@@Z 004ed5a0 f i sp_digest.obj
 0001:000ec5f0       ?Update@SPDigestImpl@@UAEXPBD@Z 004ed5f0 f i sp_digest.obj
 0001:000ec620       ?Update@SPDigestImpl@@UAEXPBXK@Z 004ed620 f i sp_digest.obj
 0001:000ec680       ?GetDigest@SPDigestImpl@@UAEPBEXZ 004ed680 f i sp_digest.obj
 0001:000ec860       ?GetDigestStr@SPDigestImpl@@UAEPBDXZ 004ed860 f i sp_digest.obj
 0001:000ec870       ?GetDigestBase64Str@SPDigestImpl@@UAEPBDXZ 004ed870 f i sp_digest.obj
 0001:000ec880       ?GetDigestLength@SPDigestImpl@@UAE?BKXZ 004ed880 f i sp_digest.obj
 0001:000ec890       ??_GSPDigestImpl@@UAEPAXI@Z 004ed890 f i sp_digest.obj
 0001:000ec890       ??_ESPDigestImpl@@UAEPAXI@Z 004ed890 f i sp_digest.obj
 0001:000ec8c0       ??1SPDigestImpl@@UAE@XZ    004ed8c0 f i sp_digest.obj
 0001:000ec900       ??_GSPDigest@@UAEPAXI@Z    004ed900 f i sp_digest.obj
 0001:000ec900       ??_ESPDigest@@UAEPAXI@Z    004ed900 f i sp_digest.obj
 0001:000ec950       ?GetStrDigest@SPDigest@@SAXW4SPDigest_Type@@AAVJString@@PBDI@Z 004ed950 f   sp_digest.obj
 0001:000ec990       ?GetStrDigest@SPDigest@@SAXW4SPDigest_Type@@PADPBDI@Z 004ed990 f   sp_digest.obj
 0001:000ec9e0       ?GetBase64StrDigest@SPDigest@@SAXW4SPDigest_Type@@PADPBDI@Z 004ed9e0 f   sp_digest.obj
 0001:000eca30       ?Get0ByteDigestStr@SPDigest@@SAPBDW4SPDigest_Type@@@Z 004eda30 f   sp_digest.obj
 0001:000ecb30       ?GetFileDigestInternal@SPDigest@@CA_NW4SPDigest_Type@@PADPBGPAK@Z 004edb30 f   sp_digest.obj
 0001:000ecc90       ?GetFileDigest@SPDigest@@SA_NW4SPDigest_Type@@PADPBGPAK@Z 004edc90 f   sp_digest.obj
 0001:000eccb0       ?GetHMAC@SPDigest@@SAXPADPBD11@Z 004edcb0 f   sp_digest.obj
 0001:000ecd90       ?Create@SPDlgTemplate@@QAEXAAV?$JArray@G@@@Z 004edd90 f   sp_dlgtemplate.obj
 0001:000ecf60       ?Read@SPDlgTemplate@@QAEXPAXK@Z 004edf60 f   sp_dlgtemplate.obj
 0001:000ecfb0       ?ReadDialog@SPDlgTemplate@@QAEXI@Z 004edfb0 f   sp_dlgtemplate.obj
 0001:000ecff0       ?ReadTmpl@SPDlgTemplate@@AAEXPBGK@Z 004edff0 f   sp_dlgtemplate.obj
 0001:000ed4b0       ?ReadTmplEx@SPDlgTemplate@@AAEXPBGK@Z 004ee4b0 f   sp_dlgtemplate.obj
 0001:000ed8f0       ?Clear@SPDlgTemplate@@QAEXXZ 004ee8f0 f   sp_dlgtemplate.obj
 0001:000edb00       ??1SPDlgTemplateItem@@QAE@XZ 004eeb00 f i sp_dlgtemplate.obj
 0001:000edb80       ?Add@SPDlgTemplate@@QAEPAVSPDlgTemplateItem@@XZ 004eeb80 f   sp_dlgtemplate.obj
 0001:000edd30       ?ConvertToChild@SPDlgTemplate@@QAEXXZ 004eed30 f   sp_dlgtemplate.obj
 0001:000edd50       ?ConvertToPopup@SPDlgTemplate@@QAEXXZ 004eed50 f   sp_dlgtemplate.obj
 0001:000edd70       ?ConvertComboBox@SPDlgTemplate@@QAEXXZ 004eed70 f   sp_dlgtemplate.obj
 0001:000edde0       ?ConvertRadioButton@SPDlgTemplate@@QAEXXZ 004eede0 f   sp_dlgtemplate.obj
 0001:000ede90       ?ConvertCheckBoxTo3State@SPDlgTemplate@@QAEXK@Z 004eee90 f   sp_dlgtemplate.obj
 0001:000edf20       ?FindID@SPDlgTemplate@@QAEJK@Z 004eef20 f   sp_dlgtemplate.obj
 0001:000edf60       ?GetID@SPDlgTemplate@@QAEPBVSPDlgTemplateItem@@K@Z 004eef60 f   sp_dlgtemplate.obj
 0001:000edf90       ?GetIDText@SPDlgTemplate@@QAEPBGK@Z 004eef90 f   sp_dlgtemplate.obj
 0001:000edfb0       ?SetShellFont@SPDlgTemplate@@QAEXXZ 004eefb0 f   sp_dlgtemplate.obj
 0001:000ee060       ?AdjustHeight@SPDlgTemplate@@QAEXHH@Z 004ef060 f   sp_dlgtemplate.obj
 0001:000ee0f0       ?SetItemText@SPDlgTemplate@@QAE_NKPBG@Z 004ef0f0 f   sp_dlgtemplate.obj
 0001:000ee140       ?SPDLT_ClassTextToID@@YAGPBG@Z 004ef140 f   sp_dlgtemplate.obj
 0001:000ee1e0       ?WriteToArray@SPDlgTemplate@@AAEXAAV?$JArray@G@@@Z 004ef1e0 f   sp_dlgtemplate.obj
 0001:000ee640       ?ReadTmpl@SPDlgTemplateItem@@AAEPBGPBGK@Z 004ef640 f   sp_dlgtemplate.obj
 0001:000ee930       ?ReadTmplEx@SPDlgTemplateItem@@AAEPBGPBGK@Z 004ef930 f   sp_dlgtemplate.obj
 0001:000eec10       ?WriteToArray@SPDlgTemplateItem@@AAEXAAV?$JArray@G@@@Z 004efc10 f   sp_dlgtemplate.obj
 0001:000eef60       ?Clear@SPDlgTemplateItem@@QAEXXZ 004eff60 f   sp_dlgtemplate.obj
 0001:000ef080       ?SetResourceID@SPDlgTemplateItem@@QAEXG@Z 004f0080 f   sp_dlgtemplate.obj
 0001:000ef0c0       ?Add@?$JArray@G@@QAEXPBGJ@Z 004f00c0 f i sp_dlgtemplate.obj
 0001:000ef200       ??0SPEnumString@@QAE@KPAPAG@Z 004f0200 f   sp_enumstring.obj
 0001:000ef2d0       ??_GSPEnumString@@UAEPAXI@Z 004f02d0 f i sp_enumstring.obj
 0001:000ef2d0       ??_ESPEnumString@@UAEPAXI@Z 004f02d0 f i sp_enumstring.obj
 0001:000ef300       ??1SPEnumString@@UAE@XZ    004f0300 f   sp_enumstring.obj
 0001:000ef3d0       ?Next@SPEnumString@@UAGJKPAPAGPAK@Z 004f03d0 f   sp_enumstring.obj
 0001:000ef4f0       ?Skip@SPEnumString@@UAGJK@Z 004f04f0 f   sp_enumstring.obj
 0001:000ef530       ?Reset@SPEnumString@@UAGJXZ 004f0530 f   sp_enumstring.obj
 0001:000ef550       ?Clone@SPEnumString@@UAGJPAPAUIEnumString@@@Z 004f0550 f   sp_enumstring.obj
 0001:000ef600       ??1?$SPComObjectBase@UIEnumString@@@@UAE@XZ 004f0600 f i sp_enumstring.obj
 0001:000ef620       ?QueryInterface@?$SPComObjectBase@UIEnumString@@@@UAGJABU_GUID@@PAPAX@Z 004f0620 f i sp_enumstring.obj
 0001:000ef6e0       ??_E?$SPComObjectBase@UIEnumString@@@@UAEPAXI@Z 004f06e0 f i sp_enumstring.obj
 0001:000ef6e0       ??_G?$SPComObjectBase@UIEnumString@@@@UAEPAXI@Z 004f06e0 f i sp_enumstring.obj
 0001:000ef710       ?Release@SPEventObject@@QAEXXZ 004f0710 f   sp_eventobj.obj
 0001:000ef730       ?Create@SPEventObject@@QAE_N_N0@Z 004f0730 f   sp_eventobj.obj
 0001:000ef7a0       ?Wait@SPEventObject@@QAE_NJ@Z 004f07a0 f   sp_eventobj.obj
 0001:000ef7f0       ?WaitPump@SPEventObject@@QAE_NJ@Z 004f07f0 f   sp_eventobj.obj
 0001:000ef840       ?Pulse@SPEventObject@@QAEXXZ 004f0840 f   sp_eventobj.obj
 0001:000ef850       ?Activate@SPEventObject@@QAEXXZ 004f0850 f   sp_eventobj.obj
 0001:000ef860       ?DeActivate@SPEventObject@@QAEXXZ 004f0860 f   sp_eventobj.obj
 0001:000ef870       ?SetThru@SPEventObject@@QAEX_N@Z 004f0870 f   sp_eventobj.obj
 0001:000ef8d0       ?Init@SPFileDialog@@AAEXXZ 004f08d0 f   sp_filedialog.obj
 0001:000ef920       ??0SPFileDialog@@QAE@XZ    004f0920 f   sp_filedialog.obj
 0001:000efa00       ??1SPFileDialog@@QAE@XZ    004f0a00 f   sp_filedialog.obj
 0001:000efa20       ?SetOpenFile@SPFileDialog@@QAEXPBG00_N@Z 004f0a20 f   sp_filedialog.obj
 0001:000efac0       ?SetSaveFile@SPFileDialog@@QAEXPBG0000_N@Z 004f0ac0 f   sp_filedialog.obj
 0001:000efb70       ?DoModal@SPFileDialog@@QAEHPAUHWND__@@@Z 004f0b70 f   sp_filedialog.obj
 0001:000efbc0       ?Get@SPFileTimeOperation@@QAEHPBG@Z 004f0bc0 f   sp_filetime.obj
 0001:000efc30       ?Set@SPFileTimeOperation@@QAEHPBGI@Z 004f0c30 f   sp_filetime.obj
 0001:000efd10       ?GetSPFindFileHelper@@YAAAVSPFindFileHelper@@XZ 004f0d10 f   sp_findfile.obj
 0001:000efdf0       ??_GSPFindFileHelper@@UAEPAXI@Z 004f0df0 f i sp_findfile.obj
 0001:000efdf0       ??_ESPFindFileHelper@@UAEPAXI@Z 004f0df0 f i sp_findfile.obj
 0001:000efe20       ??1SPFindFileHelper@@UAE@XZ 004f0e20 f i sp_findfile.obj
 0001:000efe30       ??0SPFindFile@@QAE@XZ      004f0e30 f   sp_findfile.obj
 0001:000eff00       ?Close@SPFindFile@@QAEXXZ  004f0f00 f   sp_findfile.obj
 0001:000eff30       ?First@SPFindFile@@QAE_NPBD@Z 004f0f30 f   sp_findfile.obj
 0001:000f0180       ?Next@SPFindFile@@QAE_NXZ  004f1180 f   sp_findfile.obj
 0001:000f0240       ??0SPFindFileW@@QAE@XZ     004f1240 f   sp_findfile.obj
 0001:000f0320       ?Close@SPFindFileW@@QAEXXZ 004f1320 f   sp_findfile.obj
 0001:000f0370       ?First@SPFindFileW@@QAE_NPBG0@Z 004f1370 f   sp_findfile.obj
 0001:000f0780       ?Next@SPFindFileW@@QAE_NXZ 004f1780 f   sp_findfile.obj
 0001:000f0870       ?NextInternal@SPFindFileW@@AAE_NXZ 004f1870 f   sp_findfile.obj
 0001:000f0920       ?IsDir@SPFindFileW@@QAE_NXZ 004f1920 f   sp_findfile.obj
 0001:000f0930       ?FullPath@SPFindFileW@@QAEXAAVJWString@@@Z 004f1930 f   sp_findfile.obj
 0001:000f0a00       ?Compile@?$CRegexpT@G@@QAEXPBGHH@Z 004f1a00 f i sp_findfile.obj
 0001:000f0b30       ?SetW@SPFolderDialog@@QAEXPBG0@Z 004f1b30 f   sp_folderdialog.obj
 0001:000f0d50       ?DoModal@SPFolderDialog@@QAEHPAUHWND__@@@Z 004f1d50 f   sp_folderdialog.obj
 0001:000f0e40       ?SetW@SPFolderDialogInternal@@QAEXPBG0@Z 004f1e40 f   sp_folderdialog.obj
 0001:000f0f80       ?BrowseCallbackProcA@SPFolderDialogInternal@@CGHPAUHWND__@@IJJ@Z 004f1f80 f   sp_folderdialog.obj
 0001:000f0fc0       ?BrowseCallbackProcW@SPFolderDialogInternal@@CGHPAUHWND__@@IJJ@Z 004f1fc0 f   sp_folderdialog.obj
 0001:000f1000       ?DoModal@SPFolderDialogInternal@@QAEHPAUHWND__@@@Z 004f2000 f   sp_folderdialog.obj
 0001:000f1390       ?GetUnresolvePath@SPFolderListData@@QAEPBGXZ 004f2390 f   sp_folderlist.obj
 0001:000f13a0       ?SetSPProp@SPFolderListData@@QAEXPAVSPProp@@@Z 004f23a0 f   sp_folderlist.obj
 0001:000f1410       ?Release@SPFolderList@@QAEXXZ 004f2410 f   sp_folderlist.obj
 0001:000f1590       ??1SPFolderListData@@QAE@XZ 004f2590 f i sp_folderlist.obj
 0001:000f15f0       ?AddFromFolder@SPFolderList@@QAEXPBG0KI@Z 004f25f0 f   sp_folderlist.obj
 0001:000f1d90       ?MakeList@SPFolderList@@QAEKXZ 004f2d90 f   sp_folderlist.obj
 0001:000f1f20       ??ASPFolderList@@QAEPAVSPFolderListData@@K@Z 004f2f20 f   sp_folderlist.obj
 0001:000f1f40       ?FindPath@SPFolderList@@QAEHPBG@Z 004f2f40 f   sp_folderlist.obj
 0001:000f2060       ?CalcHash@?$JHash@G@@AAEKPBG@Z 004f3060 f i sp_folderlist.obj
 0001:000f20f0       ??1?$JHashData@G@@QAE@XZ   004f30f0 f i sp_folderlist.obj
 0001:000f2130       ?Get@?$JHashData@G@@QAEPAXPBGH@Z 004f3130 f i sp_folderlist.obj
 0001:000f21b0       ?Set@?$JHashData@G@@QAEXPBGPAXH@Z 004f31b0 f i sp_folderlist.obj
 0001:000f22e0       ?GetIndex@?$JHashData@G@@AAEHPBGH@Z 004f32e0 f i sp_folderlist.obj
 0001:000f2360       ?GetSPFontTable@@YAAAVSPFontTable@@XZ 004f3360 f   sp_fonttable.obj
 0001:000f23f0       ??0SPFontTable@@AAE@XZ     004f33f0 f   sp_fonttable.obj
 0001:000f2550       ??_GSPFontTable@@UAEPAXI@Z 004f3550 f i sp_fonttable.obj
 0001:000f2550       ??_ESPFontTable@@UAEPAXI@Z 004f3550 f i sp_fonttable.obj
 0001:000f2580       ??1SPFontTable@@UAE@XZ     004f3580 f   sp_fonttable.obj
 0001:000f2660       ?UpdateFontFamily@SPFontTable@@QAEX_N@Z 004f3660 f   sp_fonttable.obj
 0001:000f2890       ?Alloc@JWString@@QAEXK@Z   004f3890 f i sp_fonttable.obj
 0001:000f2b00       ??1SPFontTableEnumInfo@@QAE@XZ 004f3b00 f i sp_fonttable.obj
 0001:000f2b50       ?GetFontFamilyArray@SPFontTable@@QAEAAVSPStaticStringArrayW@@XZ 004f3b50 f   sp_fonttable.obj
 0001:000f2b60       ?IsFontInstalled@SPFontTable@@QAE_NQBG@Z 004f3b60 f   sp_fonttable.obj
 0001:000f2bb0       ?IsFontInstalledDeep@SPFontTable@@AAE_NQBG@Z 004f3bb0 f   sp_fonttable.obj
 0001:000f2d10       ?GetDefaultFontW@SPFontTable@@QAEPBGXZ 004f3d10 f   sp_fonttable.obj
 0001:000f2d60       ?GetSPGDIPlus@@YAAAVSPGDIPlus@@XZ 004f3d60 f   sp_gdiplus.obj
 0001:000f2e00       ??_GSPGDIPlus@@UAEPAXI@Z   004f3e00 f i sp_gdiplus.obj
 0001:000f2e00       ??_ESPGDIPlus@@UAEPAXI@Z   004f3e00 f i sp_gdiplus.obj
 0001:000f2e30       ??1SPGDIPlus@@UAE@XZ       004f3e30 f i sp_gdiplus.obj
 0001:000f2e40       ?Init@SPGDIPlus@@QAEXXZ    004f3e40 f   sp_gdiplus.obj
 0001:000f2ea0       ?StretchBlt@SPGDIPlus@@QAE_NPAXJJPAVJSurface@@JJAAUtagXFORM@@_N@Z 004f3ea0 f   sp_gdiplus.obj
 0001:000f2ee0       ?StretchBlt@SPGDIPlus@@QAE_NPAXJJJJPAVJSurface@@JJJJAAUtagXFORM@@_N@Z 004f3ee0 f   sp_gdiplus.obj
 0001:000f3050       ??1Matrix@Gdiplus@@QAE@XZ  004f4050 f i sp_gdiplus.obj
 0001:000f3060       ??1Graphics@Gdiplus@@QAE@XZ 004f4060 f i sp_gdiplus.obj
 0001:000f30f0       ?GetThumbnail@SPRecommendProp@@QAEPBGPAVSPGhost@@@Z 004f40f0 f   sp_ghost.obj
 0001:000f3300       ?VarGet@SPShellProp@@UAE_NPAVSPGhost@@PBGAAVJWString@@PAVSPVarSystemNode@@@Z 004f4300 f   sp_ghost.obj
 0001:000f3470       ?VarSet@SPShellProp@@UAE_NPAVSPGhost@@PBGPAGPAVSPVarSystemNode@@@Z 004f4470 f   sp_ghost.obj
 0001:000f34f0       ?ReadDescript@SPShellProp@@UAEHXZ 004f44f0 f   sp_ghost.obj
 0001:000f3890       ??0SPGhostBase@@QAE@XZ     004f4890 f   sp_ghost.obj
 0001:000f3980       ??_ESPGhostBase@@UAEPAXI@Z 004f4980 f i sp_ghost.obj
 0001:000f3980       ??_GSPGhostBase@@UAEPAXI@Z 004f4980 f i sp_ghost.obj
 0001:000f39b0       ??1SPGhostBase@@UAE@XZ     004f49b0 f   sp_ghost.obj
 0001:000f3a60       ?FindShellIDFromPath@SPGhostBase@@QAEJPBG@Z 004f4a60 f   sp_ghost.obj
 0001:000f3a80       ?FindShellIDFromName@SPGhostBase@@QAEJPBG@Z 004f4a80 f   sp_ghost.obj
 0001:000f3ad0       ?EnumShells@SPGhostBase@@UAEK_N@Z 004f4ad0 f   sp_ghost.obj
 0001:000f3d90       ?LoadShellInfo@SPGhostBase@@QAEHPAVSPFolderListData@@@Z 004f4d90 f   sp_ghost.obj
 0001:000f40a0       ?GetTypeString@SPShellProp@@UAEPBGXZ 004f50a0 f i sp_ghost.obj
 0001:000f40b0       ??_GSPShellProp@@MAEPAXI@Z 004f50b0 f i sp_ghost.obj
 0001:000f40b0       ??_ESPShellProp@@MAEPAXI@Z 004f50b0 f i sp_ghost.obj
 0001:000f40e0       ??1SPShellProp@@MAE@XZ     004f50e0 f i sp_ghost.obj
 0001:000f4200       ?EnumSurfaceSetAsShell@SPGhostBase@@QAEHXZ 004f5200 f   sp_ghost.obj
 0001:000f4720       ??0SPGhost@@QAE@XZ         004f5720 f   sp_ghost.obj
 0001:000f5410       ??_ESPGhost@@MAEPAXI@Z     004f6410 f i sp_ghost.obj
 0001:000f5410       ??_GSPGhost@@MAEPAXI@Z     004f6410 f i sp_ghost.obj
 0001:000f5440       ??1SPGhost@@MAE@XZ         004f6440 f   sp_ghost.obj
 0001:000f5c00       ?UnloadCompatibleData@SPGhost@@AAEXXZ 004f6c00 f   sp_ghost.obj
 0001:000f5d30       ??1SPTiming@@QAE@XZ        004f6d30 f i sp_ghost.obj
 0001:000f5d90       ??1SPScript@@QAE@XZ        004f6d90 f i sp_ghost.obj
 0001:000f5e10       ??1SPSong@@QAE@XZ          004f6e10 f i sp_ghost.obj
 0001:000f5e70       ??1SPNews@@QAE@XZ          004f6e70 f i sp_ghost.obj
 0001:000f5f20       ?ReleaseRecommendations@SPGhost@@AAEXH@Z 004f6f20 f   sp_ghost.obj
 0001:000f6020       ?DeleteSelf@SPGhost@@QAEXXZ 004f7020 f   sp_ghost.obj
 0001:000f6040       ?Release@SPGhost@@QAEXXZ   004f7040 f   sp_ghost.obj
 0001:000f6170       ?LoadUnloadCommand@SPGhost@@QAEHI@Z 004f7170 f   sp_ghost.obj
 0001:000f6280       ?LoadUnloadCommandFromMainThread@SPGhost@@QAEHI@Z 004f7280 f   sp_ghost.obj
 0001:000f6300       ?ReloadShioriFromTag@SPGhost@@QAEHXZ 004f7300 f   sp_ghost.obj
 0001:000f6320       ?LoadUnloadShioriFromTag@SPGhost@@QAEH_N@Z 004f7320 f   sp_ghost.obj
 0001:000f6350       ?ReloadMakotoFromTag@SPGhost@@QAEHXZ 004f7350 f   sp_ghost.obj
 0001:000f6380       ?LoadUnloadMakotoFromTag@SPGhost@@QAEH_N@Z 004f7380 f   sp_ghost.obj
 0001:000f63d0       ?GetRecommendations@SPGhost@@QAEPAV?$JPtrArray@PAVSPRecommendProp@@@@H@Z 004f73d0 f   sp_ghost.obj
 0001:000f6400       ?GetRecommendationsNum@SPGhost@@QAEKH@Z 004f7400 f   sp_ghost.obj
 0001:000f6420       ?AddRecommendations@SPGhost@@QAEPAV?$JPtrArray@PAVSPRecommendProp@@@@H@Z 004f7420 f   sp_ghost.obj
 0001:000f6520       ?EnumRecommendations@SPGhost@@QAEHH@Z 004f7520 f   sp_ghost.obj
 0001:000f68d0       ??0SPRecommendProp@@QAE@XZ 004f78d0 f i sp_ghost.obj
 0001:000f6a20       ?CheckRecommendationsNew@SPGhost@@AAEHHPAV?$JPtrArray@PAVSPRecommendProp@@@@PAG1@Z 004f7a20 f   sp_ghost.obj
 0001:000f6d00       ?EnumRecommendationsNew@SPGhost@@QAEHH@Z 004f7d00 f   sp_ghost.obj
 0001:000f6e40       ?FindWithTypeAndName@SPGhost@@QAE?AVSPTypeAndName@@PBG@Z 004f7e40 f   sp_ghost.obj
 0001:000f6fa0       ?FindLastInstalledIndex@SPGhost@@QAEJI@Z 004f7fa0 f   sp_ghost.obj
 0001:000f70c0       ?GetPropPtr@SPGhost@@QAEPAVSPProp@@IH@Z 004f80c0 f   sp_ghost.obj
 0001:000f71a0       ?SetTrayIconName@SPGhost@@QAEHPAG@Z 004f81a0 f   sp_ghost.obj
 0001:000f7410       ?SetTrayBalloon@SPGhost@@QAEHPAG@Z 004f8410 f   sp_ghost.obj
 0001:000f7680       ?SetTrayBalloonDeveloperMessage@SPGhost@@QAEHPBG@Z 004f8680 f   sp_ghost.obj
 0001:000f7800       ?EnumChoiceText@SPGhost@@QAE_NP6A_NPBGPAX@Z1@Z 004f8800 f   sp_ghost.obj
 0001:000f7850       ?FindChoiceAndFireEventFromString@SPGhost@@QAE_NPBGJ@Z 004f8850 f   sp_ghost.obj
 0001:000f7900       ?IsChoiceTextExist@SPGhost@@QAE_NXZ 004f8900 f   sp_ghost.obj
 0001:000f7940       ?UpdateChoiceTextExistState@SPGhost@@AAEXXZ 004f8940 f   sp_ghost.obj
 0001:000f7980       ?LoadGhost@SPGhost@@QAEHJH@Z 004f8980 f   sp_ghost.obj
 0001:000f8870       ?ReloadGhost@SPGhost@@QAE_NXZ 004f9870 f   sp_ghost.obj
 0001:000f88c0       ?ReloadShellWait@SPGhost@@QAE_NXZ 004f98c0 f   sp_ghost.obj
 0001:000f8920       ?ReloadShell@SPGhost@@QAE_NXZ 004f9920 f   sp_ghost.obj
 0001:000f8960       ?ReloadBalloonWait@SPGhost@@QAE_NXZ 004f9960 f   sp_ghost.obj
 0001:000f89a0       ?ReloadBalloon@SPGhost@@QAE_NXZ 004f99a0 f   sp_ghost.obj
 0001:000f89e0       ?ReloadDescript@SPGhost@@QAE_NPBG@Z 004f99e0 f   sp_ghost.obj
 0001:000f8a20       ?TextToTypeFlag@SPGhost@@SAIPBG@Z 004f9a20 f   sp_ghost.obj
 0001:000f8ad0       ?ModuleUnload@SPGhost@@QAEXH@Z 004f9ad0 f   sp_ghost.obj
 0001:000f8b30       ?ModuleUnloadDirectly@SPGhost@@QAEXXZ 004f9b30 f   sp_ghost.obj
 0001:000f8b60       ?LoadAfterModuleUnload@SPGhost@@QAEXXZ 004f9b60 f   sp_ghost.obj
 0001:000f8b90       ?LoadShell@SPGhost@@QAEHPBGH@Z 004f9b90 f   sp_ghost.obj
 0001:000f8f70       ?GetBalloonIDFromSetting@SPGhost@@QAEJXZ 004f9f70 f   sp_ghost.obj
 0001:000f9110       ?LoadGhostCore@SPGhost@@QAEXH@Z 004fa110 f   sp_ghost.obj
 0001:000f92b0       ?LoadMakotoGhost@SPGhost@@QAEHXZ 004fa2b0 f   sp_ghost.obj
 0001:000f93e0       ?LoadMakotoShell@SPGhost@@QAEHXZ 004fa3e0 f   sp_ghost.obj
 0001:000f9510       ?NotifyInitialEvents@SPGhost@@QAEX_N0@Z 004fa510 f   sp_ghost.obj
 0001:000f9800       ?LoadShiori@SPGhost@@QAEH_N@Z 004fa800 f   sp_ghost.obj
 0001:000f9ac0       ?UnloadShiori@SPGhost@@QAEH_N@Z 004faac0 f   sp_ghost.obj
 0001:000f9b80       ?UnloadMakotoGhost@SPGhost@@QAEXXZ 004fab80 f   sp_ghost.obj
 0001:000f9bd0       ?UnloadMakotoShell@SPGhost@@QAEXXZ 004fabd0 f   sp_ghost.obj
 0001:000f9c20       ?LoadPiro@SPGhost@@QAEHXZ  004fac20 f   sp_ghost.obj
 0001:000f9e50       ?SetLastUpdateExecTime@SPGhost@@QAEXXZ 004fae50 f   sp_ghost.obj
 0001:000f9e80       ?SetCompatibleMode@SPGhost@@QAEHHH@Z 004fae80 f   sp_ghost.obj
 0001:000fa530       ?LoadShellChange@SPGhost@@QAEHJH@Z 004fb530 f   sp_ghost.obj
 0001:000fa5d0       ?GetShellIDFromSetting@SPGhost@@AAEJXZ 004fb5d0 f   sp_ghost.obj
 0001:000fa6b0       ?GetDefaultShellID@SPGhost@@AAEJXZ 004fb6b0 f   sp_ghost.obj
 0001:000fa6f0       ?SaveShellSetting@SPGhost@@AAEX_N@Z 004fb6f0 f   sp_ghost.obj
 0001:000fa790       ?GetODMFromShiori@SPGhost@@QAEHH@Z 004fb790 f   sp_ghost.obj
 0001:000fb140       ?LoadDescript@SPGhost@@QAE_NPBG@Z 004fc140 f   sp_ghost.obj
 0001:000fb770       ?LoadDescriptOverride@SPGhost@@QAEHPBGH@Z 004fc770 f   sp_ghost.obj
 0001:000fbd00       ?FindInstallAccept@SPGhost@@QAEHPBG@Z 004fcd00 f   sp_ghost.obj
 0001:000fbd70       ?FindInstallAcceptReal@SPGhost@@AAEHPBG@Z 004fcd70 f   sp_ghost.obj
 0001:000fbe00       ?GetBalloonCursor@SPGhost@@QAEPAX_N@Z 004fce00 f   sp_ghost.obj
 0001:000fbe90       ?GetBalloonSelectCursor@SPGhost@@QAEPAX_N@Z 004fce90 f   sp_ghost.obj
 0001:000fbf20       ?GetEditCursor@SPGhost@@QAEPAX_N@Z 004fcf20 f   sp_ghost.obj
 0001:000fbf80       ?GetWaitCursor@SPGhost@@QAEPAX_N0@Z 004fcf80 f   sp_ghost.obj
 0001:000fbff0       ?GetGhostCursorConvert@SPGhost@@QAEPAXPAX@Z 004fcff0 f   sp_ghost.obj
 0001:000fc160       ?GetFMOString@SPGhost@@QAE_NAAVJString@@H_NAAVJWString@@0@Z 004fd160 f   sp_ghost.obj
 0001:000fc890       ?LoadBalloon@SPGhost@@QAEHJ@Z 004fd890 f   sp_ghost.obj
 0001:000fcaa0       ?DecodeEntity@SPGhost@@SAXAAVJWString@@@Z 004fdaa0 f   sp_ghost.obj
 0001:000fcc90       ?NormalizeUnicodeStringC@SPGhost@@QAEXAAVJWString@@@Z 004fdc90 f   sp_ghost.obj
 0001:000fccc0       ?MoveCharWindow@SPGhost@@QAEXJAAVSPGhostMoveInfo@@_N@Z 004fdcc0 f   sp_ghost.obj
 0001:000fcce0       ?ParseParameters@SPGhost@@SAHAAVJWString@@IAAV?$JArray@G@@AAJ@Z 004fdce0 f   sp_ghost.obj
 0001:000fd020       ?ParametersToArray@SPGhost@@SAXPAGAAV?$JPtrArray@PAG@@@Z 004fe020 f   sp_ghost.obj
 0001:000fd1c0       ?ParseBracket@SPGhost@@SAHAAVJWString@@IAAV?$JArray@G@@@Z 004fe1c0 f   sp_ghost.obj
 0001:000fd440       ?ShowHideCharBalloon@SPGhost@@AAEXJ@Z 004fe440 f   sp_ghost.obj
 0001:000fd480       ?ScanScriptToShowBalloon@SPGhost@@AAEHPBG_N@Z 004fe480 f   sp_ghost.obj
 0001:000fd7b0       ?DecodeProcClearState@SPGhost@@AAEXXZ 004fe7b0 f   sp_ghost.obj
 0001:000fd7f0       ?MoveCharAwayClose@SPGhost@@AAEXHHH@Z 004fe7f0 f   sp_ghost.obj
 0001:000fdb90       ??1SPGhostMoveInfo@@QAE@XZ 004feb90 f i sp_ghost.obj
 0001:000fdc20       ?Execute_HTTP_RSS_Get_Thread@SPGhost@@QAE_NPAXPCH@Z 004fec20 f   sp_ghost.obj
 0001:000feaf0       ?Execute_HTTP_RSS_Get@SPGhost@@QAEX_NPBG0@Z 004ffaf0 f   sp_ghost.obj
 0001:000ff960       ??0SPCmdNotifier@@QAE@XZ   00500960 f i sp_ghost.obj
 0001:000ff9e0       ??1SPGhost_HTTP_RSS_Info@@QAE@XZ 005009e0 f i sp_ghost.obj
 0001:000ffb20       ?ExecutePingThread@SPGhost@@QAEXPAXPCH@Z 00500b20 f   sp_ghost.obj
 0001:001005a0       ?ExecutePing@SPGhost@@QAEXPBG@Z 005015a0 f   sp_ghost.obj
 0001:00100a50       ??1SPGhost_PingInfo@@QAE@XZ 00501a50 f i sp_ghost.obj
 0001:00100ea0       ?ExecuteNSLookup@SPGhost@@QAEXPBG@Z 00501ea0 f   sp_ghost.obj
 0001:001010b0       ??1SPGhost_NSLookupInfo@@QAE@XZ 005020b0 f i sp_ghost.obj
 0001:00101100       ?ExecuteNSLookupThread@SPGhost@@QAEXPAXPCH@Z 00502100 f   sp_ghost.obj
 0001:00101420       ?DecodeProcAnimeExec@SPGhost@@AAEKAAVJWString@@KAAV?$JArray@J@@AAH@Z 00502420 f   sp_ghost.obj
 0001:00101610       ?DecodeProc@SPGhost@@AAEHAAVJWString@@PAVSPScriptQueueData@@@Z 00502610 f   sp_ghost.obj
 0001:001016c0       ?DecodeProcReal@SPGhost@@AAEHAAVJWString@@PAVSPScriptQueueData@@@Z 005026c0 f   sp_ghost.obj
 0001:001045a0       ?Length@JWString@@QBEKXZ   005055a0 f i sp_ghost.obj
 0001:001045b0       ??AJWString@@QAEAAGK@Z     005055b0 f i sp_ghost.obj
 0001:001045c0       ?Clear@JWString@@QAEXXZ    005055c0 f i sp_ghost.obj
 0001:001046e0       ?SetAutoScroll@SPBalloonWnd@@QAEXH@Z 005056e0 f i sp_ghost.obj
 0001:001046f0       ?DecodeVoiceCommand@SPGhost@@AAEXPBG@Z 005056f0 f   sp_ghost.obj
 0001:00104790       ?GetGhostIDFromTag@SPGhost@@QAEJPAG_N@Z 00505790 f   sp_ghost.obj
 0001:001048f0       ?GetGhostIDFromTagStatic@SPGhost@@SAJPAGJ@Z 005058f0 f   sp_ghost.obj
 0001:00104ad0       ?ExecuteChange@SPGhost@@QAEHPAG0_N@Z 00505ad0 f   sp_ghost.obj
 0001:00104c30       ?ExecuteChangeFromTag@SPGhost@@QAEHPAG0_N@Z 00505c30 f   sp_ghost.obj
 0001:00105250       ?PlayScriptValueNotify@SPGhost@@QAEHKPBG@Z 00506250 f   sp_ghost.obj
 0001:00105380       ?ExecuteExclamationTagValueNotify@SPGhost@@AAE_N_NKPAGJ@Z 00506380 f   sp_ghost.obj
 0001:00105d00       ?ExecuteExclamationTag@SPGhost@@AAEXPAGJJAAVJWString@@AAJJ@Z 00506d00 f   sp_ghost.obj
 0001:00109e90       ?wcsicmp_equal_opt@@YA_NPBG0@Z 0050ae90 f i sp_ghost.obj
 0001:0010a0d0       ?DumpSurface@SPGhost@@QAE_NAAVSPGhostDumpSurface@@@Z 0050b0d0 f   sp_ghost.obj
 0001:0010a260       ??_GSPGhostDumpSurfaceParam@@UAEPAXI@Z 0050b260 f i sp_ghost.obj
 0001:0010a260       ??_ESPGhostDumpSurfaceParam@@UAEPAXI@Z 0050b260 f i sp_ghost.obj
 0001:0010a290       ??1SPGhostDumpSurfaceParam@@UAE@XZ 0050b290 f i sp_ghost.obj
 0001:0010a310       ?DumpSurfacePurge@SPGhost@@QAEXXZ 0050b310 f   sp_ghost.obj
 0001:0010a370       ?DumpSurfaceReal@SPGhost@@QAE_NPAVSPGhostDumpSurfaceParam@@@Z 0050b370 f   sp_ghost.obj
 0001:0010a660       ??1SPGhostRaiseTimerBlock@@QAE@XZ 0050b660 f   sp_ghost.obj
 0001:0010a6e0       ?SetTimer@SPGhostRaiseTimerBlock@@QAE_NJ@Z 0050b6e0 f   sp_ghost.obj
 0001:0010a770       ?ExecuteRaiseTimer@SPGhost@@QAEXPAVSPGhostRaiseTimerBlock@@@Z 0050b770 f   sp_ghost.obj
 0001:0010aa50       ?ExecuteRaise@SPGhost@@QAEXPBGPAGJ_N@Z 0050ba50 f   sp_ghost.obj
 0001:0010b000       ?ExecuteRaiseReal@SPGhost@@QAEXPBGPAGJ_N@Z 0050c000 f   sp_ghost.obj
 0001:0010bf00       ?TranslateParam@SPGhost@@AAE_NAAVJWString@@@Z 0050cf00 f   sp_ghost.obj
 0001:0010bfb0       ?TranslateParamReal@SPGhost@@AAEXAAVJWString@@@Z 0050cfb0 f   sp_ghost.obj
 0001:0010ce00       ?GetIconName@SPGhost@@QAE_NAAVJWString@@@Z 0050de00 f   sp_ghost.obj
 0001:0010cff0       ?GetIconMinimizeName@SPGhost@@QAE_NAAVJWString@@@Z 0050dff0 f   sp_ghost.obj
 0001:0010d200       ?UpdateMe@SPGhost@@QAE_NPBG_N1PCHK@Z 0050e200 f   sp_ghost.obj
 0001:0010d450       ??_ESPUpdateParam@@UAEPAXI@Z 0050e450 f i sp_ghost.obj
 0001:0010d450       ??_GSPUpdateParam@@UAEPAXI@Z 0050e450 f i sp_ghost.obj
 0001:0010d480       ??1SPUpdateParam@@UAE@XZ   0050e480 f i sp_ghost.obj
 0001:0010deb0       ??0SPUpdateFlags@@QAE@ABV0@@Z 0050eeb0 f i sp_ghost.obj
 0001:0010def0       ?UpdateOther@SPGhost@@QAE_NPBG_N1PCH@Z 0050eef0 f   sp_ghost.obj
 0001:0010e890       ?WaitAndExitUpdateThread@SPGhost@@QAEXXZ 0050f890 f   sp_ghost.obj
 0001:0010e900       ?IsUpdatable@SPGhost@@QAE_NXZ 0050f900 f   sp_ghost.obj
 0001:0010ea60       ?GetUpdateURL@SPGhost@@QAE?AW4SPHttp_Type@@PAVJString@@0@Z 0050fa60 f   sp_ghost.obj
 0001:0010ed10       ?GetUpdateOtherURL@SPGhost@@QAE_NPAVSPProp@@AAVJString@@@Z 0050fd10 f   sp_ghost.obj
 0001:0010ef20       ?IsShowHiddenElements@SPGhost@@QBE_NXZ 0050ff20 f   sp_ghost.obj
 0001:0010ef50       ?AddStatusText@SPGhost@@QAEXAAVJWString@@@Z 0050ff50 f   sp_ghost.obj
 0001:0010f350       ?ExecuteCommonDialogThread@SPGhost@@AAEXPAXPCH@Z 00510350 f   sp_ghost.obj
 0001:0010ff10       ?ExecuteCommonDialog@SPGhost@@AAEXPBG0@Z 00510f10 f   sp_ghost.obj
 0001:00110390       ?CheckString@SPGhost@@CAKPBG0@Z 00511390 f   sp_ghost.obj
 0001:001103d0       ?Exit@SPGhost@@UAEHXZ      005113d0 f   sp_ghost.obj
 0001:00110490       ?MakeVarPath@SPGhost@@AAE_NAAVJWString@@@Z 00511490 f   sp_ghost.obj
 0001:00110520       ?SetPriority@SPGhost@@QAEXXZ 00511520 f   sp_ghost.obj
 0001:00110540       ?Loop@SPGhost@@UAEHXZ      00511540 f   sp_ghost.obj
 0001:00110d30       ?TranslateScript@SPGhost@@QAEXAAVJWString@@PBG1111@Z 00511d30 f   sp_ghost.obj
 0001:00110e30       ?IsExecuteJumpString@SPGhost@@SAHPAG@Z 00511e30 f   sp_ghost.obj
 0001:00110ee0       ?ExecuteJump@SPGhost@@QAEHPAG@Z 00511ee0 f   sp_ghost.obj
 0001:00110f10       ?ExecuteJumpFromBalloonStr@SPGhost@@QAEHPAVSPBalloonString@@@Z 00511f10 f   sp_ghost.obj
 0001:00111030       ?ExecuteJumpExec@SPGhost@@AAEHPAGH@Z 00512030 f   sp_ghost.obj
 0001:00111250       ??0SPShioriEventResult@@QAE@PBG@Z 00512250 f i sp_ghost.obj
 0001:00111280       ?PlayEntry@SPGhost@@QAEHPAGKKK@Z 00512280 f   sp_ghost.obj
 0001:001112e0       ?PlayEntry2@SPGhost@@QAEHPAG0KK@Z 005122e0 f   sp_ghost.obj
 0001:00111430       ?PlayEntryJump@SPGhost@@QAEHPAG0J@Z 00512430 f   sp_ghost.obj
 0001:00111510       ?PlayScript@SPGhost@@QAEHPBGK@Z 00512510 f   sp_ghost.obj
 0001:00111580       ?PlayScript@SPGhost@@QAEHVSPShioriEventResult@@K@Z 00512580 f   sp_ghost.obj
 0001:00111630       ?PlayScriptWithMsg@SPGhost@@QAEHPBGKKK@Z 00512630 f   sp_ghost.obj
 0001:001116a0       ?PlayScriptWithMsg@SPGhost@@QAEHVSPShioriEventResult@@KKK@Z 005126a0 f   sp_ghost.obj
 0001:00111750       ?PlayScriptWithListener@SPGhost@@QAEHVSPShioriEventResult@@KPAVSPCmdListener@@PBG@Z 00512750 f   sp_ghost.obj
 0001:00111800       ?PlayScriptInternal@SPGhost@@QAEHVSPShioriEventResult@@KKKKPAVSPCmdListener@@PBG@Z 00512800 f   sp_ghost.obj
 0001:00111e00       ?PlaySSTPScript@SPGhost@@QAEHPAGPAVSPSSTPData@@H@Z 00512e00 f   sp_ghost.obj
 0001:00112520       ?BreakScriptNoEvent@SPGhost@@QAEXXZ 00513520 f   sp_ghost.obj
 0001:00112550       ?BreakScript@SPGhost@@QAEXHHH@Z 00513550 f   sp_ghost.obj
 0001:00112730       ?PlayAITalk@SPGhost@@QAEHXZ 00513730 f   sp_ghost.obj
 0001:001127a0       ?GetAITalkOrNewsCompatible@SPGhost@@QAEPBGXZ 005137a0 f   sp_ghost.obj
 0001:00112830       ?ExecuteHeadline@SPGhost@@QAE_NPBG@Z 00513830 f   sp_ghost.obj
 0001:00112940       ?PlayTiming@SPGhost@@QAEHJJJJJ@Z 00513940 f   sp_ghost.obj
 0001:00112990       ?CommunicateResponse@SPGhost@@QAEHPAGPAVSPSSTPData@@PAVSPStaticStringArrayW@@@Z 00513990 f   sp_ghost.obj
 0001:00112a00       ?CommunicateSSTP@SPGhost@@QAEHPAVSPSSTPData@@@Z 00513a00 f   sp_ghost.obj
 0001:00112b90       ?BalloonCloseWithCheck@SPGhost@@QAEX_N@Z 00513b90 f   sp_ghost.obj
 0001:00112bc0       ?BalloonClose@SPGhost@@QAE_N_N0@Z 00513bc0 f   sp_ghost.obj
 0001:00112c90       ?BalloonCloseEvent@SPGhost@@QAEX_N@Z 00513c90 f   sp_ghost.obj
 0001:00112d40       ?IsBalloonVisible@SPGhost@@QAE_NXZ 00513d40 f   sp_ghost.obj
 0001:00112d80       ?ClearBalloons@SPGhost@@QAE_NH@Z 00513d80 f   sp_ghost.obj
 0001:00112e20       ?HideBalloons@SPGhost@@QAE_NXZ 00513e20 f   sp_ghost.obj
 0001:00112e90       ?UpdateBalloons@SPGhost@@QAEXXZ 00513e90 f   sp_ghost.obj
 0001:00112ec0       ?UpdateBalloonChar@SPGhost@@QAEXJ@Z 00513ec0 f   sp_ghost.obj
 0001:00112ef0       ?LockBalloonChar@SPGhost@@QAEXHH@Z 00513ef0 f   sp_ghost.obj
 0001:00112f10       ?UnlockBalloonAll@SPGhost@@QAEXXZ 00513f10 f   sp_ghost.obj
 0001:00112f50       ?SetCharBalloonTempAlpha@SPGhost@@QAEXJH@Z 00513f50 f   sp_ghost.obj
 0001:00112f70       ?GetCharBalloonAlphaCalc@SPGhost@@QAEHJ@Z 00513f70 f   sp_ghost.obj
 0001:00112fe0       ?CloseInputBox@SPGhost@@QAEXIPAG@Z 00513fe0 f   sp_ghost.obj
 0001:00113020       ?ShowInputBoxFromTag@SPGhost@@QAEXIPAGH@Z 00514020 f   sp_ghost.obj
 0001:00113090       ?ShowInputBox@SPGhost@@QAEXIPAG0I@Z 00514090 f   sp_ghost.obj
 0001:00113110       ?MakeIDAndNotify@SPGhost@@QAEXK@Z 00514110 f   sp_ghost.obj
 0001:00113240       ?ExitGhost@SPGhost@@QAEX_N@Z 00514240 f   sp_ghost.obj
 0001:00113280       ?LockAllBalloonUpdate@SPGhost@@AAEX_N@Z 00514280 f   sp_ghost.obj
 0001:001132d0       ?ProcessLazyCommandExec@SPGhost@@AAEXXZ 005142d0 f   sp_ghost.obj
 0001:00113310       ?CalcMessageWait@SPGhost@@AAEHH@Z 00514310 f   sp_ghost.obj
 0001:00113360       ?DispMessage@SPGhost@@AAEXHAAVJWString@@@Z 00514360 f   sp_ghost.obj
 0001:00113550       ?DispMessageSync@SPGhost@@AAEXAAVJWString@@@Z 00514550 f   sp_ghost.obj
 0001:001137b0       ?InitInstance@SPGhost@@UAEHXZ 005147b0 f   sp_ghost.obj
 0001:00113810       ?ExitInstance@SPGhost@@UAEXH@Z 00514810 f   sp_ghost.obj
 0001:001138f0       ?ClearSettings@SPGhost@@QAEX_N@Z 005148f0 f   sp_ghost.obj
 0001:001139e0       ?LockSettings@SPGhost@@QAEX_N@Z 005149e0 f   sp_ghost.obj
 0001:00113a00       ?SaveWndPos@SPGhost@@QAEXXZ 00514a00 f   sp_ghost.obj
 0001:00113b30       ?GetWord@SPGhost@@QAEPBGPBG@Z 00514b30 f   sp_ghost.obj
 0001:00113c50       ?GetScript@SPGhost@@QAEPAGPAGH@Z 00514c50 f   sp_ghost.obj
 0001:00113fb0       ?Wait@SPGhost@@AAEXH@Z     00514fb0 f   sp_ghost.obj
 0001:001140b0       ?WaitAbsolute@SPGhost@@AAEXPAGHH@Z 005150b0 f   sp_ghost.obj
 0001:00114170       ?ResetWait@SPGhost@@AAEXXZ 00515170 f   sp_ghost.obj
 0001:001141a0       ?WaitSound@SPGhost@@AAEXXZ 005151a0 f   sp_ghost.obj
 0001:001141e0       ?WaitTillScriptPlaying@SPGhost@@QAEXXZ 005151e0 f   sp_ghost.obj
 0001:001142c0       ?NotifyHwnd@SPGhost@@QAEXK@Z 005152c0 f   sp_ghost.obj
 0001:00114530       ?NotifyFolder@SPGhost@@QAEXK@Z 00515530 f   sp_ghost.obj
 0001:00114640       ?NotifyCmdListener@SPGhost@@QAEHKPAPAXH@Z 00515640 f   sp_ghost.obj
 0001:00114660       ?RequestCmdListener@SPGhost@@QAEHAAVJWString@@KPAPAXH@Z 00515660 f   sp_ghost.obj
 0001:00114690       ?NotifyPiro@SPGhost@@AAEHH@Z 00515690 f   sp_ghost.obj
 0001:00114770       ?TestNewSpecificationStatic@SPGhost@@QAE_NXZ 00515770 f   sp_ghost.obj
 0001:00114990       ?TestNewSpecificationDynamic@SPGhost@@QAE_NXZ 00515990 f   sp_ghost.obj
 0001:00114a60       ?TestCompatibleModeStatic@SPGhost@@QAE_NXZ 00515a60 f   sp_ghost.obj
 0001:00114aa0       ?CheckNewSpecification@SPGhost@@QAE_NXZ 00515aa0 f   sp_ghost.obj
 0001:00114b90       ?OnMouseEvent@SPGhost@@QAEHPAGH0HABUtagPOINT@@0HK@Z 00515b90 f   sp_ghost.obj
 0001:00114f10       ?OnNotifyTabletMode@SPGhost@@QAEH_N@Z 00515f10 f   sp_ghost.obj
 0001:00114fe0       ?OnNotifyDarkTheme@SPGhost@@QAEH_N@Z 00515fe0 f   sp_ghost.obj
 0001:001150b0       ?OnDisplayChange@SPGhost@@QAEH_N@Z 005160b0 f   sp_ghost.obj
 0001:00115340       ?OnLanguageChange@SPGhost@@QAEH_N@Z 00516340 f   sp_ghost.obj
 0001:00115570       ?OnFileDrop@SPGhost@@QAEHHPBG@Z 00516570 f   sp_ghost.obj
 0001:001156a0       ?NotifyTimeChangeEvent@SPGhost@@QAE_NPAGKK_N@Z 005166a0 f   sp_ghost.obj
 0001:00115820       ?OnTimeChange@SPGhost@@QAE_N_NKK0@Z 00516820 f   sp_ghost.obj
 0001:00115950       ?OnNotifyEventThread@SPGhost@@QAE_NPAGPAPAGHKKK_N@Z 00516950 f   sp_ghost.obj
 0001:001159f0       ?OnNotifyEventThread@SPGhost@@QAE_NAAVSPShioriEvent@@KKK@Z 005169f0 f   sp_ghost.obj
 0001:00115a90       ?OnNotifyEventThreadAllOther@SPGhost@@QAE_NAAVSPShioriEvent@@KKK@Z 00516a90 f   sp_ghost.obj
 0001:00115b30       ?OnNotifyEvent@SPGhost@@QAE_NPAGPAPAGHKKK_N@Z 00516b30 f   sp_ghost.obj
 0001:00115bd0       ?OnNotifyEvent@SPGhost@@QAE_NAAVSPShioriEvent@@KKK@Z 00516bd0 f   sp_ghost.obj
 0001:00115e20       ?OnNotifyEventAllOther@SPGhost@@QAE_NAAVSPShioriEvent@@KKK@Z 00516e20 f   sp_ghost.obj
 0001:00115e50       ?GetStringBool@SPGhost@@QAE?AVSPGhostBoolResult@@PAGH@Z 00516e50 f   sp_ghost.obj
 0001:00115ec0       ?GetString@SPGhost@@QAEPAGAAVSPShioriEvent@@_N@Z 00516ec0 f   sp_ghost.obj
 0001:00115ee0       ?GetString@SPGhost@@QAEPAGPAG_N@Z 00516ee0 f   sp_ghost.obj
 0001:00115f60       ?GetStringThread@SPGhost@@QAEPAGAAVSPShioriEvent@@_N@Z 00516f60 f   sp_ghost.obj
 0001:00115ff0       ?PushSurfaceStatus@SPGhost@@QAEXXZ 00516ff0 f   sp_ghost.obj
 0001:00116000       ?HideSurfaceFromPushStatus@SPGhost@@QAEXXZ 00517000 f   sp_ghost.obj
 0001:00116010       ?PopSurfaceStatus@SPGhost@@QAEX_N@Z 00517010 f   sp_ghost.obj
 0001:00116030       ?OnSurfaceRestore@SPGhost@@QAEHXZ 00517030 f   sp_ghost.obj
 0001:001161d0       ?SetSurfaceChar@SPGhost@@QAEHPBJKPAGHH@Z 005171d0 f   sp_ghost.obj
 0001:00116230       ?OnSurfaceChange@SPGhost@@QAEXHJJ@Z 00517230 f   sp_ghost.obj
 0001:00116500       ?OnNotifyOtherGhost@SPGhost@@QAEHXZ 00517500 f   sp_ghost.obj
 0001:00116510       ?TalkBootMessage@SPGhost@@QAEXPAPAGK@Z 00517510 f   sp_ghost.obj
 0001:00116540       ?TalkBootMessageReal@SPGhost@@AAEXPAPAGK@Z 00517540 f   sp_ghost.obj
 0001:00117180       ?GetChangeVanishScript@SPGhost@@QAE?AVSPShioriEventResult@@PAG0PAPAGH@Z 00518180 f   sp_ghost.obj
 0001:001172f0       ?OnTeach@SPGhost@@QAEHPAG@Z 005182f0 f   sp_ghost.obj
 0001:00117350       ?GetUserNameA@SPGhost@@QAEPBGXZ 00518350 f   sp_ghost.obj
 0001:00117390       ?GetGroupFlag@SPGhost@@QAEKXZ 00518390 f   sp_ghost.obj
 0001:001173b0       ?SetGroupFlagOverride@SPGhost@@QAEXK@Z 005183b0 f   sp_ghost.obj
 0001:001173e0       ?SaveBindInfo@SPGhost@@QAEXXZ 005183e0 f   sp_ghost.obj
 0001:00117510       ?LoadBindInfo@SPGhost@@QAEXXZ 00518510 f   sp_ghost.obj
 0001:00117580       ?EnumShells@SPGhost@@UAEK_N@Z 00518580 f   sp_ghost.obj
 0001:001175f0       ?GetInstalledShellList@SPGhost@@QAEXAAV?$JPtrArray@PAVSPShellProp@@@@_N@Z 005185f0 f   sp_ghost.obj
 0001:00117740       ?GetCurrentShellProp@SPGhost@@QAEPAVSPShellProp@@XZ 00518740 f   sp_ghost.obj
 0001:00117750       ?GetCurrentBalloonProp@SPGhost@@QAEPAVSPBalloonProp@@XZ 00518750 f   sp_ghost.obj
 0001:00117770       ?GetGhostProp@SPGhost@@QAEPAVSPGhostProp@@XZ 00518770 f   sp_ghost.obj
 0001:00117790       ?SetCurrentShellIndex@SPGhost@@QAE_NJPAVSPShellProp@@@Z 00518790 f   sp_ghost.obj
 0001:00117800       ?SetCurrentGhostIndex@SPGhost@@QAE_NJPAVSPGhostProp@@@Z 00518800 f   sp_ghost.obj
 0001:001178e0       ?SetCurrentBalloonIndex@SPGhost@@QAEXJPAVSPBalloonProp@@@Z 005188e0 f   sp_ghost.obj
 0001:00117920       ?CompareHash@SPGhost@@QBE_NPBE@Z 00518920 f   sp_ghost.obj
 0001:00117950       ?AddCharBalloon@SPGhost@@QAEPAVSPBalloonWnd@@J@Z 00518950 f   sp_ghost.obj
 0001:00117a50       ?DeleteBalloons@SPGhost@@QAEXH@Z 00518a50 f   sp_ghost.obj
 0001:00117b10       ?PrepareToTalk@SPGhost@@AAE_NJ_N@Z 00518b10 f   sp_ghost.obj
 0001:00117b80       ?StartBalloonTest@SPGhost@@QAEX_N@Z 00518b80 f   sp_ghost.obj
 0001:00117c30       ?EndBalloonTest@SPGhost@@QAEXXZ 00518c30 f   sp_ghost.obj
 0001:00117ca0       ?SetWaitingChoice@SPGhost@@QAEX_N@Z 00518ca0 f   sp_ghost.obj
 0001:00117cd0       ?SetWaitingXTag@SPGhost@@QAEX_N@Z 00518cd0 f   sp_ghost.obj
 0001:00117d00       ?ResetWaitingAll@SPGhost@@QAEXXZ 00518d00 f   sp_ghost.obj
 0001:00117d20       ?SendChoiceStateChange@SPGhost@@AAEXXZ 00518d20 f   sp_ghost.obj
 0001:00117d40       ?GetCharBalloon@SPGhost@@QAEPAVSPBalloonWnd@@J@Z 00518d40 f   sp_ghost.obj
 0001:00117d70       ?GetCharBalloonHwnd@SPGhost@@QAEPAUHWND__@@J@Z 00518d70 f   sp_ghost.obj
 0001:00117d90       ?GetCharNum@SPGhost@@QAEKXZ 00518d90 f   sp_ghost.obj
 0001:00117da0       ?GetMainHwnd@SPGhost@@QAEPAUHWND__@@XZ 00518da0 f   sp_ghost.obj
 0001:00117db0       ?GetCharHwnd@SPGhost@@QAEPAUHWND__@@J@Z 00518db0 f   sp_ghost.obj
 0001:00117dd0       ?GetGhostWindowVirtualDesktopGUID@SPGhost@@QAE_NAAU_GUID@@@Z 00518dd0 f   sp_ghost.obj
 0001:00117df0       ?UpdateBalloonSelection@SPGhost@@QAEXXZ 00518df0 f   sp_ghost.obj
 0001:00117e90       ?ResetAllBalloonPos@SPGhost@@QAEXXZ 00518e90 f   sp_ghost.obj
 0001:00117ee0       ?ResetAllBalloonFont@SPGhost@@QAEXXZ 00518ee0 f   sp_ghost.obj
 0001:00117f10       ?IsNoInterrupt@SPGhost@@QAE_NXZ 00518f10 f   sp_ghost.obj
 0001:00117f30       ?IsUpdating@SPGhost@@QAE_NXZ 00518f30 f   sp_ghost.obj
 0001:00117f50       ?IsBlockDND@SPGhost@@QAE_NXZ 00518f50 f   sp_ghost.obj
 0001:00117f60       ?IsBalloonShouldVisible@SPGhost@@QAE_NXZ 00518f60 f   sp_ghost.obj
 0001:00117f70       ?AddNoInterruptFlag@SPGhost@@QAEXW4SPGhost_NoInterruput_ExecSource@@K@Z 00518f70 f   sp_ghost.obj
 0001:00117f90       ?RemoveNoInterruptFlag@SPGhost@@QAEXW4SPGhost_NoInterruput_ExecSource@@K@Z 00518f90 f   sp_ghost.obj
 0001:00117fc0       ?UpdateNoInterruptFlag@SPGhost@@AAEXXZ 00518fc0 f   sp_ghost.obj
 0001:00117ff0       ?ResetNoInterruptFlag@SPGhost@@QAEXXZ 00518ff0 f   sp_ghost.obj
 0001:00118010       ?IsLocked@SPGhost@@QAEPBGXZ 00519010 f   sp_ghost.obj
 0001:00118050       ?IsMatch@SPGhost@@QAEHPBG00@Z 00519050 f   sp_ghost.obj
 0001:00118110       ?SetWallPaper@SPGhost@@QAEHPAG0@Z 00519110 f   sp_ghost.obj
 0001:001185c0       ?MakeFullPath@SPGhost@@QAEXAAVJWString@@PBG_N@Z 005195c0 f   sp_ghost.obj
 0001:00118b20       ?FindGhostFileFromRelPath@SPGhost@@QAEHAAVJWString@@PBG@Z 00519b20 f   sp_ghost.obj
 0001:00118d10       ?IsBalloonMoveable@SPGhost@@QAE_NJ@Z 00519d10 f   sp_ghost.obj
 0001:00118d60       ?LoadSettings@SPGhost@@AAEXXZ 00519d60 f   sp_ghost.obj
 0001:00118f20       ?ReloadSettings@SPGhost@@QAEXXZ 00519f20 f   sp_ghost.obj
 0001:00119240       ?IsShellProfile@SPGhost@@SA_NPBD@Z 0051a240 f   sp_ghost.obj
 0001:00119280       ?ResetSettings@SPGhost@@QAEXXZ 0051a280 f   sp_ghost.obj
 0001:00119340       ?SuspendGhost@SPGhost@@QAEXXZ 0051a340 f   sp_ghost.obj
 0001:00119360       ?ResumeGhost@SPGhost@@QAEXXZ 0051a360 f   sp_ghost.obj
 0001:00119390       ?VarGet@SPGhost@@UAE_NPAV1@PBGAAVJWString@@PAVSPVarSystemNode@@@Z 0051a390 f   sp_ghost.obj
 0001:00119ff0       ??1SPPropListNode@@UAE@XZ  0051aff0 f i sp_ghost.obj
 0001:0011a040       ??_GSPPropListNode@@UAEPAXI@Z 0051b040 f i sp_ghost.obj
 0001:0011a040       ??_ESPPropListNode@@UAEPAXI@Z 0051b040 f i sp_ghost.obj
 0001:0011a070       ?VarSet@SPGhost@@UAE_NPAV1@PBGPAGPAVSPVarSystemNode@@@Z 0051b070 f   sp_ghost.obj
 0001:0011a610       ?GetActiveHeadline@SPGhost@@QAEPAVSPHeadline@@XZ 0051b610 f   sp_ghost.obj
 0001:0011a640       ?StartOnline@SPGhost@@QAEX_N@Z 0051b640 f   sp_ghost.obj
 0001:0011a680       ?ResetOnline@SPGhost@@QAEXXZ 0051b680 f   sp_ghost.obj
 0001:0011a6a0       ?EndOnline@SPGhost@@QAEXXZ 0051b6a0 f   sp_ghost.obj
 0001:0011a6d0       ?SetProgress@SPGhost@@QAEXPAGHH@Z 0051b6d0 f   sp_ghost.obj
 0001:0011a700       ?ClearProgress@SPGhost@@QAEXXZ 0051b700 f   sp_ghost.obj
 0001:0011a720       ?CacheSuspend@SPGhost@@QAEHXZ 0051b720 f   sp_ghost.obj
 0001:0011a850       ?CacheRestore@SPGhost@@QAEHH@Z 0051b850 f   sp_ghost.obj
 0001:0011a970       ?ResetDataCache@SPGhost@@QAEXXZ 0051b970 f   sp_ghost.obj
 0001:0011a980       ?SetAlignAll@SPGhost@@AAEXXZ 0051b980 f   sp_ghost.obj
 0001:0011a9c0       ?SPGhost_GetDefaultCharset@@YAPBDAAVSPSettings@@PBD@Z 0051b9c0 f   sp_ghost.obj
 0001:0011a9f0       ?LoadModuleCharset@SPGhost@@QAEX_N@Z 0051b9f0 f   sp_ghost.obj
 0001:0011aae0       ?GetActivateSetting@SPGhost@@SAIPBG@Z 0051bae0 f   sp_ghost.obj
 0001:0011ab40       ?GetActivateSetting@SPGhost@@SAPBGI@Z 0051bb40 f   sp_ghost.obj
 0001:0011ab70       ?OnNotifyOnline@SPGhost@@QAEXXZ 0051bb70 f   sp_ghost.obj
 0001:0011aca0       ?GetSelectModeAll@SPGhost@@QAEIXZ 0051bca0 f   sp_ghost.obj
 0001:0011ace0       ?SPCNotify@SPGhost@@UAE_NKPAPAXK@Z 0051bce0 f   sp_ghost.obj
 0001:0011ad60       ?AddStatusLog@SPGhost@@QAEXPBG@Z 0051bd60 f   sp_ghost.obj
 0001:0011af00       ??0SPScriptQueueData@@AAE@XZ 0051bf00 f   sp_ghost.obj
 0001:0011b050       ?Clear@SPScriptQueueData@@QAEXXZ 0051c050 f   sp_ghost.obj
 0001:0011b2d0       ??1SPCommunicateData@@QAE@XZ 0051c2d0 f i sp_ghost.obj
 0001:0011b320       ??1SPScriptQueueData@@AAE@XZ 0051c320 f   sp_ghost.obj
 0001:0011b410       ??A?$JArray@J@@QAEAAJK@Z   0051c410 f i sp_ghost.obj
 0001:0011b410       ??A?$JPtrArray@PAVSPGhost@@@@QAEAAPAVSPGhost@@K@Z 0051c410 f i sp_ghost.obj
 0001:0011b420       ??0?$JArray@PAVSPProp@@@@QAE@ABV0@@Z 0051c420 f i sp_ghost.obj
 0001:0011b520       ??1?$SPCacheObj@VSPScriptQueueData@@VJDummyLockSection@@VJDummyLock@@@@QAE@XZ 0051c520 f i sp_ghost.obj
 0001:0011b5f0       ?Delete@?$SPCacheObj@VSPScriptQueueData@@VJDummyLockSection@@VJDummyLock@@@@QAEXPAVSPScriptQueueData@@@Z 0051c5f0 f i sp_ghost.obj
 0001:0011b710       ?DeleteArray@?$SPCacheObj@VSPScriptQueueData@@VJDummyLockSection@@VJDummyLock@@@@QAEXAAV?$JPtrArray@PAVSPScriptQueueData@@@@@Z 0051c710 f i sp_ghost.obj
 0001:0011b7e0       ??0?$JPtrArray@PAVSPScriptQueueData@@@@QAE@J@Z 0051c7e0 f i sp_ghost.obj
 0001:0011b840       ??1?$SPCacheObj@VSPGhostRaiseBlock@@VJDummyLockSection@@VJDummyLock@@@@QAE@XZ 0051c840 f i sp_ghost.obj
 0001:0011b910       ?New@?$SPCacheObj@VSPGhostRaiseBlock@@VJDummyLockSection@@VJDummyLock@@@@QAEPAVSPGhostRaiseBlock@@XZ 0051c910 f i sp_ghost.obj
 0001:0011ba90       ??0?$JPtrArray@PAVSPFolderListData@@@@QAE@J@Z 0051ca90 f i sp_ghost.obj
 0001:0011baf0       ??0?$SPCacheObj@VSPRecommendProp@@VJDummyLockSection@@VJDummyLock@@@@QAE@K@Z 0051caf0 f i sp_ghost.obj
 0001:0011bb40       ??1?$SPCacheObj@VSPRecommendProp@@VJDummyLockSection@@VJDummyLock@@@@QAE@XZ 0051cb40 f i sp_ghost.obj
 0001:0011bc10       ?New@?$SPCacheObj@VSPRecommendProp@@VJDummyLockSection@@VJDummyLock@@@@QAEPAVSPRecommendProp@@XZ 0051cc10 f i sp_ghost.obj
 0001:0011bd90       ?DeleteArray@?$SPCacheObj@VSPRecommendProp@@VJDummyLockSection@@VJDummyLock@@@@QAEXAAV?$JPtrArray@PAVSPRecommendProp@@@@@Z 0051cd90 f i sp_ghost.obj
 0001:0011bf00       ??0SPGhostRaiseBlock@@QAE@XZ 0051cf00 f i sp_ghost.obj
 0001:0011bfc0       ??1SPGhostRaiseBlock@@QAE@XZ 0051cfc0 f i sp_ghost.obj
 0001:0011bff0       ??1SPRecommendProp@@QAE@XZ 0051cff0 f i sp_ghost.obj
 0001:0011c060       ?CalcHash@?$JHash@D@@AAEKPBD@Z 0051d060 f i sp_ghost.obj
 0001:0011c0d0       ?Release@?$SPCacheObj@VSPScriptQueueData@@VJDummyLockSection@@VJDummyLock@@@@QAEXXZ 0051d0d0 f i sp_ghost.obj
 0001:0011c190       ?Release@?$SPCacheObj@VSPGhostRaiseBlock@@VJDummyLockSection@@VJDummyLock@@@@QAEXXZ 0051d190 f i sp_ghost.obj
 0001:0011c280       ??0?$JPtrArray@PAVSPGhostRaiseBlock@@@@QAE@J@Z 0051d280 f i sp_ghost.obj
 0001:0011c2e0       ?Get@?$SPSparsePtrArrayDef@PAVSPAnimeBase@@@@QAEPAVSPAnimeBase@@K@Z 0051d2e0 f i sp_ghost.obj
 0001:0011c320       ?Insert@?$JArray@PAX@@QAEXJPBQAXJ@Z 0051d320 f i sp_ghost.obj
 0001:0011c470       ?ShiftLeft@?$JArray@PAX@@QAEXJJ@Z 0051d470 f i sp_ghost.obj
 0001:0011c4e0       ?Search@?$JArray@J@@QBEJABJJ@Z 0051d4e0 f i sp_ghost.obj
 0001:0011c4e0       ?Search@?$JArray@PAX@@QBEJABQAXJ@Z 0051d4e0 f i sp_ghost.obj
 0001:0011c520       ?Add@?$JArray@PAX@@QAEAAPAXXZ 0051d520 f i sp_ghost.obj
 0001:0011c520       ?Add@?$JArray@J@@QAEAAJXZ  0051d520 f i sp_ghost.obj
 0001:0011c520       ?Add@?$JArray@K@@QAEAAKXZ  0051d520 f i sp_ghost.obj
 0001:0011c620       ?Size@?$JArray@K@@QBEKXZ   0051d620 f i sp_ghost.obj
 0001:0011c620       ?Size@?$JArray@PAX@@QBEKXZ 0051d620 f i sp_ghost.obj
 0001:0011c620       ?Size@?$JArray@J@@QBEKXZ   0051d620 f i sp_ghost.obj
 0001:0011c620       ?Size@?$JArray@PAVSPProp@@@@QBEKXZ 0051d620 f i sp_ghost.obj
 0001:0011c640       ?SetNumNoPurge@?$JArray@K@@QAEXK_N@Z 0051d640 f i sp_ghost.obj
 0001:0011c640       ?SetNumNoPurge@?$JArray@H@@QAEXK_N@Z 0051d640 f i sp_ghost.obj
 0001:0011c640       ?SetNumNoPurge@?$JArray@PAX@@QAEXK_N@Z 0051d640 f i sp_ghost.obj
 0001:0011c640       ?SetNumNoPurge@?$JArray@PAVSPProp@@@@QAEXK_N@Z 0051d640 f i sp_ghost.obj
 0001:0011c640       ?SetNumNoPurge@?$JArray@J@@QAEXK_N@Z 0051d640 f i sp_ghost.obj
 0001:0011c6a0       ?ShiftRight@?$JArray@PAX@@QAEXJJ@Z 0051d6a0 f i sp_ghost.obj
 0001:0011c810       ?_Pop_heap@std@@YAXPAPAVSPShellProp@@00PAV2@U?$JArray_PointerPred@PAVSPShellProp@@@@PAH@Z 0051d810 f i sp_ghost.obj
 0001:0011c8d0       ??_ESPShellProp@@O3AEPAXI@Z 0051d8d0 f i sp_ghost.obj
 0001:0011c8e0       ??_ESPGhost@@O7AEPAXI@Z    0051d8e0 f i sp_ghost.obj
 0001:0011c8f0       ??_ESPGhost@@OEE@AEPAXI@Z  0051d8f0 f i sp_ghost.obj
 0001:0011c900       ??_ESPGhost@@OEI@AEPAXI@Z  0051d900 f i sp_ghost.obj
 0001:0011c910       ?GetSPGhostDlgHWndManager@@YAAAVSPGhostDlgHWndManager@@XZ 0051d910 f   sp_ghost_dlg_hwnd.obj
 0001:0011c9a0       ??0SPGhostDlgHWndManager@@AAE@XZ 0051d9a0 f   sp_ghost_dlg_hwnd.obj
 0001:0011ca00       ??_ESPGhostDlgHWndManager@@UAEPAXI@Z 0051da00 f i sp_ghost_dlg_hwnd.obj
 0001:0011ca00       ??_GSPGhostDlgHWndManager@@UAEPAXI@Z 0051da00 f i sp_ghost_dlg_hwnd.obj
 0001:0011ca30       ??1SPGhostDlgHWndManager@@UAE@XZ 0051da30 f   sp_ghost_dlg_hwnd.obj
 0001:0011cb10       ?Add@SPGhostDlgHWndManager@@QAEKPAVSPGhost@@PBG@Z 0051db10 f   sp_ghost_dlg_hwnd.obj
 0001:0011cd50       ?Release@SPGhostDlgHWndManager@@QAEXK@Z 0051dd50 f   sp_ghost_dlg_hwnd.obj
 0001:0011ce40       ?Delete@SPGhostDlgHWndManager@@AAEXPAX@Z 0051de40 f   sp_ghost_dlg_hwnd.obj
 0001:0011cef0       ?Update@SPGhostDlgHWndManager@@AAEXPAX@Z 0051def0 f   sp_ghost_dlg_hwnd.obj
 0001:0011cfa0       ?Close@SPGhostDlgHWndManager@@QAEXPAVSPGhost@@PBG@Z 0051dfa0 f   sp_ghost_dlg_hwnd.obj
 0001:0011d0d0       ?GetHookHandle@SPGhostDlgHWndManager@@QAEPAXK@Z 0051e0d0 f   sp_ghost_dlg_hwnd.obj
 0001:0011d170       ?IsCancel@SPGhostDlgHWndManager@@QAE_NK@Z 0051e170 f   sp_ghost_dlg_hwnd.obj
 0001:0011d210       ??0SPGhostLoader@@QAE@XZ   0051e210 f   sp_ghostloader.obj
 0001:0011d2c0       ??_GSPGhostLoader@@UAEPAXI@Z 0051e2c0 f i sp_ghostloader.obj
 0001:0011d2c0       ??_ESPGhostLoader@@UAEPAXI@Z 0051e2c0 f i sp_ghostloader.obj
 0001:0011d2f0       ??1SPGhostLoader@@UAE@XZ   0051e2f0 f   sp_ghostloader.obj
 0001:0011d400       ?Clear@SPGhostLoaderInfo@@QAEXXZ 0051e400 f   sp_ghostloader.obj
 0001:0011d540       ?ProcessCallTarget@SPGhostLoaderInfo@@QAEXXZ 0051e540 f   sp_ghostloader.obj
 0001:0011d580       ??1SPGhostLoaderInfo@@AAE@XZ 0051e580 f   sp_ghostloader.obj
 0001:0011d5d0       ?Loop@SPGhostLoader@@UAEHXZ 0051e5d0 f   sp_ghostloader.obj
 0001:0011d650       ?ExitInstance@SPGhostLoader@@UAEXH@Z 0051e650 f   sp_ghostloader.obj
 0001:0011d660       ?LoadGhost@SPGhostLoader@@QAEHPAVSPGhostLoaderInfo@@@Z 0051e660 f   sp_ghostloader.obj
 0001:0011d6b0       ?GhostLoadProc@SPGhostLoader@@AAEXPAVSPGhostLoaderInfo@@@Z 0051e6b0 f   sp_ghostloader.obj
 0001:0011d900       ?GhostLoadProcSub@SPGhostLoader@@AAE_NPAVSPGhostLoaderInfo@@@Z 0051e900 f   sp_ghostloader.obj
 0001:0011dbb0       ?PlayMessenger@SPGhostLoader@@AAEXPAVSPGhostLoaderInfo@@PAVSPGhost@@H@Z 0051ebb0 f   sp_ghostloader.obj
 0001:0011dce0       ?FinalCheck@SPGhostLoader@@QAEHXZ 0051ece0 f   sp_ghostloader.obj
 0001:0011dd10       ?FinalCheckExec@SPGhostLoader@@AAEXXZ 0051ed10 f   sp_ghostloader.obj
 0001:0011dda0       ??1?$SPCacheObj@VSPGhostLoaderInfo@@VJCriticalSection@@VJLock@@@@QAE@XZ 0051eda0 f i sp_ghostloader.obj
 0001:0011deb0       ?New@?$SPCacheObj@VSPGhostLoaderInfo@@VJCriticalSection@@VJLock@@@@QAEPAVSPGhostLoaderInfo@@XZ 0051eeb0 f i sp_ghostloader.obj
 0001:0011e050       ??0SPGhostLoaderInfo@@AAE@XZ 0051f050 f i sp_ghostloader.obj
 0001:0011e130       ?Reset@?$SPCacheObj@VSPGhostLoaderInfo@@VJCriticalSection@@VJLock@@@@QAEXXZ 0051f130 f i sp_ghostloader.obj
 0001:0011e2f0       ?Delete@?$SPCacheObj@VSPGhostLoaderInfo@@VJCriticalSection@@VJLock@@@@QAEXPAVSPGhostLoaderInfo@@@Z 0051f2f0 f i sp_ghostloader.obj
 0001:0011e430       ?ParseParam@SPGhostMoveInfo@@QAEXPBG@Z 0051f430 f   sp_ghostmovemanager.obj
 0001:0011e770       ?Create@SPGhostMoveManagerInfo@@SAPAV1@PAVSPSerikoAnimation@@PAVSPGhostMoveInfo@@_N2@Z 0051f770 f   sp_ghostmovemanager.obj
 0001:0011e8a0       ?CreateMe@SPGhostMoveManagerInfo@@QAE_NPAVSPSerikoAnimation@@PAVSPGhostMoveInfo@@_N2@Z 0051f8a0 f   sp_ghostmovemanager.obj
 0001:0011f3e0       ?Execute@SPGhostMoveManagerInfo@@QAEHPAVSPSerikoAnimation@@@Z 005203e0 f   sp_ghostmovemanager.obj
 0001:0011f4d0       ?SetWindowPosVirtualSticky@SPGhostMoveManagerInfo@@QAEXPAVSPSerikoAnimation@@JJ@Z 005204d0 f   sp_ghostmovemanager.obj
 0001:0011f570       ?Process@SPGhostMoveManager@@QAEJAAJ@Z 00520570 f   sp_ghostmovemanager.obj
 0001:0011f770       ?CancelAll@SPGhostMoveManager@@QAEXXZ 00520770 f   sp_ghostmovemanager.obj
 0001:0011f7e0       ??1SPGhostMoveManagerInfo@@QAE@XZ 005207e0 f i sp_ghostmovemanager.obj
 0001:0011f850       ?Execute@SPGhostMoveManager@@QAE_NPAVSPGhostMoveInfo@@_N1@Z 00520850 f   sp_ghostmovemanager.obj
 0001:0011fa50       ?CalcMinimumTime@SPGhostMoveManager@@AAEXXZ 00520a50 f   sp_ghostmovemanager.obj
 0001:0011fa80       ??0SPHeadline@@QAE@XZ      00520a80 f   sp_headline.obj
 0001:0011fde0       ?GetLogEnable@SPModule@@UAE_NXZ 00520de0 f i sp_headline.obj
 0001:0011fdf0       ?Lock@SPModule@@UAE_NJ@Z   00520df0 f i sp_headline.obj
 0001:0011fe10       ?Unlock@SPModule@@UAEXXZ   00520e10 f i sp_headline.obj
 0001:0011fe20       ?Name@SPHeadline@@UAEPBGXZ 00520e20 f i sp_headline.obj
 0001:0011fe20       ?GetModuleDesc@SPHeadline@@UAEPBGXZ 00520e20 f i sp_headline.obj
 0001:0011fe30       ?GetLogFileName@SPHeadline@@UAEPBGXZ 00520e30 f i sp_headline.obj
 0001:0011fe40       ?GetTypeString@SPHeadline@@UAEPBGXZ 00520e40 f i sp_headline.obj
 0001:0011fe50       ??_ESPHeadline@@MAEPAXI@Z  00520e50 f i sp_headline.obj
 0001:0011fe50       ??_GSPHeadline@@MAEPAXI@Z  00520e50 f i sp_headline.obj
 0001:0011fe80       ??1SPHeadline@@MAE@XZ      00520e80 f   sp_headline.obj
 0001:00120120       ?VarGet@SPHeadline@@UAE_NPAVSPGhost@@PBGAAVJWString@@PAVSPVarSystemNode@@@Z 00521120 f   sp_headline.obj
 0001:001201a0       ?VarSet@SPHeadline@@UAE_NPAVSPGhost@@PBGPAGPAVSPVarSystemNode@@@Z 005211a0 f   sp_headline.obj
 0001:001201c0       ?Load@SPHeadline@@QAEHPBG@Z 005211c0 f   sp_headline.obj
 0001:00120430       ?Unload@SPHeadline@@QAEXXZ 00521430 f   sp_headline.obj
 0001:00120460       ?LoadScript@SPHeadline@@QAEHXZ 00521460 f   sp_headline.obj
 0001:001207c0       ?ReadDescript@SPHeadline@@UAEHXZ 005217c0 f   sp_headline.obj
 0001:00120ef0       ?Execute@SPHeadline@@QAE_NPAVSPGhost@@H@Z 00521ef0 f   sp_headline.obj
 0001:001210e0       ?SPCNotify@SPHeadline@@UAE_NKPAPAXK@Z 005220e0 f   sp_headline.obj
 0001:00121120       ?CloseConnection@SPHeadline@@AAEXXZ 00522120 f   sp_headline.obj
 0001:00121140       ?ExecuteNext@SPHeadline@@QAE_NPAVSPGhost@@@Z 00522140 f   sp_headline.obj
 0001:00121180       ?ExecuteOld@SPHeadline@@QAE_NPAVSPGhost@@@Z 00522180 f   sp_headline.obj
 0001:001211c0       ?SplitOldData@SPHeadline@@AAEHPAVSPStaticStringArrayW@@00PAG@Z 005221c0 f   sp_headline.obj
 0001:00121280       ?GetHeadline@SPHeadline@@AAEHPAVSPStaticStringArrayW@@00PBG@Z 00522280 f   sp_headline.obj
 0001:00121750       ?GetVersionRequestImpl@SPHeadline@@EAEHXZ 00522750 f   sp_headline.obj
 0001:00121890       ?ThreadProc@SPHeadline@@QAEHXZ 00522890 f   sp_headline.obj
 0001:001219b0       ?ThreadProcSub@SPHeadline@@AAEXAAVJWString@@@Z 005229b0 f   sp_headline.obj
 0001:00121e40       ?ReadURL@SPHeadline@@AAEHPBG0@Z 00522e40 f   sp_headline.obj
 0001:00121fa0       ?Failure@SPHeadline@@AAEXPAG0@Z 00522fa0 f   sp_headline.obj
 0001:00122090       ?NotUpdated@SPHeadline@@AAEXXZ 00523090 f   sp_headline.obj
 0001:00122200       ?CheckSpecificDLL@SPHeadline@@AAEXH@Z 00523200 f   sp_headline.obj
 0001:001223a0       ?PlayHeadline@SPHeadline@@AAE_NH@Z 005233a0 f   sp_headline.obj
 0001:001230b0       ??_ESPHeadline@@O3AEPAXI@Z 005240b0 f i sp_headline.obj
 0001:001230c0       ??_ESPHeadline@@OCIE@AEPAXI@Z 005240c0 f i sp_headline.obj
 0001:001230d0       ??_ESPHeadline@@OIHA@AEPAXI@Z 005240d0 f i sp_headline.obj
 0001:001230e0       ??0SPHeadlineRSS@@QAE@XZ   005240e0 f   sp_headlinerss.obj
 0001:001231e0       ??1SPHeadlineRSS@@QAE@XZ   005241e0 f   sp_headlinerss.obj
 0001:00123290       ?Release@SPHeadlineRSS@@QAEXXZ 00524290 f   sp_headlinerss.obj
 0001:00123470       ?Parse@SPHeadlineRSS@@QAEHPBG_N@Z 00524470 f   sp_headlinerss.obj
 0001:001235c0       ?ParseJSON@SPHeadlineRSS@@AAEHPBD_N@Z 005245c0 f   sp_headlinerss.obj
 0001:00123be0       ?ParseXML@SPHeadlineRSS@@AAEHPBD_N@Z 00524be0 f   sp_headlinerss.obj
 0001:00124560       ??1SPHeadlineRSSElement@@QAE@XZ 00525560 f i sp_headlinerss.obj
 0001:00124600       ?Sort@SPHeadlineRSS@@AAEXXZ 00525600 f   sp_headlinerss.obj
 0001:00124630       ?JoinChildText@SPHeadlineRSS@@AAEXPBVXMLElement@tinyxml2@@AAVJWString@@1@Z 00525630 f   sp_headlinerss.obj
 0001:00124740       ?GetSingleText@SPHeadlineRSS@@AAEHPBVXMLNode@tinyxml2@@PAPBDIAAVJWString@@@Z 00525740 f   sp_headlinerss.obj
 0001:00124960       ?WriteError@SPHeadlineRSS@@AAEXAAVXMLDocument@tinyxml2@@PAG@Z 00525960 f   sp_headlinerss.obj
 0001:00124a90       ?GetFeedData@SPHeadlineRSS@@QAEXPAVSPStaticStringArrayW@@00@Z 00525a90 f   sp_headlinerss.obj
 0001:00124c50       ?GetFeedData@SPHeadlineRSS@@QAEXAAVSPStaticStringArrayW@@@Z 00525c50 f   sp_headlinerss.obj
 0001:00124fe0       ?SelectUpdateGhost@SPHeadlineRSS@@QAEXAAV?$JArray@K@@0AAVSPStaticStringArrayA@@@Z 00525fe0 f   sp_headlinerss.obj
 0001:001251a0       ?GetHomeURLFromGhostProp@SPHeadlineRSS@@QAEXAAV?$JPtrArray@PAVSPProp@@@@AAVSPStaticStringArrayA@@@Z 005261a0 f   sp_headlinerss.obj
 0001:00125330       ?GetNodes@SPHeadlineRSS@@CAPBVXMLNode@tinyxml2@@PBV23@PBDAAV?$JPtrArray@PBVXMLNode@tinyxml2@@@@PAPBVXMLAttribute@3@H@Z 00526330 f   sp_headlinerss.obj
 0001:00125580       ?GetSingleNode@SPHeadlineRSS@@CAPBVXMLNode@tinyxml2@@PBV23@PBDPAPBVXMLAttribute@3@@Z 00526580 f   sp_headlinerss.obj
 0001:00125600       ?_Stable_sort@std@@YAXPAPAVSPHeadlineRSSElement@@0PAH0U?$JArray_PointerPred@PAVSPHeadlineRSSElement@@@@@Z 00526600 f i sp_headlinerss.obj
 0001:001257d0       ?_Stable_sort@std@@YAXPAPAVSPHeadlineRSSElement@@0HAAV?$_Temp_iterator@PAVSPHeadlineRSSElement@@@1@U?$JArray_PointerPred@PAVSPHeadlineRSSElement@@@@@Z 005267d0 f i sp_headlinerss.obj
 0001:00125af0       ?_Buffered_merge_sort@std@@YAXPAPAVSPHeadlineRSSElement@@0HAAV?$_Temp_iterator@PAVSPHeadlineRSSElement@@@1@U?$JArray_PointerPred@PAVSPHeadlineRSSElement@@@@@Z 00526af0 f i sp_headlinerss.obj
 0001:00125d70       ?_Buffered_merge@std@@YAXPAPAVSPHeadlineRSSElement@@00HHAAV?$_Temp_iterator@PAVSPHeadlineRSSElement@@@1@U?$JArray_PointerPred@PAVSPHeadlineRSSElement@@@@@Z 00526d70 f i sp_headlinerss.obj
 0001:00126140       ??0?$_Temp_iterator@PAVSPHeadlineRSSElement@@@std@@QAE@ABV01@@Z 00527140 f i sp_headlinerss.obj
 0001:00126140       ??0?$_Temp_iterator@PAVSPBindEntry@@@std@@QAE@ABV01@@Z 00527140 f i sp_headlinerss.obj
 0001:00126160       ?_Insertion_sort_1@std@@YAXPAPAVSPHeadlineRSSElement@@0U?$JArray_PointerPred@PAVSPHeadlineRSSElement@@@@0@Z 00527160 f i sp_headlinerss.obj
 0001:001261e0       ?_Chunked_merge@std@@YAXPAPAVSPHeadlineRSSElement@@0AAV?$_Temp_iterator@PAVSPHeadlineRSSElement@@@1@HHU?$JArray_PointerPred@PAVSPHeadlineRSSElement@@@@@Z 005271e0 f i sp_headlinerss.obj
 0001:001262f0       ?_Chunked_merge@std@@YAXPAPAVSPHeadlineRSSElement@@0AAPAPAV2@HHU?$JArray_PointerPred@PAVSPHeadlineRSSElement@@@@@Z 005272f0 f i sp_headlinerss.obj
 0001:00126440       ?merge@std@@YAPAPAVSPHeadlineRSSElement@@PAPAV2@0000U?$JArray_PointerPred@PAVSPHeadlineRSSElement@@@@@Z 00527440 f i sp_headlinerss.obj
 0001:001264c0       ?_Unguarded_insert@std@@YAXPAPAVSPHeadlineRSSElement@@PAV2@U?$JArray_PointerPred@PAVSPHeadlineRSSElement@@@@@Z 005274c0 f i sp_headlinerss.obj
 0001:00126510       ?merge@std@@YA?AV?$_Temp_iterator@PAVSPHeadlineRSSElement@@@1@PAPAVSPHeadlineRSSElement@@000V21@U?$JArray_PointerPred@PAVSPHeadlineRSSElement@@@@@Z 00527510 f i sp_headlinerss.obj
 0001:00126620       ?_Lower_bound@std@@YAPAPAVSPHeadlineRSSElement@@PAPAV2@0ABQAV2@U?$JArray_PointerPred@PAVSPHeadlineRSSElement@@@@PAH@Z 00527620 f i sp_headlinerss.obj
 0001:00126670       ?rotate@std@@YAXPAPAVSPBindEntry@@00@Z 00527670 f i sp_headlinerss.obj
 0001:00126670       ?rotate@std@@YAXPAPAVSPHeadlineRSSElement@@00@Z 00527670 f i sp_headlinerss.obj
 0001:00126720       ?GetSPHistory@@YAAAVSPHistory@@XZ 00527720 f   sp_history.obj
 0001:001268d0       ??_GSPHistory@@UAEPAXI@Z   005278d0 f i sp_history.obj
 0001:001268d0       ??_ESPHistory@@UAEPAXI@Z   005278d0 f i sp_history.obj
 0001:00126900       ??1SPHistory@@UAE@XZ       00527900 f i sp_history.obj
 0001:00126b10       ??_F?$JPtrArray@PAVJWString@@@@QAEXXZ 00527b10 f i sp_history.obj
 0001:00126b20       ?Save@SPHistory@@QAEXH@Z   00527b20 f   sp_history.obj
 0001:00126bb0       ?SaveOne@SPHistory@@AAEXH@Z 00527bb0 f   sp_history.obj
 0001:00126ca0       ?Load@SPHistory@@QAEXXZ    00527ca0 f   sp_history.obj
 0001:00126f40       ?GetGhost@SPHistory@@QAEPAVSPGhostProp@@K@Z 00527f40 f   sp_history.obj
 0001:00126fe0       ?Get@SPHistory@@QAEPAVSPProp@@W4SPHistoryID@@K@Z 00527fe0 f   sp_history.obj
 0001:001270f0       ?Add@SPHistory@@QAEXW4SPHistoryID@@PAVSPProp@@@Z 005280f0 f   sp_history.obj
 0001:001273e0       ?ValidateCache@SPHistory@@AAEXW4SPHistoryID@@@Z 005283e0 f   sp_history.obj
 0001:001275f0       ?SetHistoryNum@SPHistory@@QAEXK@Z 005285f0 f   sp_history.obj
 0001:00127620       ?UpdateHistoryNum@SPHistory@@QAEXXZ 00528620 f   sp_history.obj
 0001:00127760       ?VarGet@SPHistory@@UAE_NPAVSPGhost@@PBGAAVJWString@@PAVSPVarSystemNode@@@Z 00528760 f   sp_history.obj
 0001:00127b00       ?DeleteAllObject@?$JPtrArray@PAVJWString@@@@QAEXXZ 00528b00 f i sp_history.obj
 0001:00127b70       ??_GJWString@@QAEPAXI@Z    00528b70 f i sp_history.obj
 0001:00127ba0       ??1?$JHashData@D@@QAE@XZ   00528ba0 f i sp_history.obj
 0001:00127be0       ??_ESPHistory@@W3AEPAXI@Z  00528be0 f i sp_history.obj
 0001:00127bf0       ?SetSSLVerify@SPHttp@@SAXH@Z 00528bf0 f   sp_http.obj
 0001:00127c10       ?SetProxyAuth@SPHttp@@AAEXPBD0@Z 00528c10 f   sp_http.obj
 0001:00127cd0       ?SetConnectionAuth@SPHttp@@QAEXPBD0@Z 00528cd0 f   sp_http.obj
 0001:00127d20       ?SetCookie@SPHttp@@QAEXPBD@Z 00528d20 f   sp_http.obj
 0001:00127d50       ?Connect@SPHttp@@QAEHPBD@Z 00528d50 f   sp_http.obj
 0001:00127eb0       ?ConnectInternal@SPHttp@@QAEHPBD@Z 00528eb0 f   sp_http.obj
 0001:00128160       ?Reconnect@SPHttp@@AAEHXZ  00529160 f   sp_http.obj
 0001:001285e0       ?ErrorTextStatic@SPHttp@@SAPBGH@Z 005295e0 f   sp_http.obj
 0001:00128690       ?ErrorText@SPHttp@@QAEPBGH@Z 00529690 f   sp_http.obj
 0001:001286c0       ?Close@SPHttp@@QAEXH@Z     005296c0 f   sp_http.obj
 0001:001287c0       ?Break@SPHttp@@QAEXXZ      005297c0 f   sp_http.obj
 0001:00128810       ?CloseInternal@SPHttp@@QAEXH@Z 00529810 f   sp_http.obj
 0001:00128860       ?IsSocketError@SPHttp@@AAEHXZ 00529860 f   sp_http.obj
 0001:001288a0       ?SetIfModifiedSince@SPHttp@@QAEXPBG@Z 005298a0 f   sp_http.obj
 0001:00128920       ?RetryConnect@SPHttp@@AAEHPBGPBD1W4SPHttp_Method@@K1@Z 00529920 f   sp_http.obj
 0001:001289e0       ?ReadSimple@SPHttp@@QAEHPBGPBD1W4SPHttp_Method@@K1@Z 005299e0 f   sp_http.obj
 0001:00128a70       ?ReadSimple@SPHttp@@QAEHPBG0PBDW4SPHttp_Method@@K1@Z 00529a70 f   sp_http.obj
 0001:00128c50       ?Read@SPHttp@@QAEHPBGPBD1W4SPHttp_Method@@K1@Z 00529c50 f   sp_http.obj
 0001:00128d00       ?WriteLog@SPHttp@@AAEXH@Z  00529d00 f   sp_http.obj
 0001:001290a0       ?RealReadCreateStreamFilter@SPHttp@@AAEPAVSPStreamFilter@@AAVJString@@@Z 0052a0a0 f   sp_http.obj
 0001:00129410       ?RealRead@SPHttp@@AAEHPBGPBD1W4SPHttp_Method@@K1@Z 0052a410 f   sp_http.obj
 0001:0012b6b0       ?RealReadHeader@SPHttp@@AAE_NAAVJString@@@Z 0052c6b0 f   sp_http.obj
 0001:0012b840       ?RealReadContent@SPHttp@@AAEHPAVSPStreamFilter@@PBGPAVJStream@@_NK@Z 0052c840 f   sp_http.obj
 0001:0012bba0       ?SetFlag@SPHttp@@AAEXIH@Z  0052cba0 f   sp_http.obj
 0001:0012bbe0       ?CallNotifyProc@SPHttp@@AAEXXZ 0052cbe0 f   sp_http.obj
 0001:0012bc40       ?ExecAuth@SPHttp@@AAEHPBGPADK@Z 0052cc40 f   sp_http.obj
 0001:0012be10       ?MakeConnectionAuth@SPHttp@@AAEHPAD0@Z 0052ce10 f   sp_http.obj
 0001:0012bf80       ?Redirect@SPHttp@@AAEHPBGPADK@Z 0052cf80 f   sp_http.obj
 0001:0012c2f0       ?LastExtFromContentType@SPHttp@@QBEPBDXZ 0052d2f0 f   sp_http.obj
 0001:0012c5d0       ?LastHost@SPHttp@@QBEXAAVJString@@H@Z 0052d5d0 f   sp_http.obj
 0001:0012c770       ?LastFullUrl@SPHttp@@QBEXAAVJWString@@_N11@Z 0052d770 f   sp_http.obj
 0001:0012c8c0       ?LastFullUrl@SPHttp@@QBEXAAVJString@@_N11@Z 0052d8c0 f   sp_http.obj
 0001:0012ca60       ?LastFullUrlFrom@SPHttp@@QAEXAAVJString@@PBD@Z 0052da60 f   sp_http.obj
 0001:0012cb80       ?GetProtocolScheme@SPHttp@@SAPADW4SPHttp_Type@@@Z 0052db80 f   sp_http.obj
 0001:0012cbb0       ?IsRetriableErrorCode@SPHttp@@SA_NH@Z 0052dbb0 f   sp_http.obj
 0001:0012cc30       ?GetDefaultPort@SPHttp@@QBEHXZ 0052dc30 f   sp_http.obj
 0001:0012cc50       ?FileProtocolHandler@SPHttp@@AAEHPBGPBD@Z 0052dc50 f   sp_http.obj
 0001:0012ceb0       ?DataProtocolHandler@SPHttp@@AAEHPBGPBD@Z 0052deb0 f   sp_http.obj
 0001:0012d1b0       ?SPGhostProgressProc@@YAJPAXKK@Z 0052e1b0 f   sp_httputil.obj
 0001:0012d1d0       ?SPLoadIconFromFile@@YAPAUHICON__@@PBGHII@Z 0052e1d0 f   sp_iconloader.obj
 0001:0012d6d0       ??0SPInitOnceImpl@@QAE@XZ  0052e6d0 f i sp_initonce.obj
 0001:0012d740       ??1SPInitOnceImpl@@QAE@XZ  0052e740 f i sp_initonce.obj
 0001:0012d7b0       ?GetSPInitOnce@@YAAAVSPInitOnceImpl@@XZ 0052e7b0 f   sp_initonce.obj
 0001:0012d7c0       ??0SPInitOnce@@QAE@XZ      0052e7c0 f   sp_initonce.obj
 0001:0012d960       ??_ESPInitOnce@@UAEPAXI@Z  0052e960 f i sp_initonce.obj
 0001:0012d960       ??_GSPInitOnce@@UAEPAXI@Z  0052e960 f i sp_initonce.obj
 0001:0012d990       ??1SPInitOnce@@UAE@XZ      0052e990 f   sp_initonce.obj
 0001:0012da60       ??0SPInitOnceLock@@QAE@XZ  0052ea60 f   sp_initonce.obj
 0001:0012da80       ??1SPInitOnceLock@@QAE@XZ  0052ea80 f   sp_initonce.obj
 0001:0012da90       ?DeleteAll@SPInitOnceImpl@@QAEXXZ 0052ea90 f   sp_initonce.obj
 0001:0012db60       ?SPInstallProc@@YAXPAVSPGhost@@PBG_N2K@Z 0052eb60 f   sp_install.obj
 0001:0012dbd0       ?SPInstallProc@@YAXPAVSPGhost@@PAVSPMultiFile@@_N2K@Z 0052ebd0 f   sp_install.obj
 0001:0012dca0       ??0SPInstaller@@QAE@PAVSPGhost@@PAVSPMultiFile@@_NK@Z 0052eca0 f   sp_install.obj
 0001:0012dda0       ??_ESPInstaller@@UAEPAXI@Z 0052eda0 f i sp_install.obj
 0001:0012dda0       ??_GSPInstaller@@UAEPAXI@Z 0052eda0 f i sp_install.obj
 0001:0012ddd0       ??1SPInstaller@@UAE@XZ     0052edd0 f   sp_install.obj
 0001:0012dec0       ?SPCNotify@SPInstaller@@UAE_NKPAPAXK@Z 0052eec0 f   sp_install.obj
 0001:0012def0       ?Install@SPInstaller@@QAE_N_N@Z 0052eef0 f   sp_install.obj
 0001:0012df60       ?ThreadProc@SPInstaller@@QAE_NXZ 0052ef60 f   sp_install.obj
 0001:0012ebb0       ?InstallOneObject@SPInstaller@@AAE_NPBG@Z 0052fbb0 f   sp_install.obj
 0001:0012f1e0       ?KeiCallback@SPInstaller@@AAEHII@Z 005301e0 f   sp_install.obj
 0001:0012f250       ?InstallOneObjectCore@SPInstaller@@AAE_NPBGAAVJWString@@111111@Z 00530250 f   sp_install.obj
 0001:00131cf0       ?CheckOverwrite@SPInstaller@@AAE_NAAVJWString@@PBG_NH@Z 00532cf0 f   sp_install.obj
 0001:00132320       ?CheckSupplementAsShell@SPInstaller@@AAE_NPBG@Z 00533320 f   sp_install.obj
 0001:00132670       ?InstallFiles@SPInstaller@@AAEXPBG0_NPAG@Z 00533670 f   sp_install.obj
 0001:00132760       ?InstallFilesMask@SPInstaller@@AAEXPBG0_NPAV?$JPtrArray@PAG@@@Z 00533760 f   sp_install.obj
 0001:00132e60       ?UpdateResources@SPInstaller@@AAEHXZ 00533e60 f   sp_install.obj
 0001:00132eb0       ?GetObjectName@SPInstaller@@AAEHAAVJWString@@0AAH@Z 00533eb0 f   sp_install.obj
 0001:00133210       ?GetObjectNameArray@SPInstaller@@AAEHAAVJWString@@0@Z 00534210 f   sp_install.obj
 0001:00133330       ?GetSourceAndTarget@SPInstaller@@AAEHABVSPSettings@@PBDIABVJWString@@AAV3@3PBG3@Z 00534330 f   sp_install.obj
 0001:001342f0       ??4?$JArray@G@@QAEAAV0@ABV0@@Z 005352f0 f i sp_install.obj
 0001:00134460       ?Copy@?$JArray@PAX@@QAE_NPBQAXK@Z 00535460 f i sp_install.obj
 0001:00134460       ?Copy@?$JArray@K@@QAE_NPBKK@Z 00535460 f i sp_install.obj
 0001:00134460       ?Copy@?$JArray@J@@QAE_NPBJK@Z 00535460 f i sp_install.obj
 0001:00134460       ?Copy@?$JArray@PAVSPProp@@@@QAE_NPBQAVSPProp@@K@Z 00535460 f i sp_install.obj
 0001:001345d0       ?Complete@SPInstallEvent@@QAEHPAPAGHPAG@Z 005355d0 f   sp_installevent.obj
 0001:00134990       ?Refuse@SPInstallEvent@@QAEHPAPAGH@Z 00535990 f   sp_installevent.obj
 0001:00134b80       ?Failure@SPInstallEvent@@QAEHPAPAGH@Z 00535b80 f   sp_installevent.obj
 0001:00134c50       ?Begin@SPInstallEvent@@QAEHPAPAGH@Z 00535c50 f   sp_installevent.obj
 0001:00134d20       ??0SPIPMessenger@@QAE@XZ   00535d20 f   sp_ipmsgr.obj
 0001:00134e90       ??1SPIPMessenger@@QAE@XZ   00535e90 f   sp_ipmsgr.obj
 0001:00134f80       ?Open@SPIPMessenger@@QAEHPAUHWND__@@@Z 00535f80 f   sp_ipmsgr.obj
 0001:00135060       ?Close@SPIPMessenger@@QAEXXZ 00536060 f   sp_ipmsgr.obj
 0001:001350e0       ?ReleaseBroadcastAddr@SPIPMessenger@@AAEXXZ 005360e0 f   sp_ipmsgr.obj
 0001:00135190       ?Send@SPIPMessenger@@AAEHHVJSockAddr@@AAVSPIPMessengerMsgData@@_N@Z 00536190 f   sp_ipmsgr.obj
 0001:00135280       ?SendToHelperFunc@SPIPMessenger@@AAEHABVJSockAddr@@HPBDK@Z 00536280 f   sp_ipmsgr.obj
 0001:001352e0       ?SendBroadcast@SPIPMessenger@@AAEHHAAVSPIPMessengerMsgData@@_N@Z 005362e0 f   sp_ipmsgr.obj
 0001:00135460       ?MakeMsg@SPIPMessenger@@AAEHAAV?$JArray@D@@AAVSPIPMessengerMsgData@@_N@Z 00536460 f   sp_ipmsgr.obj
 0001:00135810       ?ProcReceive@SPIPMessenger@@QAEHKK@Z 00536810 f   sp_ipmsgr.obj
 0001:00135fc0       ?MessageRecv@SPIPMessenger@@QAEXPBDABVJSockAddr@@_N@Z 00536fc0 f   sp_ipmsgr.obj
 0001:00136160       ?MessageSend@SPIPMessenger@@QAEHPAVSPMessengerUser@@PBG@Z 00537160 f   sp_ipmsgr.obj
 0001:00136280       ?SendMyProperty@SPIPMessenger@@AAEHHABVJSockAddr@@KH@Z 00537280 f   sp_ipmsgr.obj
 0001:001364d0       ?ScriptToMsg@SPIPMessenger@@QAEHAAVJWString@@PBG@Z 005374d0 f   sp_ipmsgr.obj
 0001:00136690       ?SavePref@SPIPMessenger@@QAEXXZ 00537690 f   sp_ipmsgr.obj
 0001:00136780       ?LoadPref@SPIPMessenger@@QAEXXZ 00537780 f   sp_ipmsgr.obj
 0001:00136ac0       ?InitBroadcastAddr@SPIPMessenger@@QAEXXZ 00537ac0 f   sp_ipmsgr.obj
 0001:00136c80       ?AddBroadcastAddr@SPIPMessenger@@QAEXPAD@Z 00537c80 f   sp_ipmsgr.obj
 0001:00136e30       ?DelBroadcastAddr@SPIPMessenger@@QAEXJ@Z 00537e30 f   sp_ipmsgr.obj
 0001:00136ff0       ?Realloc@?$JArray@VJSockAddr@@@@QAE_NK@Z 00537ff0 f i sp_ipmsgr.obj
 0001:001370f0       ?SPKeiCallbackFilterFunc@@YAHPBGHPAX@Z 005380f0 f   sp_kei.obj
 0001:00137110       ?SPKeiCallbackPasswordFunc@@YAHPADIHPAX@Z 00538110 f   sp_kei.obj
 0001:00137130       ??0SPKeiArchiver@@QAE@XZ   00538130 f   sp_kei.obj
 0001:00137160       ?Extract@SPKeiArchiver@@QAEHPBG00H@Z 00538160 f   sp_kei.obj
 0001:001371d0       ?JZIPCheckArchiveHeader@SPKeiArchiver@@AAEPBGPBD@Z 005381d0 f   sp_kei.obj
 0001:00137260       ?JZIPIsSelfUnpack@SPKeiArchiver@@AAEPBGPBGPAK@Z 00538260 f   sp_kei.obj
 0001:001374a0       ?JZIPExtract@SPKeiArchiver@@AAEHPBG00H@Z 005384a0 f   sp_kei.obj
 0001:001375b0       ?JZIPExtractReal@SPKeiArchiver@@AAEHPBG00HI@Z 005385b0 f   sp_kei.obj
 0001:001379e0       ?Unpack@SPKeiArchiver@@AAEHPBG00H@Z 005389e0 f   sp_kei.obj
 0001:00137c00       ?ZipUnpack@SPKeiArchiver@@AAEHPBG00HK@Z 00538c00 f   sp_kei.obj
 0001:00137ff0       ?ZipUnpackReal@SPKeiArchiver@@AAEHAAVCUnzipper@@PBG11HKPAPBDAAH@Z 00538ff0 f   sp_kei.obj
 0001:001380f0       ?ZipCheck@SPKeiArchiver@@QAEHPBG@Z 005390f0 f   sp_kei.obj
 0001:001382b0       ?ZipCheckReal@SPKeiArchiver@@AAEHAAVCUnzipper@@PBGPAPBDAAH@Z 005392b0 f   sp_kei.obj
 0001:001383e0       ?LhaUnpackCallback@SPKeiArchiver@@AAEHPAX@Z 005393e0 f   sp_kei.obj
 0001:00138460       ?LhaCheckCallback@SPKeiArchiver@@AAEHPAX@Z 00539460 f   sp_kei.obj
 0001:001384a0       ?LhaUnpack@SPKeiArchiver@@AAEHPBG00H@Z 005394a0 f   sp_kei.obj
 0001:00138680       ?LhaPeekNarInstall@SPKeiArchiver@@AAEHPBGAAV?$JArray@D@@1@Z 00539680 f   sp_kei.obj
 0001:001388c0       ?CabExtractCallback@SPKeiArchiver@@AAEIPAXIII@Z 005398c0 f   sp_kei.obj
 0001:00138c50       ?CabInfoCallback@SPKeiArchiver@@AAEIPAXIII@Z 00539c50 f   sp_kei.obj
 0001:00138c90       ?CabCheckCallback@SPKeiArchiver@@AAEIPAXIII@Z 00539c90 f   sp_kei.obj
 0001:00138fa0       ?CabUnpack@SPKeiArchiver@@AAEHPBG00H@Z 00539fa0 f   sp_kei.obj
 0001:00139140       ?CabPeekNarInstall@SPKeiArchiver@@AAEHPBGAAV?$JArray@D@@1@Z 0053a140 f   sp_kei.obj
 0001:001395c0       ??0SPKeiCabExtractInfo@@QAE@PAVSPKeiArchiver@@@Z 0053a5c0 f i sp_kei.obj
 0001:00139600       ??1SPKeiCabPeekInfo@@QAE@XZ 0053a600 f i sp_kei.obj
 0001:00139690       ?ExeUnpack@SPKeiArchiver@@AAEHPBG00H@Z 0053a690 f   sp_kei.obj
 0001:00139a30       ?CanExtract@SPKeiArchiver@@QAEHPBG@Z 0053aa30 f   sp_kei.obj
 0001:00139a60       ?CanExtractExtension@SPKeiArchiver@@QAEHPBG@Z 0053aa60 f   sp_kei.obj
 0001:00139ab0       ?CanExtractBuffer@SPKeiArchiver@@QAEHPBD@Z 0053aab0 f   sp_kei.obj
 0001:00139ad0       ?CanExtractExtensionList@SPKeiArchiver@@QAEPBGXZ 0053aad0 f   sp_kei.obj
 0001:00139ae0       ?Compress@SPKeiArchiver@@QAEHPBG00H@Z 0053aae0 f   sp_kei.obj
 0001:00139b50       ?JZIPCompress@SPKeiArchiver@@AAEHPBG00H@Z 0053ab50 f   sp_kei.obj
 0001:00139bf0       ?JZIPCompressReal@SPKeiArchiver@@AAEHPBG00H@Z 0053abf0 f   sp_kei.obj
 0001:00139d80       ?GetArchiveExtension@SPKeiArchiver@@AAEXPBGAAVJWString@@@Z 0053ad80 f   sp_kei.obj
 0001:00139fd0       ?PeekNarInstall@SPKeiArchiver@@QAEHPBGAAV?$JArray@D@@1@Z 0053afd0 f   sp_kei.obj
 0001:0013a520       ?IsNar@SPKeiArchiver@@QAEHPAG@Z 0053b520 f   sp_kei.obj
 0001:0013a670       ?ErrorDump@SPKeiArchiver@@AAEXPBGPBD@Z 0053b670 f   sp_kei.obj
 0001:0013a770       ?SetCallback@SPKeiArchiver@@QAEXP6AHIIPAX@Z0@Z 0053b770 f   sp_kei.obj
 0001:0013a790       ?SetCallbackFilter@SPKeiArchiver@@QAEXP6AHPBGHPAX@Z1@Z 0053b790 f   sp_kei.obj
 0001:0013a7c0       ?SetCallbackPassword@SPKeiArchiver@@QAEXP6AHPADIHPAX@Z1@Z 0053b7c0 f   sp_kei.obj
 0001:0013a7f0       ?CallbackProgress@SPKeiArchiver@@AAEHHH@Z 0053b7f0 f   sp_kei.obj
 0001:0013a850       ?CallbackFilter@SPKeiArchiver@@AAEHPBGH@Z 0053b850 f   sp_kei.obj
 0001:0013a880       ?CallbackPassword@SPKeiArchiver@@AAEHPADIH@Z 0053b880 f   sp_kei.obj
 0001:0013a8c0       ??0SPLogData@@QAE@PAVSPLogManagerCore@@PBG1I1@Z 0053b8c0 f   sp_logdata.obj
 0001:0013a9f0       ?GetTypeText@SPLogData@@UAEXAAVJWString@@@Z 0053b9f0 f i sp_logdata.obj
 0001:0013ab10       ??_GSPLogData@@UAEPAXI@Z   0053bb10 f i sp_logdata.obj
 0001:0013ab10       ??_ESPLogData@@UAEPAXI@Z   0053bb10 f i sp_logdata.obj
 0001:0013ab40       ??1SPLogData@@UAE@XZ       0053bb40 f i sp_logdata.obj
 0001:0013abb0       ?NewSet@SPLogData@@AAEXPBG0I0@Z 0053bbb0 f   sp_logdata.obj
 0001:0013ad40       ?UpdateText@SPLogData@@AAEXPBG_N@Z 0053bd40 f   sp_logdata.obj
 0001:0013aed0       ?Release@SPLogData@@QAEXXZ 0053bed0 f   sp_logdata.obj
 0001:0013b020       ?GetRealText@SPLogData@@QAEXAAVJWString@@@Z 0053c020 f   sp_logdata.obj
 0001:0013b0e0       ?SetTime@SPLogData@@QAEXXZ 0053c0e0 f   sp_logdata.obj
 0001:0013b0f0       ?GetTime@SPLogData@@QAEXAAU_SYSTEMTIME@@@Z 0053c0f0 f   sp_logdata.obj
 0001:0013b120       ?VarGet@SPLogData@@UAE_NPAVSPGhost@@PBGAAVJWString@@PAVSPVarSystemNode@@@Z 0053c120 f   sp_logdata.obj
 0001:0013b200       ?GetTypeText@SPScriptLogData@@UAEXAAVJWString@@@Z 0053c200 f   sp_logdata.obj
 0001:0013b460       ?GetIconID@SPScriptLogData@@UAEHXZ 0053c460 f   sp_logdata.obj
 0001:0013b480       ?GetTypeText@SPNetworkLogData@@UAEXAAVJWString@@@Z 0053c480 f   sp_logdata.obj
 0001:0013b480       ?GetTypeText@SPUpdateLogData@@UAEXAAVJWString@@@Z 0053c480 f   sp_logdata.obj
 0001:0013b480       ?GetTypeText@SPErrorLogData@@UAEXAAVJWString@@@Z 0053c480 f   sp_logdata.obj
 0001:0013b4b0       ?GetIconID@SPErrorLogData@@UAEHXZ 0053c4b0 f   sp_logdata.obj
 0001:0013b4c0       ?GetIconIDShared@SPErrorLogData@@SAHI@Z 0053c4c0 f   sp_logdata.obj
 0001:0013b520       ?LevelTextToNum@SPErrorLogData@@SAHPBD@Z 0053c520 f   sp_logdata.obj
 0001:0013b5f0       ?LevelNumToText@SPErrorLogData@@SAPBDI@Z 0053c5f0 f   sp_logdata.obj
 0001:0013b650       ?GetTypeText@SPStatusLogData@@UAEXAAVJWString@@@Z 0053c650 f   sp_logdata.obj
 0001:0013b670       ?GetIconID@SPUpdateLogData@@UAEHXZ 0053c670 f   sp_logdata.obj
 0001:0013b690       ?GetIconID@SPNetworkLogData@@UAEHXZ 0053c690 f   sp_logdata.obj
 0001:0013b6b0       ?Release@SPLogManagerCore@@QAEXXZ 0053c6b0 f   sp_logmanager.obj
 0001:0013b750       ?SetNum@SPLogManagerCore@@QAEXI@Z 0053c750 f   sp_logmanager.obj
 0001:0013b790       ?Add@SPLogManagerCore@@QAEKPBG0I0@Z 0053c790 f   sp_logmanager.obj
 0001:0013bbe0       ?UpdateText@SPLogManagerCore@@QAE_NKPBG@Z 0053cbe0 f   sp_logmanager.obj
 0001:0013bcc0       ?Get@SPLogManagerCore@@QAEPAVSPLogData@@I@Z 0053ccc0 f   sp_logmanager.obj
 0001:0013bce0       ?GetFromID@SPLogManagerCore@@QAEPAVSPLogData@@K@Z 0053cce0 f   sp_logmanager.obj
 0001:0013bd80       ?VarGet@SPLogManagerCore@@MAE_NPAVSPGhost@@PBGAAVJWString@@PAVSPVarSystemNode@@@Z 0053cd80 f   sp_logmanager.obj
 0001:0013c080       ?IsNotifyLevel@SPLogManagerCore@@QAE_NK@Z 0053d080 f   sp_logmanager.obj
 0001:0013c0c0       ?New@SPLogManagerScript@@EAEPAVSPLogData@@PBG0I0@Z 0053d0c0 f   sp_logmanager.obj
 0001:0013c130       ??_GSPScriptLogData@@UAEPAXI@Z 0053d130 f i sp_logmanager.obj
 0001:0013c130       ??_ESPScriptLogData@@UAEPAXI@Z 0053d130 f i sp_logmanager.obj
 0001:0013c160       ??1SPScriptLogData@@UAE@XZ 0053d160 f i sp_logmanager.obj
 0001:0013c1d0       ?New@SPLogManagerError@@EAEPAVSPLogData@@PBG0I0@Z 0053d1d0 f   sp_logmanager.obj
 0001:0013c240       ??_GSPErrorLogData@@UAEPAXI@Z 0053d240 f i sp_logmanager.obj
 0001:0013c240       ??_ESPErrorLogData@@UAEPAXI@Z 0053d240 f i sp_logmanager.obj
 0001:0013c270       ??1SPErrorLogData@@UAE@XZ  0053d270 f i sp_logmanager.obj
 0001:0013c2e0       ?New@SPLogManagerNetwork@@EAEPAVSPLogData@@PBG0I0@Z 0053d2e0 f   sp_logmanager.obj
 0001:0013c350       ??_GSPNetworkLogData@@UAEPAXI@Z 0053d350 f i sp_logmanager.obj
 0001:0013c350       ??_ESPNetworkLogData@@UAEPAXI@Z 0053d350 f i sp_logmanager.obj
 0001:0013c380       ??1SPNetworkLogData@@UAE@XZ 0053d380 f i sp_logmanager.obj
 0001:0013c3f0       ?New@SPLogManagerUpdate@@EAEPAVSPLogData@@PBG0I0@Z 0053d3f0 f   sp_logmanager.obj
 0001:0013c460       ??_ESPUpdateLogData@@UAEPAXI@Z 0053d460 f i sp_logmanager.obj
 0001:0013c460       ??_GSPUpdateLogData@@UAEPAXI@Z 0053d460 f i sp_logmanager.obj
 0001:0013c490       ??1SPUpdateLogData@@UAE@XZ 0053d490 f i sp_logmanager.obj
 0001:0013c500       ?New@SPLogManagerStatus@@EAEPAVSPLogData@@PBG0I0@Z 0053d500 f   sp_logmanager.obj
 0001:0013c570       ??_GSPStatusLogData@@UAEPAXI@Z 0053d570 f i sp_logmanager.obj
 0001:0013c570       ??_ESPStatusLogData@@UAEPAXI@Z 0053d570 f i sp_logmanager.obj
 0001:0013c5a0       ??1SPStatusLogData@@UAE@XZ 0053d5a0 f i sp_logmanager.obj
 0001:0013c610       ??0SPMakoto@@QAE@PAVSPGhost@@@Z 0053d610 f   sp_makoto.obj
 0001:0013c770       ?Name@SPMakoto@@UAEPBGXZ   0053d770 f i sp_makoto.obj
 0001:0013c770       ?GetModuleDesc@SPMakoto@@UAEPBGXZ 0053d770 f i sp_makoto.obj
 0001:0013c780       ?GetLogFileName@SPMakoto@@UAEPBGXZ 0053d780 f i sp_makoto.obj
 0001:0013c790       ?GetTypeString@SPMakoto@@UAEPBGXZ 0053d790 f i sp_makoto.obj
 0001:0013c7a0       ??_ESPMakoto@@UAEPAXI@Z    0053d7a0 f i sp_makoto.obj
 0001:0013c7a0       ??_GSPMakoto@@UAEPAXI@Z    0053d7a0 f i sp_makoto.obj
 0001:0013c7d0       ??1SPMakoto@@UAE@XZ        0053d7d0 f i sp_makoto.obj
 0001:0013c850       ?LoadProc@SPMakoto@@QAEHPBG@Z 0053d850 f   sp_makoto.obj
 0001:0013cfc0       ?Load@SPMakoto@@QAEHPBG@Z  0053dfc0 f   sp_makoto.obj
 0001:0013d310       ?Unload@SPMakoto@@QAEXXZ   0053e310 f   sp_makoto.obj
 0001:0013d360       ?Notify@SPMakoto@@QAE_NPBGPAPAGK@Z 0053e360 f   sp_makoto.obj
 0001:0013d3c0       ?NotifyReal@SPMakoto@@AAE_NPBGPAPAGK@Z 0053e3c0 f   sp_makoto.obj
 0001:0013d6c0       ?Translate@SPMakoto@@QAEPBGPBG0H@Z 0053e6c0 f   sp_makoto.obj
 0001:0013d710       ?TranslateReal@SPMakoto@@AAEPBGPBG0H@Z 0053e710 f   sp_makoto.obj
 0001:0013dcb0       ?GetVersionRequestImpl@SPMakoto@@UAEHXZ 0053ecb0 f   sp_makoto.obj
 0001:0013dda0       ??_ESPMakoto@@W3AEPAXI@Z   0053eda0 f i sp_makoto.obj
 0001:0013ddb0       ??_ESPMakoto@@WCIE@AEPAXI@Z 0053edb0 f i sp_makoto.obj
 0001:0013de00       ?Release@SPMenuItem@@QAEXXZ 0053ee00 f   sp_menu.obj
 0001:0013deb0       ?ClearValue@SPMenuItem@@QAEXXZ 0053eeb0 f   sp_menu.obj
 0001:0013dee0       ?DeleteChildren@SPMenuItem@@QAEXK@Z 0053eee0 f   sp_menu.obj
 0001:0013dfa0       ?AddMenuItemW@SPMenuItem@@QAEPAV1@PBGKK@Z 0053efa0 f   sp_menu.obj
 0001:0013e200       ??0SPMenuItem@@QAE@XZ      0053f200 f i sp_menu.obj
 0001:0013e2d0       ??1SPMenuItem@@QAE@XZ      0053f2d0 f i sp_menu.obj
 0001:0013e320       ?ModifyAsSubMenuParent@SPMenuItem@@QAEXPAX@Z 0053f320 f   sp_menu.obj
 0001:0013e340       ?SetHandle@SPMenuItem@@QAEXPAX@Z 0053f340 f   sp_menu.obj
 0001:0013e620       ?GetMenuItemByPosition@SPMenuItem@@QAEPAV1@J@Z 0053f620 f   sp_menu.obj
 0001:0013e650       ?GetMenuItemByCommand@SPMenuItem@@QAEPAV1@K@Z 0053f650 f   sp_menu.obj
 0001:0013e6a0       ?ModifyMenuItemW@SPMenuItem@@QAEXPBGK@Z 0053f6a0 f   sp_menu.obj
 0001:0013e720       ?GetMenuHeight@SPMenuItem@@QAEJXZ 0053f720 f   sp_menu.obj
 0001:0013e760       ?SetSelfHeight@SPMenuItem@@QAEXJ@Z 0053f760 f   sp_menu.obj
 0001:0013e790       ?GetMenuText@SPMenuItem@@QAEXAAVJWString@@@Z 0053f790 f   sp_menu.obj
 0001:0013e7c0       ??0SPMenu@@QAE@XZ          0053f7c0 f   sp_menu.obj
 0001:0013eac0       ??1SPMenu@@QAE@XZ          0053fac0 f   sp_menu.obj
 0001:0013eca0       ?Release@SPMenu@@QAEXXZ    0053fca0 f   sp_menu.obj
 0001:0013eec0       ?ReleaseSurfaces@SPMenu@@AAEXXZ 0053fec0 f   sp_menu.obj
 0001:0013ef10       ?InitMenuProp@SPMenu@@QAEXXZ 0053ff10 f   sp_menu.obj
 0001:0013f010       ?SetMenuFlag@SPMenu@@SAXAAIPAD@Z 00540010 f   sp_menu.obj
 0001:0013f030       ?SetMenuFlag@SPMenu@@SAXAAIPAG@Z 00540030 f   sp_menu.obj
 0001:0013f050       ?LoadFromDescript@SPMenu@@QAEHPAD0H@Z 00540050 f   sp_menu.obj
 0001:0013f610       ?SetBarText@SPMenu@@QAEXPAG@Z 00540610 f   sp_menu.obj
 0001:0013f670       ?SetBarWidth@SPMenu@@QAEXK@Z 00540670 f   sp_menu.obj
 0001:0013f6a0       ?LoadMenuDescript@SPMenu@@QAEHPBG@Z 005406a0 f   sp_menu.obj
 0001:0013f7f0       ?SetPath@SPMenu@@QAEXPAPAGI@Z 005407f0 f   sp_menu.obj
 0001:0013f9d0       ?LoadSurface@SPMenu@@QAE_NXZ 005409d0 f   sp_menu.obj
 0001:0013fb30       ?LoadSurfaceBackground@SPMenu@@QAE_NH@Z 00540b30 f   sp_menu.obj
 0001:0013fb50       ?LoadSurfaceForeground@SPMenu@@QAE_NH@Z 00540b50 f   sp_menu.obj
 0001:0013fb70       ?LoadSurfaceSidebar@SPMenu@@QAE_NH@Z 00540b70 f   sp_menu.obj
 0001:0013fb90       ?LoadMultipleMenuImage@SPMenu@@AAE_NHAAVJWString@@AAV?$JPtrArray@PAVJSurface@@@@@Z 00540b90 f   sp_menu.obj
 0001:0013ff80       ?SetValues@SPMenu@@AAEXIAAVSPColor@@IAAV?$JPtrArray@PAVJSurface@@@@AAPAVJSurface@@AAK3@Z 00540f80 f   sp_menu.obj
 0001:00140120       ?ShowPopup@SPMenu@@QAEXPAX0PBVJPoint@@@Z 00541120 f   sp_menu.obj
 0001:001401e0       ?GetMenuTextHeight@SPMenu@@QAEKXZ 005411e0 f   sp_menu.obj
 0001:00140200       ?GetMaxMenuItemCount@SPMenu@@QAEKXZ 00541200 f   sp_menu.obj
 0001:00140240       ?CalcMenuTextHeightAndCreateFont@SPMenu@@QAEXXZ 00541240 f   sp_menu.obj
 0001:00140430       ?PreparePopup@SPMenu@@QAEXPAX0@Z 00541430 f   sp_menu.obj
 0001:001407a0       ?MeasureItem@SPMenu@@QAEHHPAUtagMEASUREITEMSTRUCT@@@Z 005417a0 f   sp_menu.obj
 0001:00140970       ?DrawItem@SPMenu@@QAEHHPAUtagDRAWITEMSTRUCT@@@Z 00541970 f   sp_menu.obj
 0001:00141230       ?LoadSurfaceDataFromName@SPMenu@@AAEPAVJSurface@@PBG@Z 00542230 f   sp_menu.obj
 0001:00141580       ?NewItem@SPMenu@@SAPAVSPMenuItem@@XZ 00542580 f   sp_menu.obj
 0001:00141590       ?DeleteItem@SPMenu@@SAXPAVSPMenuItem@@@Z 00542590 f   sp_menu.obj
 0001:001415b0       ??0?$SPCacheObj@VSPMenuItem@@VJDummyLockSection@@VJDummyLock@@@@QAE@K@Z 005425b0 f i sp_menu.obj
 0001:00141600       ??1?$SPCacheObj@VSPMenuItem@@VJDummyLockSection@@VJDummyLock@@@@QAE@XZ 00542600 f i sp_menu.obj
 0001:001416d0       ?New@?$SPCacheObj@VSPMenuItem@@VJDummyLockSection@@VJDummyLock@@@@QAEPAVSPMenuItem@@XZ 005426d0 f i sp_menu.obj
 0001:00141850       ?Delete@?$SPCacheObj@VSPMenuItem@@VJDummyLockSection@@VJDummyLock@@@@QAEXPAVSPMenuItem@@@Z 00542850 f i sp_menu.obj
 0001:00141970       ?DeleteArray@?$SPCacheObj@VSPMenuItem@@VJDummyLockSection@@VJDummyLock@@@@QAEXAAV?$JPtrArray@PAVSPMenuItem@@@@@Z 00542970 f i sp_menu.obj
 0001:00141aa0       ?GetSPMenuHack@@YAAAVSPMenuHack@@XZ 00542aa0 f   sp_menuhack.obj
 0001:00141b30       ??0SPMenuHack@@AAE@XZ      00542b30 f   sp_menuhack.obj
 0001:00141be0       ??_GSPMenuHack@@UAEPAXI@Z  00542be0 f i sp_menuhack.obj
 0001:00141be0       ??_ESPMenuHack@@UAEPAXI@Z  00542be0 f i sp_menuhack.obj
 0001:00141c10       ??1SPMenuHack@@UAE@XZ      00542c10 f   sp_menuhack.obj
 0001:00141cc0       ?EnterMenuLoop@SPMenuHack@@QAEXPAX@Z 00542cc0 f   sp_menuhack.obj
 0001:00141d80       ?ExitMenuLoop@SPMenuHack@@QAEXXZ 00542d80 f   sp_menuhack.obj
 0001:00141e50       ?GetMenuDataIndex@SPMenuHack@@QAEJPAUHWND__@@@Z 00542e50 f   sp_menuhack.obj
 0001:00141e80       ?AddMenuData@SPMenuHack@@QAEPAUtagSPMenuHackData@@PAUHWND__@@@Z 00542e80 f   sp_menuhack.obj
 0001:00142070       ?RestoreMenu@SPMenuHack@@QAEXPAUtagSPMenuHackData@@@Z 00543070 f   sp_menuhack.obj
 0001:001420e0       ?DeleteMenuData@SPMenuHack@@QAEXPAUtagSPMenuHackData@@@Z 005430e0 f   sp_menuhack.obj
 0001:001421a0       ?CallWndProc@SPMenuHack@@CGJHIJ@Z 005431a0 f   sp_menuhack.obj
 0001:001422a0       ?ScrollMenu@SPMenuHack@@AAEX_NI@Z 005432a0 f   sp_menuhack.obj
 0001:00142330       ?WindowProc@SPMenuHack@@CGJPAUHWND__@@IIJ@Z 00543330 f   sp_menuhack.obj
 0001:00142360       ?WindowProcReal@SPMenuHack@@AAEJPAUHWND__@@IIJ@Z 00543360 f   sp_menuhack.obj
 0001:00142a80       ?WindowProcParent@SPMenuHack@@CGJPAUHWND__@@IIJ@Z 00543a80 f   sp_menuhack.obj
 0001:00142ab0       ?WindowProcParentReal@SPMenuHack@@AAEJPAUHWND__@@IIJ@Z 00543ab0 f   sp_menuhack.obj
 0001:00142c50       ?Realloc@?$JArray@UtagSPMenuHackData@@@@QAE_NK@Z 00543c50 f i sp_menuhack.obj
 0001:00142d40       ?Size@?$JArray@E@@QBEKXZ   00543d40 f i sp_menuhack.obj
 0001:00142d40       ?Size@?$JArray@D@@QBEKXZ   00543d40 f i sp_menuhack.obj
 0001:00142d40       ?Size@?$JArray@C@@QBEKXZ   00543d40 f i sp_menuhack.obj
 0001:00142d60       ?Create@SPMenuTemplate@@QAEXAAV?$JArray@G@@@Z 00543d60 f   sp_menutemplate.obj
 0001:00142f30       ?Read@SPMenuTemplate@@QAEXPBXK@Z 00543f30 f   sp_menutemplate.obj
 0001:00142f50       ?ReadMenu@SPMenuTemplate@@QAEXI@Z 00543f50 f   sp_menutemplate.obj
 0001:00142f80       ?ReadTmpl@SPMenuTemplate@@AAEXPBGK@Z 00543f80 f   sp_menutemplate.obj
 0001:00143190       ?Clear@SPMenuTemplate@@QAEXXZ 00544190 f   sp_menutemplate.obj
 0001:00143260       ??1SPTimingEntry@@QAE@XZ   00544260 f i sp_menutemplate.obj
 0001:00143260       ??1SPMenuTemplateItem@@AAE@XZ 00544260 f i sp_menutemplate.obj
 0001:00143270       ?FindID@SPMenuTemplate@@QBEJK@Z 00544270 f   sp_menutemplate.obj
 0001:001432a0       ?GetFromID@SPMenuTemplate@@QBEPBVSPMenuTemplateItem@@K@Z 005442a0 f   sp_menutemplate.obj
 0001:001432d0       ?GetIDText@SPMenuTemplate@@QBEPBGK@Z 005442d0 f   sp_menutemplate.obj
 0001:001432f0       ?GetFromPosLevel1@SPMenuTemplate@@QBEPBVSPMenuTemplateItem@@K@Z 005442f0 f   sp_menutemplate.obj
 0001:00143330       ?WriteToArray@SPMenuTemplate@@AAEXAAV?$JArray@G@@@Z 00544330 f   sp_menutemplate.obj
 0001:00143470       ?Clear@SPMenuTemplateItem@@QAEXXZ 00544470 f   sp_menutemplate.obj
 0001:001435b0       ?ReadTmpl@SPMenuTemplateItem@@AAEPBGPBGK@Z 005445b0 f   sp_menutemplate.obj
 0001:00143840       ?WriteToArray@SPMenuTemplateItem@@AAEXAAV?$JArray@G@@@Z 00544840 f   sp_menutemplate.obj
 0001:00143a50       ?GetPlainString@SPMenuTemplateItem@@QBEXAAVJWString@@@Z 00544a50 f   sp_menutemplate.obj
 0001:00143ad0       ?SPM_Dummy_load@@YAHPAXJ@Z 00544ad0 f   sp_module.obj
 0001:00143af0       ?SPM_Dummy_request@@YAPAXPAXPAJ@Z 00544af0 f   sp_module.obj
 0001:00143b10       ??0SPModule@@QAE@XZ        00544b10 f   sp_module.obj
 0001:00143ea0       ??0SPParamManager@@QAE@XZ  00544ea0 f i sp_module.obj
 0001:00143fe0       ??1SPParamManager@@QAE@XZ  00544fe0 f i sp_module.obj
 0001:00144120       ??1JMutex@@UAE@XZ          00545120 f i sp_module.obj
 0001:00144170       ??_EJMutex@@UAEPAXI@Z      00545170 f i sp_module.obj
 0001:00144170       ??_GJMutex@@UAEPAXI@Z      00545170 f i sp_module.obj
 0001:001441a0       ??_ESPModule@@UAEPAXI@Z    005451a0 f i sp_module.obj
 0001:001441a0       ??_GSPModule@@UAEPAXI@Z    005451a0 f i sp_module.obj
 0001:001441d0       ??1SPModule@@UAE@XZ        005451d0 f   sp_module.obj
 0001:00144450       ?SPLoadLibrary@SPModule@@SAPAUHINSTANCE__@@PBG@Z 00545450 f   sp_module.obj
 0001:001444a0       ?LoadLib@SPModule@@QAE_NPBG@Z 005454a0 f   sp_module.obj
 0001:00144a40       ?UnloadLib@SPModule@@QAE_NXZ 00545a40 f   sp_module.obj
 0001:00144bb0       ?CheckReentrant@SPModule@@AAE_NPBG@Z 00545bb0 f   sp_module.obj
 0001:00144d00       ?ExecLoadSEHReal@SPModule@@AAEHP6AHPAXJ@Z0J@Z 00545d00 f   sp_module.obj
 0001:00144e40       ?ExecLoadSEH@SPModule@@QAEHP6AHPAXJ@Z0J@Z 00545e40 f   sp_module.obj
 0001:00145000       ?ExecUnloadSEHReal@SPModule@@AAEHP6AHXZ@Z 00546000 f   sp_module.obj
 0001:00145130       ?ExecUnloadSEH@SPModule@@QAEHP6AHXZ@Z 00546130 f   sp_module.obj
 0001:001452a0       ?ExecRequestSEHReal@SPModule@@AAEPAXP6APAXPAXPAJ@Z01@Z 005462a0 f   sp_module.obj
 0001:001453d0       ?ExecRequestSEH@SPModule@@QAEPAXP6APAXPAXPAJ@Z01@Z 005463d0 f   sp_module.obj
 0001:001455f0       ?ExecGetSEH@SPModule@@QAEPAGP6APAXPAJ@Z@Z 005465f0 f   sp_module.obj
 0001:00145750       ?CallRequestAndLog@SPModule@@QAEPAXAAVJString@@AAJ@Z 00546750 f   sp_module.obj
 0001:00145900       ?SetLogEnable@SPModule@@UAEX_N0@Z 00546900 f   sp_module.obj
 0001:00145940       ?WriteLog@SPModule@@QAEXPADPAXHK@Z 00546940 f   sp_module.obj
 0001:00145d20       ?CallGetVersionAndLoad2@SPModule@@IAE?AVSPModuleGetVersionResult@@XZ 00546d20 f   sp_module.obj
 0001:00145f60       ?GetGenericProcAddress@SPModule@@IAEXXZ 00546f60 f   sp_module.obj
 0001:00146000       ?SetPath@SPModule@@UAEXPBG@Z 00547000 f   sp_module.obj
 0001:001460f0       ?ToString@SPModule@@QAEPAGPAXJ@Z 005470f0 f   sp_module.obj
 0001:001461d0       ?ToHandleASub@SPModule@@IAEPAXPBDAAJ@Z 005471d0 f   sp_module.obj
 0001:00146210       ?ToHandleW@SPModule@@QAEPAXPBGAAJ@Z 00547210 f   sp_module.obj
 0001:001462f0       ?ToHandleA@SPModule@@QAEPAXPBDAAJ@Z 005472f0 f   sp_module.obj
 0001:00146330       ?ToHandleA@SPModule@@QAEPAXABVJString@@AAJ@Z 00547330 f   sp_module.obj
 0001:00146350       ?GetLoadPath@SPModule@@QAEPAXAAJ@Z 00547350 f   sp_module.obj
 0001:00146440       ?GMFree@SPModule@@SAXPAX@Z 00547440 f   sp_module.obj
 0001:001464d0       ?GMSize@SPModule@@SAJPAXJ@Z 005474d0 f   sp_module.obj
 0001:00146560       ?GetProcAddressModule@SPModule@@QAEPAXPAD@Z 00547560 f   sp_module.obj
 0001:001465a0       ?GetVersionRequest@SPModule@@IAEXXZ 005475a0 f   sp_module.obj
 0001:00146740       ?ParseCharset@SPModule@@QAEXXZ 00547740 f   sp_module.obj
 0001:00146800       ?SetCharset@SPModule@@QAEXPBD@Z 00547800 f   sp_module.obj
 0001:00146940       ?SetDefaultCharset@SPModule@@QAEXPBD@Z 00547940 f   sp_module.obj
 0001:00146980       ?GetCharsetSafe@SPModule@@QAEPBDXZ 00547980 f   sp_module.obj
 0001:001469a0       ?GetCharsetSafeW@SPModule@@QAEPBGXZ 005479a0 f   sp_module.obj
 0001:001469c0       ?GetResponseCharsetSafe@SPModule@@QAEPBDXZ 005479c0 f   sp_module.obj
 0001:001469e0       ?SetForceEncoding@SPModule@@QAEXPBD@Z 005479e0 f   sp_module.obj
 0001:00146a70       ?MakeLastReference@SPModule@@IAEPAGAAV?$JPtrArray@PAVJWString@@@@@Z 00547a70 f   sp_module.obj
 0001:00146b90       ?MakeLastReference@SPModule@@IAEPAGPAPAGK0K@Z 00547b90 f   sp_module.obj
 0001:00146d30       ?SendRecvPipeSSPEXT@SPModule@@AAE_NPBD0AAVJString@@@Z 00547d30 f   sp_module.obj
 0001:00147090       ?SendRecvPipeSHIOLINK@SPModule@@AAE_NPBD0AAVJString@@@Z 00548090 f   sp_module.obj
 0001:00147480       ?SendRecvPipe@SPModule@@IAE_NPBD0AAVJString@@@Z 00548480 f   sp_module.obj
 0001:001474c0       ??_ESPModule@@W3AEPAXI@Z   005484c0 f i sp_module.obj
 0001:001474d0       ??_ESPModule@@WCIE@AEPAXI@Z 005484d0 f i sp_module.obj
 0001:001474e0       ?SendMsg@SPMsgSenderSSTP@@UAEHPBGH@Z 005484e0 f   sp_msgsender.obj
 0001:001476b0       ?Loop@SPMsgSenderSSTP@@UAEHXZ 005486b0 f   sp_msgsender.obj
 0001:00147730       ?SendMsg@SPMsgSenderIPMessenger@@UAEHPBGH@Z 00548730 f   sp_msgsender.obj
 0001:00147890       ?Loop@SPMsgSenderIPMessenger@@UAEHXZ 00548890 f   sp_msgsender.obj
 0001:00147900       ??0SPMessengerUser@@QAE@XZ 00548900 f   sp_msguser.obj
 0001:00147a60       ?Clear@SPMessengerUser@@QAEXXZ 00548a60 f   sp_msguser.obj
 0001:00147ca0       ??1SPMessengerUser@@QAE@XZ 00548ca0 f   sp_msguser.obj
 0001:00147dc0       ?GetAddress@SPMessengerUser@@QAEPADXZ 00548dc0 f   sp_msguser.obj
 0001:00147e00       ?GetAddressNum@SPMessengerUser@@QAEABVJSockAddr@@XZ 00548e00 f   sp_msguser.obj
 0001:00147e30       ?SetAddress@SPMessengerUser@@QAEXPBD@Z 00548e30 f   sp_msguser.obj
 0001:00147e50       ?ClearAddress@SPMessengerUser@@QAEXXZ 00548e50 f   sp_msguser.obj
 0001:00147e60       ?IsSSTPAware@SPMessengerUser@@QAE_NXZ 00548e60 f   sp_msguser.obj
 0001:00147e70       ??8SPMessengerUser@@QAEHAAV0@@Z 00548e70 f   sp_msguser.obj
 0001:00147fa0       ?AddLog@SPMessengerUser@@QAEXPBG0II_N@Z 00548fa0 f   sp_msguser.obj
 0001:00148170       ??_ESPMessengerLogData@@UAEPAXI@Z 00549170 f i sp_msguser.obj
 0001:00148170       ??_GSPMessengerLogData@@UAEPAXI@Z 00549170 f i sp_msguser.obj
 0001:001481a0       ??1SPMessengerLogData@@UAE@XZ 005491a0 f i sp_msguser.obj
 0001:00148210       ?DeleteLog@SPMessengerUser@@QAEXXZ 00549210 f   sp_msguser.obj
 0001:00148280       ?GetTypeText@SPMessengerLogData@@UAEXAAVJString@@@Z 00549280 f   sp_msguser.obj
 0001:001482b0       ?GetIconID@SPMessengerLogData@@UAEHXZ 005492b0 f   sp_msguser.obj
 0001:001482c0       ?GetSPMessengerUserManager@@YAAAVSPMessengerUserManager@@XZ 005492c0 f   sp_msguser.obj
 0001:00148350       ??0SPMessengerUserManager@@AAE@XZ 00549350 f   sp_msguser.obj
 0001:00148400       ??_GSPMessengerUserManager@@UAEPAXI@Z 00549400 f i sp_msguser.obj
 0001:00148400       ??_ESPMessengerUserManager@@UAEPAXI@Z 00549400 f i sp_msguser.obj
 0001:00148430       ??1SPMessengerUserManager@@UAE@XZ 00549430 f   sp_msguser.obj
 0001:001485d0       ?ConstructUser@SPMessengerUserManager@@QAEPAVSPMessengerUser@@ABVJSockAddr@@HH@Z 005495d0 f   sp_msguser.obj
 0001:00148770       ?DestructUser@SPMessengerUserManager@@QAEXPAVSPMessengerUser@@@Z 00549770 f   sp_msguser.obj
 0001:00148880       ?GetUserByIPAddress@SPMessengerUserManager@@QAEPAVSPMessengerUser@@ABVJSockAddr@@@Z 00549880 f   sp_msguser.obj
 0001:001488b0       ?GetRegUserByIPAddress@SPMessengerUserManager@@QAEPAVSPMessengerUser@@ABVJSockAddr@@@Z 005498b0 f   sp_msguser.obj
 0001:00148900       ?GetTempUserByIPAddress@SPMessengerUserManager@@QAEPAVSPMessengerUser@@ABVJSockAddr@@@Z 00549900 f   sp_msguser.obj
 0001:00148950       ?GetTempUser@SPMessengerUserManager@@QAEPAVSPMessengerUser@@PAV2@@Z 00549950 f   sp_msguser.obj
 0001:00148990       ?AddUser@SPMessengerUserManager@@QAEHPAVSPMessengerUser@@@Z 00549990 f   sp_msguser.obj
 0001:00148aa0       ?AddTempUser@SPMessengerUserManager@@QAEHPAVSPMessengerUser@@@Z 00549aa0 f   sp_msguser.obj
 0001:00148bc0       ?DelUser@SPMessengerUserManager@@QAEHPAVSPMessengerUser@@@Z 00549bc0 f   sp_msguser.obj
 0001:00148c70       ?DelTempUser@SPMessengerUserManager@@QAEHPAVSPMessengerUser@@@Z 00549c70 f   sp_msguser.obj
 0001:00148d20       ?DelIPMessengerUsers@SPMessengerUserManager@@QAEHXZ 00549d20 f   sp_msguser.obj
 0001:00148df0       ?LoadUsers@SPMessengerUserManager@@QAEHPBG@Z 00549df0 f   sp_msguser.obj
 0001:001491b0       ?SaveUsers@SPMessengerUserManager@@QAEHPBG@Z 0054a1b0 f   sp_msguser.obj
 0001:001495a0       ?PathW@SPMultiFileEntry@@QAEPBGXZ 0054a5a0 f   sp_multifile.obj
 0001:001495b0       ?Release@SPMultiFile@@QAEXXZ 0054a5b0 f   sp_multifile.obj
 0001:00149620       ?Add@SPMultiFile@@QAEXPBG@Z 0054a620 f   sp_multifile.obj
 0001:001497d0       ?Delete@SPMultiFile@@QAEXK@Z 0054a7d0 f   sp_multifile.obj
 0001:00149870       ?AddFromHDROP@SPMultiFile@@QAE_NPAX@Z 0054a870 f   sp_multifile.obj
 0001:00149b80       ?SetLen@JString@@QAEXK@Z   0054ab80 f i sp_multifile.obj
 0001:00149be0       ?SetLen@JWString@@QAEXK@Z  0054abe0 f i sp_multifile.obj
 0001:00149c40       ??_GSPMultiFileEntry@@QAEPAXI@Z 0054ac40 f i sp_multifile.obj
 0001:00149c70       ??1SPMultiFileEntry@@QAE@XZ 0054ac70 f i sp_multifile.obj
 0001:00149c70       ??1SPBalloonWndProgressState@@QAE@XZ 0054ac70 f i sp_multifile.obj
 0001:00149c70       ??1SPCalendarImage@@QAE@XZ 0054ac70 f i sp_multifile.obj
 0001:00149c80       ?Get@SPMultiFile@@QAEPAVSPMultiFileEntry@@K@Z 0054ac80 f   sp_multifile.obj
 0001:00149ca0       ?GetExtension@SPMultiFile@@QAEPBGK@Z 0054aca0 f   sp_multifile.obj
 0001:00149cf0       ?FindExtension@SPMultiFile@@QAEPAV1@PBG@Z 0054acf0 f   sp_multifile.obj
 0001:00149fe0       ?GetSPNetStatus@@YAAAVSPNetStatus@@XZ 0054afe0 f   sp_netstatus.obj
 0001:0014a070       ??0SPNetStatus@@AAE@XZ     0054b070 f   sp_netstatus.obj
 0001:0014a240       ??_GSPNetStatus@@UAEPAXI@Z 0054b240 f i sp_netstatus.obj
 0001:0014a240       ??_ESPNetStatus@@UAEPAXI@Z 0054b240 f i sp_netstatus.obj
 0001:0014a270       ??1SPNetStatus@@UAE@XZ     0054b270 f i sp_netstatus.obj
 0001:0014a300       ?IPChangeCallback4@SPNetStatus@@QAEXXZ 0054b300 f   sp_netstatus.obj
 0001:0014a310       ?IPChangeCallback6@SPNetStatus@@QAEXXZ 0054b310 f   sp_netstatus.obj
 0001:0014a320       ?EnqueueIPChangeCallback4@SPNetStatus@@QAE_NXZ 0054b320 f   sp_netstatus.obj
 0001:0014a390       ?EnqueueIPChangeCallback6@SPNetStatus@@QAE_NXZ 0054b390 f   sp_netstatus.obj
 0001:0014a400       ?Init@SPNetStatus@@QAEXPAUHWND__@@@Z 0054b400 f   sp_netstatus.obj
 0001:0014a690       ?ConnectivityChanged@SPNetStatusEvent@@UAGJW4NLM_CONNECTIVITY@@@Z 0054b690 f i sp_netstatus.obj
 0001:0014a6b0       ?Release@SPNetStatus@@QAEXXZ 0054b6b0 f   sp_netstatus.obj
 0001:0014a770       ?IsOnline@SPNetStatus@@QAEHXZ 0054b770 f   sp_netstatus.obj
 0001:0014a780       ?PollingSec@SPNetStatus@@QAEXXZ 0054b780 f   sp_netstatus.obj
 0001:0014a7e0       ?Update@SPNetStatus@@QAEXXZ 0054b7e0 f   sp_netstatus.obj
 0001:0014b0b0       ?GetTypeText@SPNetStatus@@QAEPAGXZ 0054c0b0 f   sp_netstatus.obj
 0001:0014b0c0       ?GetCostTypeText@SPNetStatus@@QAEPAGXZ 0054c0c0 f   sp_netstatus.obj
 0001:0014b0d0       ?QueryInterface@?$SPComObjectBase@UINetworkListManagerEvents@@@@UAGJABU_GUID@@PAPAX@Z 0054c0d0 f i sp_netstatus.obj
 0001:0014b190       ?AddRef@?$SPComObjectBase@UILocationEvents@@@@UAGKXZ 0054c190 f i sp_netstatus.obj
 0001:0014b190       ?AddRef@?$SPComObjectBase@UISensorEvents@@@@UAGKXZ 0054c190 f i sp_netstatus.obj
 0001:0014b190       ?AddRef@?$SPComObjectBase@UISensLogon@@@@UAGKXZ 0054c190 f i sp_netstatus.obj
 0001:0014b190       ?AddRef@?$SPComObjectBase@UISensorManagerEvents@@@@UAGKXZ 0054c190 f i sp_netstatus.obj
 0001:0014b190       ?AddRef@?$SPComObjectBase@UISensLogon2@@@@UAGKXZ 0054c190 f i sp_netstatus.obj
 0001:0014b190       ?AddRef@?$SPComObjectBase@UIEnumString@@@@UAGKXZ 0054c190 f i sp_netstatus.obj
 0001:0014b190       ?AddRef@?$SPComObjectBase@UINetworkListManagerEvents@@@@UAGKXZ 0054c190 f i sp_netstatus.obj
 0001:0014b190       ?AddRef@?$SPComObjectBase@UIDropTarget@@@@UAGKXZ 0054c190 f i sp_netstatus.obj
 0001:0014b1c0       ?Release@?$SPComObjectBase@UINetworkListManagerEvents@@@@UAGKXZ 0054c1c0 f i sp_netstatus.obj
 0001:0014b200       ??_ESPNetStatusEvent@@UAEPAXI@Z 0054c200 f i sp_netstatus.obj
 0001:0014b200       ??_G?$SPComObjectBase@UINetworkListManagerEvents@@@@UAEPAXI@Z 0054c200 f i sp_netstatus.obj
 0001:0014b200       ??_GSPNetStatusEvent@@UAEPAXI@Z 0054c200 f i sp_netstatus.obj
 0001:0014b200       ??_E?$SPComObjectBase@UINetworkListManagerEvents@@@@UAEPAXI@Z 0054c200 f i sp_netstatus.obj
 0001:0014b230       ??1SPNetStatusEvent@@UAE@XZ 0054c230 f i sp_netstatus.obj
 0001:0014b230       ??1?$SPComObjectBase@UINetworkListManagerEvents@@@@UAE@XZ 0054c230 f i sp_netstatus.obj
 0001:0014b250       ??0SPNews@@QAE@AAVSPSettings@@@Z 0054c250 f   sp_news.obj
 0001:0014b310       ?Release@SPNews@@QAEXXZ    0054c310 f   sp_news.obj
 0001:0014b320       ?GetScript@SPNews@@QAEPAGXZ 0054c320 f   sp_news.obj
 0001:0014b370       ?Load@SPNews@@QAEHPBG@Z    0054c370 f   sp_news.obj
 0001:0014b530       ??0SPNotifyIcon@@QAE@XZ    0054c530 f   sp_notifyicon.obj
 0001:0014b630       ??1SPNotifyIcon@@QAE@XZ    0054c630 f   sp_notifyicon.obj
 0001:0014b6a0       ?SetIcon@SPNotifyIcon@@QAEXPAUHICON__@@_N@Z 0054c6a0 f   sp_notifyicon.obj
 0001:0014b740       ?SetIcon@SPNotifyIcon@@QAEXAAV?$JPtrArray@PAUHICON__@@@@_N@Z 0054c740 f   sp_notifyicon.obj
 0001:0014b800       ?ClearIcon@SPNotifyIcon@@QAEXXZ 0054c800 f   sp_notifyicon.obj
 0001:0014b890       ?IsIconExist@SPNotifyIcon@@QAE_NXZ 0054c890 f   sp_notifyicon.obj
 0001:0014b8a0       ?SetLargeIcon@SPNotifyIcon@@QAEXPAUHICON__@@_N@Z 0054c8a0 f   sp_notifyicon.obj
 0001:0014b8e0       ?GetLargeIcon@SPNotifyIcon@@QAEPAUHICON__@@XZ 0054c8e0 f   sp_notifyicon.obj
 0001:0014b900       ?ClearLargeIcon@SPNotifyIcon@@QAEXXZ 0054c900 f   sp_notifyicon.obj
 0001:0014b940       ?Init@SPNotifyIcon@@QAEHPAXI@Z 0054c940 f   sp_notifyicon.obj
 0001:0014ba30       ?SetText@SPNotifyIcon@@QAEXPBG@Z 0054ca30 f   sp_notifyicon.obj
 0001:0014bb10       ?SetTrayBalloon@SPNotifyIcon@@QAEXPBG00H@Z 0054cb10 f   sp_notifyicon.obj
 0001:0014bb40       ?SetTrayBalloonAdd@SPNotifyIcon@@QAEHPBG00H@Z 0054cb40 f   sp_notifyicon.obj
 0001:0014bbc0       ?SetTrayBalloonInternal@SPNotifyIcon@@AAEXAATSPNotifyIconUnion@@PBG11H@Z 0054cbc0 f   sp_notifyicon.obj
 0001:0014bd50       ?GetTrayBalloonText@SPNotifyIcon@@QAEXAAVJWString@@@Z 0054cd50 f   sp_notifyicon.obj
 0001:0014bd90       ?GetTrayBalloonTitle@SPNotifyIcon@@QAEXAAVJWString@@@Z 0054cd90 f   sp_notifyicon.obj
 0001:0014bdd0       ?TimerExec@SPNotifyIcon@@QAEXXZ 0054cdd0 f   sp_notifyicon.obj
 0001:0014be00       ?SetRunCount@SPNotifyIcon@@QAEXH@Z 0054ce00 f   sp_notifyicon.obj
 0001:0014be20       ?TimerExecAnime@SPNotifyIcon@@QAEXXZ 0054ce20 f   sp_notifyicon.obj
 0001:0014bee0       ?NotifyInternal@SPNotifyIcon@@AAEHAATSPNotifyIconUnion@@H@Z 0054cee0 f   sp_notifyicon.obj
 0001:0014bfa0       ?Notify@SPNotifyIcon@@QAEHH@Z 0054cfa0 f   sp_notifyicon.obj
 0001:0014bfc0       ?AddInternal@SPNotifyIcon@@AAEHAATSPNotifyIconUnion@@H@Z 0054cfc0 f   sp_notifyicon.obj
 0001:0014c010       ?Add@SPNotifyIcon@@QAEHH@Z 0054d010 f   sp_notifyicon.obj
 0001:0014c030       ?Delete@SPNotifyIcon@@QAEHXZ 0054d030 f   sp_notifyicon.obj
 0001:0014c060       ?UpdateIcon@SPNotifyIcon@@QAEH_N@Z 0054d060 f   sp_notifyicon.obj
 0001:0014c090       ?IsValid@SPOtherGhostProp@@QAEHXZ 0054d090 f   sp_other.obj
 0001:0014c0b0       ?Clear@SPOtherGhostProp@@QAEXXZ 0054d0b0 f   sp_other.obj
 0001:0014c280       ?IsMatch@SPOtherGhostProp@@QAEHPBG0@Z 0054d280 f   sp_other.obj
 0001:0014c2d0       ?AddData@SPOtherGhostProp@@QAEXPAD0H@Z 0054d2d0 f   sp_other.obj
 0001:0014c610       ?MakeShioriEntry@SPOtherGhostProp@@QAEPAGXZ 0054d610 f   sp_other.obj
 0001:0014c650       ?MakeEntry@SPOtherGhostProp@@QAEXAAVJString@@H@Z 0054d650 f   sp_other.obj
 0001:0014caa0       ??1SPOtherGhost@@QAE@XZ    0054daa0 f   sp_other.obj
 0001:0014cc50       ?Release@SPOtherGhost@@QAEXXZ 0054dc50 f   sp_other.obj
 0001:0014cc60       ?GetPropByMD5@SPOtherGhost@@QAEPAVSPOtherGhostProp@@PBD@Z 0054dc60 f   sp_other.obj
 0001:0014cda0       ?GetPropByName@SPOtherGhost@@QAEPAVSPOtherGhostProp@@PBG0@Z 0054dda0 f   sp_other.obj
 0001:0014cdf0       ?GetPropByGhostIndex@SPOtherGhost@@QAEPAVSPOtherGhostProp@@H@Z 0054ddf0 f   sp_other.obj
 0001:0014cf80       ?EliminateInvalidEntry@SPOtherGhost@@QAEXXZ 0054df80 f   sp_other.obj
 0001:0014d150       ?Add@SPOtherGhost@@QAEPAVSPOtherGhostProp@@PAD@Z 0054e150 f   sp_other.obj
 0001:0014d280       ?WriteFMOEntry@SPOtherGhost@@QAEIAAVJString@@H@Z 0054e280 f   sp_other.obj
 0001:0014d320       ?GetHWndList@SPOtherGhost@@QAEXAAV?$JArray@PAX@@@Z 0054e320 f   sp_other.obj
 0001:0014d470       ?AddSHIORIEntry@SPOtherGhost@@QAEIAAVJWString@@IH@Z 0054e470 f   sp_other.obj
 0001:0014d5f0       ?Set@?$JHash@D@@QAEXPBDPAX@Z 0054e5f0 f i sp_other.obj
 0001:0014d800       ??1?$SPCacheObj@VSPOtherGhostProp@@VJDummyLockSection@@VJDummyLock@@@@QAE@XZ 0054e800 f i sp_other.obj
 0001:0014d8d0       ??1SPOtherGhostProp@@QAE@XZ 0054e8d0 f i sp_other.obj
 0001:0014d9c0       ?New@?$SPCacheObj@VSPOtherGhostProp@@VJDummyLockSection@@VJDummyLock@@@@QAEPAVSPOtherGhostProp@@XZ 0054e9c0 f i sp_other.obj
 0001:0014db50       ??0SPOtherGhostProp@@QAE@XZ 0054eb50 f i sp_other.obj
 0001:0014dca0       ?Delete@?$SPCacheObj@VSPOtherGhostProp@@VJDummyLockSection@@VJDummyLock@@@@QAEXPAVSPOtherGhostProp@@@Z 0054eca0 f i sp_other.obj
 0001:0014ddc0       ?DeleteArray@?$SPCacheObj@VSPOtherGhostProp@@VJDummyLockSection@@VJDummyLock@@@@QAEXAAV?$JPtrArray@PAVSPOtherGhostProp@@@@@Z 0054edc0 f i sp_other.obj
 0001:0014de90       ??_ESPOtherGhostProp@@QAEPAXI@Z 0054ee90 f i sp_other.obj
 0001:0014def0       ?Delete@?$JHashData@D@@QAEXPBDH@Z 0054eef0 f i sp_other.obj
 0001:0014dfb0       ?IsEmpty@?$JHashData@D@@QAEHXZ 0054efb0 f i sp_other.obj
 0001:0014dfe0       ??1SPOtherFINEServer@@QAE@XZ 0054efe0 f   sp_otherfine.obj
 0001:0014e1a0       ??1SPOtherFINEServerProp@@AAE@XZ 0054f1a0 f i sp_otherfine.obj
 0001:0014e350       ?Clear@SPOtherFINEServerProp@@QAEXXZ 0054f350 f i sp_otherfine.obj
 0001:0014e450       ?Release@SPOtherFINEServer@@QAEXXZ 0054f450 f   sp_otherfine.obj
 0001:0014e500       ?Add@SPOtherFINEServer@@QAEPAVSPOtherFINEServerProp@@PAD@Z 0054f500 f   sp_otherfine.obj
 0001:0014e630       ?WriteFMOEntry@SPOtherFINEServer@@QAEIAAVJString@@@Z 0054f630 f   sp_otherfine.obj
 0001:0014e6d0       ?EliminateInvalidEntry@SPOtherFINEServer@@QAEXXZ 0054f6d0 f   sp_otherfine.obj
 0001:0014e8f0       ?AddData@SPOtherFINEServerProp@@QAEXPAD0@Z 0054f8f0 f   sp_otherfine.obj
 0001:0014ea40       ?MakeEntry@SPOtherFINEServerProp@@QAEXAAVJString@@@Z 0054fa40 f   sp_otherfine.obj
 0001:0014ebe0       ??1?$SPCacheObj@VSPOtherFINEServerProp@@VJDummyLockSection@@VJDummyLock@@@@QAE@XZ 0054fbe0 f i sp_otherfine.obj
 0001:0014ecb0       ?Release@?$SPCacheObj@VSPOtherFINEServerProp@@VJDummyLockSection@@VJDummyLock@@@@QAEXXZ 0054fcb0 f i sp_otherfine.obj
 0001:0014eda0       ?New@?$SPCacheObj@VSPOtherFINEServerProp@@VJDummyLockSection@@VJDummyLock@@@@QAEPAVSPOtherFINEServerProp@@XZ 0054fda0 f i sp_otherfine.obj
 0001:0014ef30       ??0SPOtherFINEServerProp@@AAE@XZ 0054ff30 f i sp_otherfine.obj
 0001:0014f060       ?Delete@?$SPCacheObj@VSPOtherFINEServerProp@@VJDummyLockSection@@VJDummyLock@@@@QAEXPAVSPOtherFINEServerProp@@@Z 00550060 f i sp_otherfine.obj
 0001:0014f1b0       ?DeleteArray@?$SPCacheObj@VSPOtherFINEServerProp@@VJDummyLockSection@@VJDummyLock@@@@QAEXAAV?$JPtrArray@PAVSPOtherFINEServerProp@@@@@Z 005501b0 f i sp_otherfine.obj
 0001:0014f300       ?SPParamGetStatusMsg@@YAPBDH@Z 00550300 f   sp_param.obj
 0001:0014f810       ?Release@SPParamManager@@QAEXXZ 00550810 f   sp_param.obj
 0001:0014f840       ?SetReqResGMEM@SPParamManager@@AAE_N_NPAXK@Z 00550840 f   sp_param.obj
 0001:0014fa10       ?SetResponseGMEM@SPParamManager@@QAE_NPAXK@Z 00550a10 f   sp_param.obj
 0001:0014fa30       ?SetRequestGMEM@SPParamManager@@QAE_NPAXK@Z 00550a30 f   sp_param.obj
 0001:0014fa50       ?SetRequestText@SPParamManager@@QAE_NPBD@Z 00550a50 f   sp_param.obj
 0001:0014fad0       ?SetCharset@SPParamManager@@QAEXPBD@Z 00550ad0 f   sp_param.obj
 0001:0014fb10       ?SetForceEncoding@SPParamManager@@QAEXPBD@Z 00550b10 f   sp_param.obj
 0001:0014fb50       ?GetResponseText@SPParamManager@@QAEXAAVJString@@@Z 00550b50 f   sp_param.obj
 0001:0014fdc0       ?GetResponseGMEM@SPParamManager@@QAEPAXPAJ@Z 00550dc0 f   sp_param.obj
 0001:0014fe80       ?ParseValue@SPParamManager@@AAE_NPAD_N@Z 00550e80 f   sp_param.obj
 0001:00150220       ?Find@SPParamManager@@QAEJPBD_N@Z 00551220 f   sp_param.obj
 0001:001502a0       ?GetValue@SPParamManager@@QAEPAGPBD_N@Z 005512a0 f   sp_param.obj
 0001:001502e0       ?GetValueA@SPParamManager@@QAEPADPBDH_N@Z 005512e0 f   sp_param.obj
 0001:00150390       ?GetValueAll@SPParamManager@@QAE_NPBDAAV?$JPtrArray@PAG@@@Z 00551390 f   sp_param.obj
 0001:001504f0       ?GetValuePrefixAll@SPParamManager@@QAE_NPBDAAV?$JPtrArray@PAD@@AAV?$JPtrArray@PAG@@@Z 005514f0 f   sp_param.obj
 0001:001506a0       ?GetValueReference@SPParamManager@@QAE_NPBDAAV?$JPtrArray@PAG@@@Z 005516a0 f   sp_param.obj
 0001:00150800       ?AddValue@SPParamManager@@QAE_NPBDPBG@Z 00551800 f   sp_param.obj
 0001:00150850       ?AddValueA@SPParamManager@@QAE_NPBD0H@Z 00551850 f   sp_param.obj
 0001:00150970       ?AddValueMultiple@SPParamManager@@QAEXPBDPBG@Z 00551970 f   sp_param.obj
 0001:001509b0       ??0SPParseJSON@@QAE@XZ     005519b0 f   sp_parsejson.obj
 0001:00150af0       ??1SPParseJSON@@QAE@XZ     00551af0 f   sp_parsejson.obj
 0001:00150b60       ?Release@SPParseJSON@@QAEXXZ 00551b60 f   sp_parsejson.obj
 0001:00150b80       ?GetOutBuffer@SPParseJSON@@AAEAAVJWString@@XZ 00551b80 f   sp_parsejson.obj
 0001:00150bb0       ?ParseFile@SPParseJSON@@QAE_NPBG@Z 00551bb0 f   sp_parsejson.obj
 0001:00150cd0       ?ParseString@SPParseJSON@@QAE_NPBD@Z 00551cd0 f   sp_parsejson.obj
 0001:00150d00       ?SerializeToString@SPParseJSON@@QAEPBD_N@Z 00551d00 f   sp_parsejson.obj
 0001:00150e20       ?CreateNewArray@SPParseJSON@@QAEPAUjson_array_t@@XZ 00551e20 f   sp_parsejson.obj
 0001:00150e40       ?ObjectGetString@SPParseJSON@@QAEPBGPBUjson_object_t@@PBG@Z 00551e40 f   sp_parsejson.obj
 0001:00150eb0       ?ObjectGetArray@SPParseJSON@@QAEPAUjson_array_t@@PBUjson_object_t@@PBG@Z 00551eb0 f   sp_parsejson.obj
 0001:00150f00       ?ObjectSetString@SPParseJSON@@QAE_NPAUjson_object_t@@PBG1@Z 00551f00 f   sp_parsejson.obj
 0001:00150ff0       ?ArrayGetString@SPParseJSON@@QAEPBGPBUjson_array_t@@I@Z 00551ff0 f   sp_parsejson.obj
 0001:00151040       ?ArrayGetObject@SPParseJSON@@QAEPAUjson_object_t@@PBUjson_array_t@@I@Z 00552040 f   sp_parsejson.obj
 0001:00151060       ?ArrayGetArray@SPParseJSON@@QAEPAUjson_array_t@@PBU2@I@Z 00552060 f   sp_parsejson.obj
 0001:00151080       ?ArrayGetNumber@SPParseJSON@@QAENPBUjson_array_t@@I@Z 00552080 f   sp_parsejson.obj
 0001:001510a0       ?ArrayGetCount@SPParseJSON@@QAEIPBUjson_array_t@@@Z 005520a0 f   sp_parsejson.obj
 0001:001510c0       ?ArrayAppendObject@SPParseJSON@@QAEPAUjson_object_t@@PAUjson_array_t@@@Z 005520c0 f   sp_parsejson.obj
 0001:00151110       ?ValueGetObject@SPParseJSON@@QAEPAUjson_object_t@@PBUjson_value_t@@@Z 00552110 f   sp_parsejson.obj
 0001:00151140       ?ValueGetArray@SPParseJSON@@QAEPAUjson_array_t@@PBUjson_value_t@@@Z 00552140 f   sp_parsejson.obj
 0001:00151170       ?GetSPPdh@@YAAAVSPPdh@@XZ  00552170 f   sp_pdh.obj
 0001:00151200       ??0SPPdh@@AAE@XZ           00552200 f   sp_pdh.obj
 0001:00151320       ??_ESPPdh@@UAEPAXI@Z       00552320 f i sp_pdh.obj
 0001:00151320       ??_GSPPdh@@UAEPAXI@Z       00552320 f i sp_pdh.obj
 0001:00151350       ??1SPPdh@@UAE@XZ           00552350 f   sp_pdh.obj
 0001:001513d0       ?L_AddCounter@SPPdh@@QAEPAXPAXPBDK@Z 005523d0 f   sp_pdh.obj
 0001:00151420       ?L_GetCounterValueDouble@SPPdh@@QAENPAXK@Z 00552420 f   sp_pdh.obj
 0001:00151480       ??0SPPiro@@QAE@PAVSPGhost@@@Z 00552480 f   sp_piro.obj
 0001:00151510       ?Name@SPPiro@@UAEPBGXZ     00552510 f i sp_piro.obj
 0001:00151510       ?GetModuleDesc@SPPiro@@UAEPBGXZ 00552510 f i sp_piro.obj
 0001:00151520       ?GetLogFileName@SPPiro@@UAEPBGXZ 00552520 f i sp_piro.obj
 0001:00151530       ?GetTypeString@SPPiro@@UAEPBGXZ 00552530 f i sp_piro.obj
 0001:00151540       ??_ESPPiro@@UAEPAXI@Z      00552540 f i sp_piro.obj
 0001:00151540       ??_GSPPiro@@UAEPAXI@Z      00552540 f i sp_piro.obj
 0001:00151570       ??1SPPiro@@UAE@XZ          00552570 f i sp_piro.obj
 0001:00151590       ?Load@SPPiro@@QAEHPBG@Z    00552590 f   sp_piro.obj
 0001:001518d0       ?Unload@SPPiro@@QAEXXZ     005528d0 f   sp_piro.obj
 0001:00151930       ?GetScript@SPPiro@@QAEPAGPBG@Z 00552930 f   sp_piro.obj
 0001:001519b0       ?Override@SPPiro@@QAEHPBDJ@Z 005529b0 f   sp_piro.obj
 0001:00151a20       ?GetSongResponse@SPPiro@@QAEPAGPBG@Z 00552a20 f   sp_piro.obj
 0001:00151ab0       ?GetNews@SPPiro@@QAEPAGXZ  00552ab0 f   sp_piro.obj
 0001:00151ac0       ?GetProfile@SPPiro@@QAEPAGXZ 00552ac0 f   sp_piro.obj
 0001:00151ad0       ?OnMinutes@SPPiro@@QAEPAGXZ 00552ad0 f   sp_piro.obj
 0001:00151ae0       ?OnSecond@SPPiro@@QAEPAGXZ 00552ae0 f   sp_piro.obj
 0001:00151af0       ?OnFileDrop@SPPiro@@QAEPAGPBG@Z 00552af0 f   sp_piro.obj
 0001:00151b70       ?OnMouseEventPiro@SPPiro@@QAEPAGPBG0JJJ@Z 00552b70 f   sp_piro.obj
 0001:00151d10       ?Notify@SPPiro@@QAEHHHPBG0@Z 00552d10 f   sp_piro.obj
 0001:00151f50       ??_ESPPiro@@W3AEPAXI@Z     00552f50 f i sp_piro.obj
 0001:00151f60       ??_ESPPiro@@WCIE@AEPAXI@Z  00552f60 f i sp_piro.obj
 0001:00151f70       ??0SPPluginEvent@@QAE@PAVSPGhost@@AAVSPShioriEvent@@@Z 00552f70 f   sp_plugin.obj
 0001:00151fd0       ??0SPPlugin@@QAE@XZ        00552fd0 f   sp_plugin.obj
 0001:001521b0       ?Name@SPPlugin@@UAEPBGXZ   005531b0 f i sp_plugin.obj
 0001:001521b0       ?GetModuleDesc@SPPlugin@@UAEPBGXZ 005531b0 f i sp_plugin.obj
 0001:001521c0       ?GetLogFileName@SPPlugin@@UAEPBGXZ 005531c0 f i sp_plugin.obj
 0001:001521d0       ?GetTypeString@SPPlugin@@UAEPBGXZ 005531d0 f i sp_plugin.obj
 0001:001521e0       ??_GSPPlugin@@MAEPAXI@Z    005531e0 f i sp_plugin.obj
 0001:001521e0       ??_ESPPlugin@@MAEPAXI@Z    005531e0 f i sp_plugin.obj
 0001:00152210       ??1SPPlugin@@MAE@XZ        00553210 f   sp_plugin.obj
 0001:00152410       ?VarGet@SPPlugin@@UAE_NPAVSPGhost@@PBGAAVJWString@@PAVSPVarSystemNode@@@Z 00553410 f   sp_plugin.obj
 0001:00152460       ?VarSet@SPPlugin@@UAE_NPAVSPGhost@@PBGPAGPAVSPVarSystemNode@@@Z 00553460 f   sp_plugin.obj
